ARM GAS  C:\Users\Ali\AppData\Local\Temp\cc6fRbWg.s 			page 1


   1              		.cpu cortex-m4
   2              		.arch armv7e-m
   3              		.fpu fpv4-sp-d16
   4              		.eabi_attribute 27, 1
   5              		.eabi_attribute 28, 1
   6              		.eabi_attribute 20, 1
   7              		.eabi_attribute 21, 1
   8              		.eabi_attribute 23, 3
   9              		.eabi_attribute 24, 1
  10              		.eabi_attribute 25, 1
  11              		.eabi_attribute 26, 1
  12              		.eabi_attribute 30, 1
  13              		.eabi_attribute 34, 1
  14              		.eabi_attribute 18, 4
  15              		.file	"bootloader.c"
  16              		.text
  17              	.Ltext0:
  18              		.cfi_sections	.debug_frame
  19              		.file 1 "Core/Src/bootloader.c"
  20              		.section	.text.Bootloader_ReadFlash,"ax",%progbits
  21              		.align	1
  22              		.syntax unified
  23              		.thumb
  24              		.thumb_func
  26              	Bootloader_ReadFlash:
  27              	.LVL0:
  28              	.LFB138:
   1:Core/Src/bootloader.c **** /* USER CODE BEGIN Header */
   2:Core/Src/bootloader.c **** /**
   3:Core/Src/bootloader.c ****   ******************************************************************************
   4:Core/Src/bootloader.c ****   * @file           : bootloader.c
   5:Core/Src/bootloader.c ****   * @brief          : CAN Bootloader implementation for STM32L432
   6:Core/Src/bootloader.c ****   ******************************************************************************
   7:Core/Src/bootloader.c ****   * @attention
   8:Core/Src/bootloader.c ****   *
   9:Core/Src/bootloader.c ****   * This bootloader implements a CAN-based firmware update mechanism.
  10:Core/Src/bootloader.c ****   * It allows flashing new application firmware via CAN bus messages.
  11:Core/Src/bootloader.c ****   *
  12:Core/Src/bootloader.c ****   ******************************************************************************
  13:Core/Src/bootloader.c ****   */
  14:Core/Src/bootloader.c **** /* USER CODE END Header */
  15:Core/Src/bootloader.c **** 
  16:Core/Src/bootloader.c **** /* Includes ------------------------------------------------------------------*/
  17:Core/Src/bootloader.c **** #include "bootloader.h"
  18:Core/Src/bootloader.c **** #include <string.h>
  19:Core/Src/bootloader.c **** 
  20:Core/Src/bootloader.c **** /* Private variables ---------------------------------------------------------*/
  21:Core/Src/bootloader.c **** static CAN_HandleTypeDef *hcan_bootloader;
  22:Core/Src/bootloader.c **** static BootloaderStatus_t bootloader_status;
  23:Core/Src/bootloader.c **** static CAN_RxHeaderTypeDef rx_header;
  24:Core/Src/bootloader.c **** static uint8_t rx_data[8];
  25:Core/Src/bootloader.c **** static uint8_t tx_data[8];
  26:Core/Src/bootloader.c **** static CAN_TxHeaderTypeDef tx_header;
  27:Core/Src/bootloader.c **** static uint32_t tx_mailbox;
  28:Core/Src/bootloader.c **** static uint8_t flash_buffer[8];     /* Buffer for 8-byte flash writes (two 4-byte chunks) */
  29:Core/Src/bootloader.c **** static uint16_t buffer_index = 0;   /* Current position in flash_buffer */
  30:Core/Src/bootloader.c **** static volatile uint8_t jump_to_app_flag = 0;  /* Flag to trigger jump from main loop */
ARM GAS  C:\Users\Ali\AppData\Local\Temp\cc6fRbWg.s 			page 2


  31:Core/Src/bootloader.c **** static volatile uint8_t can_command_received = 0;  /* Flag to disable auto-jump timeout */
  32:Core/Src/bootloader.c **** static uint32_t last_heartbeat_time = 0;  /* Last heartbeat timestamp for resetting on commands */
  33:Core/Src/bootloader.c **** 
  34:Core/Src/bootloader.c **** /* Private function prototypes -----------------------------------------------*/
  35:Core/Src/bootloader.c **** static void Bootloader_ConfigureCANFilter(void);
  36:Core/Src/bootloader.c **** static uint8_t Bootloader_EraseApplicationFlash(void);
  37:Core/Src/bootloader.c **** static uint8_t Bootloader_WriteFlash(uint32_t address, uint8_t *data, uint16_t length);
  38:Core/Src/bootloader.c **** static uint8_t Bootloader_ReadFlash(uint32_t address, uint8_t *data, uint16_t length);
  39:Core/Src/bootloader.c **** static void Bootloader_DeInit(void);
  40:Core/Src/bootloader.c **** static void Bootloader_SendACK(void);
  41:Core/Src/bootloader.c **** static void Bootloader_SendNACK(uint8_t error_code);
  42:Core/Src/bootloader.c **** static void Bootloader_WaitForCANTransmission(void);
  43:Core/Src/bootloader.c **** 
  44:Core/Src/bootloader.c **** /**
  45:Core/Src/bootloader.c ****   * @brief  Initialize the bootloader
  46:Core/Src/bootloader.c ****   * @param  hcan: pointer to CAN handle
  47:Core/Src/bootloader.c ****   * @retval None
  48:Core/Src/bootloader.c ****   */
  49:Core/Src/bootloader.c **** void Bootloader_Init(CAN_HandleTypeDef *hcan)
  50:Core/Src/bootloader.c **** {
  51:Core/Src/bootloader.c ****     hcan_bootloader = hcan;
  52:Core/Src/bootloader.c ****     
  53:Core/Src/bootloader.c ****     /* Initialize bootloader status */
  54:Core/Src/bootloader.c ****     memset(&bootloader_status, 0, sizeof(BootloaderStatus_t));
  55:Core/Src/bootloader.c ****     bootloader_status.state = BL_STATE_IDLE;
  56:Core/Src/bootloader.c ****     bootloader_status.current_address = APPLICATION_ADDRESS;
  57:Core/Src/bootloader.c ****     
  58:Core/Src/bootloader.c ****     /* Configure CAN filter */
  59:Core/Src/bootloader.c ****     Bootloader_ConfigureCANFilter();
  60:Core/Src/bootloader.c ****     
  61:Core/Src/bootloader.c ****     /* Start CAN peripheral */
  62:Core/Src/bootloader.c ****     if (HAL_CAN_Start(hcan_bootloader) != HAL_OK)
  63:Core/Src/bootloader.c ****     {
  64:Core/Src/bootloader.c ****         Error_Handler();
  65:Core/Src/bootloader.c ****     }
  66:Core/Src/bootloader.c ****     
  67:Core/Src/bootloader.c ****     /* Activate CAN RX notification */
  68:Core/Src/bootloader.c ****     if (HAL_CAN_ActivateNotification(hcan_bootloader, CAN_IT_RX_FIFO0_MSG_PENDING) != HAL_OK)
  69:Core/Src/bootloader.c ****     {
  70:Core/Src/bootloader.c ****         Error_Handler();
  71:Core/Src/bootloader.c ****     }
  72:Core/Src/bootloader.c ****     
  73:Core/Src/bootloader.c ****     /* Configure TX header */
  74:Core/Src/bootloader.c ****     tx_header.StdId = 0;
  75:Core/Src/bootloader.c ****     tx_header.ExtId = CAN_BOOTLOADER_ID;
  76:Core/Src/bootloader.c ****     tx_header.IDE = CAN_ID_EXT;
  77:Core/Src/bootloader.c ****     tx_header.RTR = CAN_RTR_DATA;
  78:Core/Src/bootloader.c ****     tx_header.DLC = 8;
  79:Core/Src/bootloader.c ****     tx_header.TransmitGlobalTime = DISABLE;
  80:Core/Src/bootloader.c **** }
  81:Core/Src/bootloader.c **** 
  82:Core/Src/bootloader.c **** /**
  83:Core/Src/bootloader.c ****   * @brief  Configure CAN filter to accept bootloader messages
  84:Core/Src/bootloader.c ****   * @retval None
  85:Core/Src/bootloader.c ****   */
  86:Core/Src/bootloader.c **** static void Bootloader_ConfigureCANFilter(void)
  87:Core/Src/bootloader.c **** {
ARM GAS  C:\Users\Ali\AppData\Local\Temp\cc6fRbWg.s 			page 3


  88:Core/Src/bootloader.c ****     CAN_FilterTypeDef can_filter;
  89:Core/Src/bootloader.c ****     
  90:Core/Src/bootloader.c ****     can_filter.FilterBank = 0;
  91:Core/Src/bootloader.c ****     can_filter.FilterMode = CAN_FILTERMODE_IDMASK;
  92:Core/Src/bootloader.c ****     can_filter.FilterScale = CAN_FILTERSCALE_32BIT;
  93:Core/Src/bootloader.c ****     /* For extended IDs: bits [28:13] in FilterIdHigh, bits [12:0] + IDE in FilterIdLow */
  94:Core/Src/bootloader.c ****     can_filter.FilterIdHigh = (CAN_HOST_ID >> 13) & 0xFFFF;
  95:Core/Src/bootloader.c ****     can_filter.FilterIdLow = ((CAN_HOST_ID << 3) & 0xFFF8) | 0x0004;  /* IDE bit set */
  96:Core/Src/bootloader.c ****     can_filter.FilterMaskIdHigh = 0xFFFF;  /* Match all upper bits */
  97:Core/Src/bootloader.c ****     can_filter.FilterMaskIdLow = 0xFFFC;   /* Match lower bits + IDE */
  98:Core/Src/bootloader.c ****     can_filter.FilterFIFOAssignment = CAN_RX_FIFO0;
  99:Core/Src/bootloader.c ****     can_filter.FilterActivation = ENABLE;
 100:Core/Src/bootloader.c ****     can_filter.SlaveStartFilterBank = 14;
 101:Core/Src/bootloader.c ****     
 102:Core/Src/bootloader.c ****     if (HAL_CAN_ConfigFilter(hcan_bootloader, &can_filter) != HAL_OK)
 103:Core/Src/bootloader.c ****     {
 104:Core/Src/bootloader.c ****         Error_Handler();
 105:Core/Src/bootloader.c ****     }
 106:Core/Src/bootloader.c **** }
 107:Core/Src/bootloader.c **** 
 108:Core/Src/bootloader.c **** /**
 109:Core/Src/bootloader.c ****   * @brief  Main bootloader loop
 110:Core/Src/bootloader.c ****   * @retval None
 111:Core/Src/bootloader.c ****   */
 112:Core/Src/bootloader.c **** void Bootloader_Main(void)
 113:Core/Src/bootloader.c **** {
 114:Core/Src/bootloader.c ****     uint32_t timeout_start = HAL_GetTick();
 115:Core/Src/bootloader.c ****     uint32_t last_heartbeat = HAL_GetTick();
 116:Core/Src/bootloader.c ****     uint8_t timeout_expired = 0;
 117:Core/Src/bootloader.c ****     
 118:Core/Src/bootloader.c ****     /* Initialize the static heartbeat time variable */
 119:Core/Src/bootloader.c ****     last_heartbeat_time = last_heartbeat;
 120:Core/Src/bootloader.c ****     
 121:Core/Src/bootloader.c ****     /* Send ready message */
 122:Core/Src/bootloader.c ****     tx_data[0] = RESP_READY;
 123:Core/Src/bootloader.c ****     tx_data[1] = 0x01;  /* Bootloader version */
 124:Core/Src/bootloader.c ****     tx_data[2] = 0x00;  /* Bootloader subversion */
 125:Core/Src/bootloader.c ****     Bootloader_SendCANMessage(RESP_READY, tx_data, 3);
 126:Core/Src/bootloader.c ****     
 127:Core/Src/bootloader.c ****     /* Main bootloader loop with timeout */
 128:Core/Src/bootloader.c ****     while (1)
 129:Core/Src/bootloader.c ****     {
 130:Core/Src/bootloader.c ****         /* Update local heartbeat from static variable (may be reset by command processing) */
 131:Core/Src/bootloader.c ****         last_heartbeat = last_heartbeat_time;
 132:Core/Src/bootloader.c ****         
 133:Core/Src/bootloader.c ****         /* Send heartbeat message periodically only when idle */
 134:Core/Src/bootloader.c ****         if (bootloader_status.state == BL_STATE_IDLE && 
 135:Core/Src/bootloader.c ****             (HAL_GetTick() - last_heartbeat) >= HEARTBEAT_INTERVAL_MS)
 136:Core/Src/bootloader.c ****         {
 137:Core/Src/bootloader.c ****             /* Send ready/heartbeat message */
 138:Core/Src/bootloader.c ****             tx_data[0] = RESP_READY;
 139:Core/Src/bootloader.c ****             tx_data[1] = 0x01;  /* Bootloader version */
 140:Core/Src/bootloader.c ****             tx_data[2] = 0x00;  /* Bootloader subversion */
 141:Core/Src/bootloader.c ****             Bootloader_SendCANMessage(RESP_READY, tx_data, 3);
 142:Core/Src/bootloader.c ****             last_heartbeat = HAL_GetTick();
 143:Core/Src/bootloader.c ****             last_heartbeat_time = last_heartbeat;  /* Update static variable */
 144:Core/Src/bootloader.c ****         }
ARM GAS  C:\Users\Ali\AppData\Local\Temp\cc6fRbWg.s 			page 4


 145:Core/Src/bootloader.c ****         
 146:Core/Src/bootloader.c ****         /* Check for timeout to auto-jump to application */
 147:Core/Src/bootloader.c ****         /* Only auto-jump if: timeout expired AND no CAN commands received AND valid app exists */
 148:Core/Src/bootloader.c ****         if (!timeout_expired && !can_command_received &&
 149:Core/Src/bootloader.c ****             (HAL_GetTick() - timeout_start >= BOOTLOADER_TIMEOUT_MS))
 150:Core/Src/bootloader.c ****         {
 151:Core/Src/bootloader.c ****             timeout_expired = 1;
 152:Core/Src/bootloader.c **** 
 153:Core/Src/bootloader.c ****             /* Only jump if we have a valid application flag set */
 154:Core/Src/bootloader.c ****             if (Bootloader_CheckApplicationValidFlag())
 155:Core/Src/bootloader.c ****             {
 156:Core/Src/bootloader.c ****                 /* Send timeout jump message */
 157:Core/Src/bootloader.c ****                 tx_data[0] = RESP_READY;
 158:Core/Src/bootloader.c ****                 tx_data[1] = 0xAA;  /* Special: Timeout auto-jump */
 159:Core/Src/bootloader.c ****                 tx_data[2] = 0x55;
 160:Core/Src/bootloader.c ****                 Bootloader_SendCANMessage(RESP_READY, tx_data, 3);
 161:Core/Src/bootloader.c **** 
 162:Core/Src/bootloader.c ****                 /* Wait for message to send */
 163:Core/Src/bootloader.c ****                 Bootloader_WaitForCANTransmission();
 164:Core/Src/bootloader.c ****                 HAL_Delay(10);
 165:Core/Src/bootloader.c **** 
 166:Core/Src/bootloader.c ****                 /* Jump to application */
 167:Core/Src/bootloader.c ****                 Bootloader_JumpToApplication();
 168:Core/Src/bootloader.c ****             }
 169:Core/Src/bootloader.c ****             /* If no valid app, stay in bootloader mode indefinitely */
 170:Core/Src/bootloader.c ****         }
 171:Core/Src/bootloader.c ****         
 172:Core/Src/bootloader.c ****         /* Check if we should jump to application (from CAN command) */
 173:Core/Src/bootloader.c ****         if (jump_to_app_flag)
 174:Core/Src/bootloader.c ****         {
 175:Core/Src/bootloader.c ****             /* Send a pre-jump indicator message (using READY with special code) */
 176:Core/Src/bootloader.c ****             tx_data[0] = RESP_READY;
 177:Core/Src/bootloader.c ****             tx_data[1] = 0xFF;  /* Special: About to jump */
 178:Core/Src/bootloader.c ****             tx_data[2] = 0xFF;
 179:Core/Src/bootloader.c ****             Bootloader_SendCANMessage(RESP_READY, tx_data, 3);
 180:Core/Src/bootloader.c ****             
 181:Core/Src/bootloader.c ****             /* Wait for this message to be sent */
 182:Core/Src/bootloader.c ****             Bootloader_WaitForCANTransmission();
 183:Core/Src/bootloader.c ****             
 184:Core/Src/bootloader.c ****             /* Jump to application (this function should not return) */
 185:Core/Src/bootloader.c ****             Bootloader_JumpToApplication();
 186:Core/Src/bootloader.c ****             
 187:Core/Src/bootloader.c ****             /* If we get here, jump failed - reset the flag */
 188:Core/Src/bootloader.c ****             jump_to_app_flag = 0;
 189:Core/Src/bootloader.c ****         }
 190:Core/Src/bootloader.c ****         
 191:Core/Src/bootloader.c ****         /* Process received CAN messages (handled in interrupt) */
 192:Core/Src/bootloader.c ****         HAL_Delay(1);
 193:Core/Src/bootloader.c ****     }
 194:Core/Src/bootloader.c **** }
 195:Core/Src/bootloader.c **** 
 196:Core/Src/bootloader.c **** /**
 197:Core/Src/bootloader.c ****   * @brief  Process received CAN message
 198:Core/Src/bootloader.c ****   * @retval None
 199:Core/Src/bootloader.c ****   */
 200:Core/Src/bootloader.c **** void Bootloader_ProcessCANMessage(void)
 201:Core/Src/bootloader.c **** {
ARM GAS  C:\Users\Ali\AppData\Local\Temp\cc6fRbWg.s 			page 5


 202:Core/Src/bootloader.c ****     uint8_t command;
 203:Core/Src/bootloader.c ****     uint32_t address;
 204:Core/Src/bootloader.c ****     uint16_t length;
 205:Core/Src/bootloader.c ****     uint8_t result;
 206:Core/Src/bootloader.c ****     static uint32_t *last_heartbeat_ptr = NULL;
 207:Core/Src/bootloader.c **** 
 208:Core/Src/bootloader.c ****     /* Mark that a CAN command has been received - disable auto-jump timeout */
 209:Core/Src/bootloader.c ****     can_command_received = 1;
 210:Core/Src/bootloader.c ****     
 211:Core/Src/bootloader.c ****     /* Reset heartbeat timer to prevent heartbeat from being sent immediately after command */
 212:Core/Src/bootloader.c ****     last_heartbeat_time = HAL_GetTick();
 213:Core/Src/bootloader.c **** 
 214:Core/Src/bootloader.c ****     /* Get the command byte */
 215:Core/Src/bootloader.c ****     command = rx_data[0];
 216:Core/Src/bootloader.c **** 
 217:Core/Src/bootloader.c ****     switch (command)
 218:Core/Src/bootloader.c ****     {
 219:Core/Src/bootloader.c ****         case CMD_GET_STATUS:
 220:Core/Src/bootloader.c ****             /* Send status information */
 221:Core/Src/bootloader.c ****             tx_data[0] = RESP_DATA;
 222:Core/Src/bootloader.c ****             tx_data[1] = bootloader_status.state;
 223:Core/Src/bootloader.c ****             tx_data[2] = bootloader_status.last_error;
 224:Core/Src/bootloader.c ****             tx_data[3] = (bootloader_status.bytes_written >> 24) & 0xFF;
 225:Core/Src/bootloader.c ****             tx_data[4] = (bootloader_status.bytes_written >> 16) & 0xFF;
 226:Core/Src/bootloader.c ****             tx_data[5] = (bootloader_status.bytes_written >> 8) & 0xFF;
 227:Core/Src/bootloader.c ****             tx_data[6] = bootloader_status.bytes_written & 0xFF;
 228:Core/Src/bootloader.c ****             Bootloader_SendCANMessage(RESP_DATA, tx_data, 8);
 229:Core/Src/bootloader.c ****             break;
 230:Core/Src/bootloader.c ****             
 231:Core/Src/bootloader.c ****         case CMD_ERASE_FLASH:
 232:Core/Src/bootloader.c ****             /* Erase application flash area */
 233:Core/Src/bootloader.c ****             bootloader_status.state = BL_STATE_ERASING;
 234:Core/Src/bootloader.c ****             
 235:Core/Src/bootloader.c ****             /* Clear the application valid flag first */
 236:Core/Src/bootloader.c ****             Bootloader_ClearApplicationValidFlag();
 237:Core/Src/bootloader.c ****             
 238:Core/Src/bootloader.c ****             result = Bootloader_EraseApplicationFlash();
 239:Core/Src/bootloader.c ****             if (result == ERR_NONE)
 240:Core/Src/bootloader.c ****             {
 241:Core/Src/bootloader.c ****                 bootloader_status.bytes_written = 0;
 242:Core/Src/bootloader.c ****                 bootloader_status.current_address = APPLICATION_ADDRESS;
 243:Core/Src/bootloader.c ****                 Bootloader_SendACK();
 244:Core/Src/bootloader.c ****             }
 245:Core/Src/bootloader.c ****             else
 246:Core/Src/bootloader.c ****             {
 247:Core/Src/bootloader.c ****                 Bootloader_SendNACK(result);
 248:Core/Src/bootloader.c ****             }
 249:Core/Src/bootloader.c ****             bootloader_status.state = BL_STATE_IDLE;
 250:Core/Src/bootloader.c ****             break;
 251:Core/Src/bootloader.c ****             
 252:Core/Src/bootloader.c ****         case CMD_SET_ADDRESS:
 253:Core/Src/bootloader.c ****             /* Set the current write address */
 254:Core/Src/bootloader.c ****             address = (rx_data[1] << 24) | (rx_data[2] << 16) |
 255:Core/Src/bootloader.c ****                      (rx_data[3] << 8) | rx_data[4];
 256:Core/Src/bootloader.c **** 
 257:Core/Src/bootloader.c ****             /* Validate address is in application area (not in permanent storage) */
 258:Core/Src/bootloader.c ****             if (address >= APPLICATION_ADDRESS && address <= APPLICATION_END_ADDRESS)
ARM GAS  C:\Users\Ali\AppData\Local\Temp\cc6fRbWg.s 			page 6


 259:Core/Src/bootloader.c ****             {
 260:Core/Src/bootloader.c ****                 bootloader_status.current_address = address;
 261:Core/Src/bootloader.c ****                 buffer_index = 0;  /* Reset buffer */
 262:Core/Src/bootloader.c ****                 Bootloader_SendACK();
 263:Core/Src/bootloader.c ****             }
 264:Core/Src/bootloader.c ****             else
 265:Core/Src/bootloader.c ****             {
 266:Core/Src/bootloader.c ****                 Bootloader_SendNACK(ERR_INVALID_ADDRESS);
 267:Core/Src/bootloader.c ****             }
 268:Core/Src/bootloader.c ****             break;
 269:Core/Src/bootloader.c ****             
 270:Core/Src/bootloader.c ****         case CMD_WRITE_DATA:
 271:Core/Src/bootloader.c ****             /* Write data to flash at current address */
 272:Core/Src/bootloader.c ****             /* Expected format: [CMD] [0x04] [byte0] [byte1] [byte2] [byte3] ... */
 273:Core/Src/bootloader.c ****             /* Receives 4 bytes per message, buffers two messages (8 bytes) before writing */
 274:Core/Src/bootloader.c ****             bootloader_status.state = BL_STATE_WRITING;
 275:Core/Src/bootloader.c ****             length = rx_data[1];  /* Data length - should always be 4 */
 276:Core/Src/bootloader.c ****             
 277:Core/Src/bootloader.c ****             if (length != 4)
 278:Core/Src/bootloader.c ****             {
 279:Core/Src/bootloader.c ****                 Bootloader_SendNACK(ERR_INVALID_DATA_LENGTH);
 280:Core/Src/bootloader.c ****                 bootloader_status.state = BL_STATE_IDLE;
 281:Core/Src/bootloader.c ****                 buffer_index = 0;  /* Reset buffer on error */
 282:Core/Src/bootloader.c ****                 break;
 283:Core/Src/bootloader.c ****             }
 284:Core/Src/bootloader.c ****             
 285:Core/Src/bootloader.c ****             /* Copy 4 bytes to buffer */
 286:Core/Src/bootloader.c ****             for (uint8_t i = 0; i < 4; i++)
 287:Core/Src/bootloader.c ****             {
 288:Core/Src/bootloader.c ****                 flash_buffer[buffer_index++] = rx_data[2 + i];
 289:Core/Src/bootloader.c ****             }
 290:Core/Src/bootloader.c ****             
 291:Core/Src/bootloader.c ****             /* Write to flash when we have 8 bytes (two 4-byte chunks) */
 292:Core/Src/bootloader.c ****             if (buffer_index >= 8)
 293:Core/Src/bootloader.c ****             {
 294:Core/Src/bootloader.c ****                 result = Bootloader_WriteFlash(bootloader_status.current_address, 
 295:Core/Src/bootloader.c ****                                                flash_buffer, 8);
 296:Core/Src/bootloader.c ****                 if (result == ERR_NONE)
 297:Core/Src/bootloader.c ****                 {
 298:Core/Src/bootloader.c ****                     bootloader_status.current_address += 8;
 299:Core/Src/bootloader.c ****                     bootloader_status.bytes_written += 8;
 300:Core/Src/bootloader.c ****                     buffer_index = 0;
 301:Core/Src/bootloader.c ****                     Bootloader_SendACK();
 302:Core/Src/bootloader.c ****                 }
 303:Core/Src/bootloader.c ****                 else
 304:Core/Src/bootloader.c ****                 {
 305:Core/Src/bootloader.c ****                     buffer_index = 0;  /* Reset buffer on write failure */
 306:Core/Src/bootloader.c ****                     Bootloader_SendNACK(result);
 307:Core/Src/bootloader.c ****                 }
 308:Core/Src/bootloader.c ****             }
 309:Core/Src/bootloader.c ****             else
 310:Core/Src/bootloader.c ****             {
 311:Core/Src/bootloader.c ****                 Bootloader_SendACK();  /* Data buffered, waiting for more */
 312:Core/Src/bootloader.c ****             }
 313:Core/Src/bootloader.c ****             
 314:Core/Src/bootloader.c ****             bootloader_status.state = BL_STATE_IDLE;
 315:Core/Src/bootloader.c ****             break;
ARM GAS  C:\Users\Ali\AppData\Local\Temp\cc6fRbWg.s 			page 7


 316:Core/Src/bootloader.c ****             
 317:Core/Src/bootloader.c ****         case CMD_WRITE_FLASH:
 318:Core/Src/bootloader.c ****             /* Legacy write command - write address and data in one message */
 319:Core/Src/bootloader.c ****             address = (rx_data[1] << 24) | (rx_data[2] << 16) |
 320:Core/Src/bootloader.c ****                      (rx_data[3] << 8) | rx_data[4];
 321:Core/Src/bootloader.c ****             length = rx_data[5];
 322:Core/Src/bootloader.c **** 
 323:Core/Src/bootloader.c ****             /* Validate address is in application area (not in permanent storage) */
 324:Core/Src/bootloader.c ****             if (address >= APPLICATION_ADDRESS && address <= APPLICATION_END_ADDRESS)
 325:Core/Src/bootloader.c ****             {
 326:Core/Src/bootloader.c ****                 bootloader_status.state = BL_STATE_WRITING;
 327:Core/Src/bootloader.c ****                 result = Bootloader_WriteFlash(address, &rx_data[6], length);
 328:Core/Src/bootloader.c ****                 if (result == ERR_NONE)
 329:Core/Src/bootloader.c ****                 {
 330:Core/Src/bootloader.c ****                     Bootloader_SendACK();
 331:Core/Src/bootloader.c ****                 }
 332:Core/Src/bootloader.c ****                 else
 333:Core/Src/bootloader.c ****                 {
 334:Core/Src/bootloader.c ****                     Bootloader_SendNACK(result);
 335:Core/Src/bootloader.c ****                 }
 336:Core/Src/bootloader.c ****                 bootloader_status.state = BL_STATE_IDLE;
 337:Core/Src/bootloader.c ****             }
 338:Core/Src/bootloader.c ****             else
 339:Core/Src/bootloader.c ****             {
 340:Core/Src/bootloader.c ****                 Bootloader_SendNACK(ERR_INVALID_ADDRESS);
 341:Core/Src/bootloader.c ****             }
 342:Core/Src/bootloader.c ****             break;
 343:Core/Src/bootloader.c ****             
 344:Core/Src/bootloader.c ****         case CMD_READ_FLASH:
 345:Core/Src/bootloader.c ****             /* Read flash memory */
 346:Core/Src/bootloader.c ****             address = (rx_data[1] << 24) | (rx_data[2] << 16) |
 347:Core/Src/bootloader.c ****                      (rx_data[3] << 8) | rx_data[4];
 348:Core/Src/bootloader.c ****             length = rx_data[5];
 349:Core/Src/bootloader.c **** 
 350:Core/Src/bootloader.c ****             /* Allow reading from application area only (not permanent storage during flash ops) */
 351:Core/Src/bootloader.c ****             if (address >= APPLICATION_ADDRESS && address <= APPLICATION_END_ADDRESS && length <= 7
 352:Core/Src/bootloader.c ****             {
 353:Core/Src/bootloader.c ****                 bootloader_status.state = BL_STATE_READING;
 354:Core/Src/bootloader.c ****                 tx_data[0] = RESP_DATA;
 355:Core/Src/bootloader.c ****                 result = Bootloader_ReadFlash(address, &tx_data[1], length);
 356:Core/Src/bootloader.c ****                 if (result == ERR_NONE)
 357:Core/Src/bootloader.c ****                 {
 358:Core/Src/bootloader.c ****                     Bootloader_SendCANMessage(RESP_DATA, tx_data, length + 1);
 359:Core/Src/bootloader.c ****                 }
 360:Core/Src/bootloader.c ****                 else
 361:Core/Src/bootloader.c ****                 {
 362:Core/Src/bootloader.c ****                     Bootloader_SendNACK(result);
 363:Core/Src/bootloader.c ****                 }
 364:Core/Src/bootloader.c ****                 bootloader_status.state = BL_STATE_IDLE;
 365:Core/Src/bootloader.c ****             }
 366:Core/Src/bootloader.c ****             else
 367:Core/Src/bootloader.c ****             {
 368:Core/Src/bootloader.c ****                 Bootloader_SendNACK(ERR_INVALID_ADDRESS);
 369:Core/Src/bootloader.c ****             }
 370:Core/Src/bootloader.c ****             break;
 371:Core/Src/bootloader.c ****             
 372:Core/Src/bootloader.c ****         case CMD_JUMP_TO_APP:
ARM GAS  C:\Users\Ali\AppData\Local\Temp\cc6fRbWg.s 			page 8


 373:Core/Src/bootloader.c ****             /* Jump to application - set flag to jump from main loop, not from interrupt */
 374:Core/Src/bootloader.c ****             if (Bootloader_CheckValidApplication())
 375:Core/Src/bootloader.c ****             {
 376:Core/Src/bootloader.c ****                 /* Set the valid application flag in flash for future auto-boots */
 377:Core/Src/bootloader.c ****                 result = Bootloader_SetApplicationValidFlag();
 378:Core/Src/bootloader.c ****                 if (result != ERR_NONE)
 379:Core/Src/bootloader.c ****                 {
 380:Core/Src/bootloader.c ****                     /* Log error but still try to jump - flag write failure shouldn't prevent immed
 381:Core/Src/bootloader.c ****                     bootloader_status.last_error = result;
 382:Core/Src/bootloader.c ****                 }
 383:Core/Src/bootloader.c ****                 
 384:Core/Src/bootloader.c ****                 Bootloader_SendACK();
 385:Core/Src/bootloader.c ****                 jump_to_app_flag = 1;  /* Set flag to trigger jump from main loop */
 386:Core/Src/bootloader.c ****             }
 387:Core/Src/bootloader.c ****             else
 388:Core/Src/bootloader.c ****             {
 389:Core/Src/bootloader.c ****                 Bootloader_SendNACK(ERR_NO_VALID_APP);
 390:Core/Src/bootloader.c ****             }
 391:Core/Src/bootloader.c ****             break;
 392:Core/Src/bootloader.c ****             
 393:Core/Src/bootloader.c ****         default:
 394:Core/Src/bootloader.c ****             /* Unknown command */
 395:Core/Src/bootloader.c ****             Bootloader_SendNACK(ERR_INVALID_COMMAND);
 396:Core/Src/bootloader.c ****             break;
 397:Core/Src/bootloader.c ****     }
 398:Core/Src/bootloader.c **** }
 399:Core/Src/bootloader.c **** 
 400:Core/Src/bootloader.c **** /**
 401:Core/Src/bootloader.c ****   * @brief  Erase application flash area
 402:Core/Src/bootloader.c ****   * @retval Error code
 403:Core/Src/bootloader.c ****   */
 404:Core/Src/bootloader.c **** static uint8_t Bootloader_EraseApplicationFlash(void)
 405:Core/Src/bootloader.c **** {
 406:Core/Src/bootloader.c ****     FLASH_EraseInitTypeDef erase_init;
 407:Core/Src/bootloader.c ****     uint32_t page_error;
 408:Core/Src/bootloader.c ****     HAL_StatusTypeDef status;
 409:Core/Src/bootloader.c ****     
 410:Core/Src/bootloader.c ****     /* Calculate first and last pages for application */
 411:Core/Src/bootloader.c ****     uint32_t first_page = (APPLICATION_ADDRESS - 0x08000000) / FLASH_PAGE_SIZE;
 412:Core/Src/bootloader.c ****     uint32_t num_pages = APPLICATION_SIZE / FLASH_PAGE_SIZE;
 413:Core/Src/bootloader.c ****     
 414:Core/Src/bootloader.c ****     /* Unlock flash */
 415:Core/Src/bootloader.c ****     HAL_FLASH_Unlock();
 416:Core/Src/bootloader.c ****     
 417:Core/Src/bootloader.c ****     /* Clear all flash flags */
 418:Core/Src/bootloader.c ****     __HAL_FLASH_CLEAR_FLAG(FLASH_FLAG_ALL_ERRORS);
 419:Core/Src/bootloader.c ****     
 420:Core/Src/bootloader.c ****     /* Configure erase */
 421:Core/Src/bootloader.c ****     erase_init.TypeErase = FLASH_TYPEERASE_PAGES;
 422:Core/Src/bootloader.c ****     erase_init.Banks = FLASH_BANK_1;
 423:Core/Src/bootloader.c ****     erase_init.Page = first_page;
 424:Core/Src/bootloader.c ****     erase_init.NbPages = num_pages;
 425:Core/Src/bootloader.c ****     
 426:Core/Src/bootloader.c ****     /* Perform erase */
 427:Core/Src/bootloader.c ****     status = HAL_FLASHEx_Erase(&erase_init, &page_error);
 428:Core/Src/bootloader.c ****     
 429:Core/Src/bootloader.c ****     /* Lock flash */
ARM GAS  C:\Users\Ali\AppData\Local\Temp\cc6fRbWg.s 			page 9


 430:Core/Src/bootloader.c ****     HAL_FLASH_Lock();
 431:Core/Src/bootloader.c ****     
 432:Core/Src/bootloader.c ****     if (status != HAL_OK)
 433:Core/Src/bootloader.c ****     {
 434:Core/Src/bootloader.c ****         bootloader_status.last_error = ERR_FLASH_ERASE_FAILED;
 435:Core/Src/bootloader.c ****         return ERR_FLASH_ERASE_FAILED;
 436:Core/Src/bootloader.c ****     }
 437:Core/Src/bootloader.c ****     
 438:Core/Src/bootloader.c ****     bootloader_status.last_error = ERR_NONE;
 439:Core/Src/bootloader.c ****     return ERR_NONE;
 440:Core/Src/bootloader.c **** }
 441:Core/Src/bootloader.c **** 
 442:Core/Src/bootloader.c **** /**
 443:Core/Src/bootloader.c ****   * @brief  Write data to flash
 444:Core/Src/bootloader.c ****   * @param  address: Flash address to write
 445:Core/Src/bootloader.c ****   * @param  data: Pointer to data buffer
 446:Core/Src/bootloader.c ****   * @param  length: Number of bytes to write (must be multiple of 8)
 447:Core/Src/bootloader.c ****   * @retval Error code
 448:Core/Src/bootloader.c ****   */
 449:Core/Src/bootloader.c **** static uint8_t Bootloader_WriteFlash(uint32_t address, uint8_t *data, uint16_t length)
 450:Core/Src/bootloader.c **** {
 451:Core/Src/bootloader.c ****     HAL_StatusTypeDef status = HAL_OK;
 452:Core/Src/bootloader.c ****     uint32_t i;
 453:Core/Src/bootloader.c ****     uint64_t data64;
 454:Core/Src/bootloader.c **** 
 455:Core/Src/bootloader.c ****     /* Validate parameters - protect permanent storage area */
 456:Core/Src/bootloader.c ****     if (address < APPLICATION_ADDRESS || address > APPLICATION_END_ADDRESS)
 457:Core/Src/bootloader.c ****     {
 458:Core/Src/bootloader.c ****         bootloader_status.last_error = ERR_INVALID_ADDRESS;
 459:Core/Src/bootloader.c ****         return ERR_INVALID_ADDRESS;
 460:Core/Src/bootloader.c ****     }
 461:Core/Src/bootloader.c **** 
 462:Core/Src/bootloader.c ****     /* Ensure write doesn't overflow into permanent storage */
 463:Core/Src/bootloader.c ****     if ((address + length - 1) > APPLICATION_END_ADDRESS)
 464:Core/Src/bootloader.c ****     {
 465:Core/Src/bootloader.c ****         bootloader_status.last_error = ERR_INVALID_ADDRESS;
 466:Core/Src/bootloader.c ****         return ERR_INVALID_ADDRESS;
 467:Core/Src/bootloader.c ****     }
 468:Core/Src/bootloader.c ****     
 469:Core/Src/bootloader.c ****     /* Length must be multiple of 8 for double word programming */
 470:Core/Src/bootloader.c ****     if (length % 8 != 0)
 471:Core/Src/bootloader.c ****     {
 472:Core/Src/bootloader.c ****         bootloader_status.last_error = ERR_INVALID_DATA_LENGTH;
 473:Core/Src/bootloader.c ****         return ERR_INVALID_DATA_LENGTH;
 474:Core/Src/bootloader.c ****     }
 475:Core/Src/bootloader.c ****     
 476:Core/Src/bootloader.c ****     /* Unlock flash */
 477:Core/Src/bootloader.c ****     HAL_FLASH_Unlock();
 478:Core/Src/bootloader.c ****     
 479:Core/Src/bootloader.c ****     /* Clear all flash flags */
 480:Core/Src/bootloader.c ****     __HAL_FLASH_CLEAR_FLAG(FLASH_FLAG_ALL_ERRORS);
 481:Core/Src/bootloader.c ****     
 482:Core/Src/bootloader.c ****     /* Write data in 64-bit chunks */
 483:Core/Src/bootloader.c ****     for (i = 0; i < length; i += 8)
 484:Core/Src/bootloader.c ****     {
 485:Core/Src/bootloader.c ****         /* Combine 8 bytes into 64-bit value */
 486:Core/Src/bootloader.c ****         data64 = ((uint64_t)data[i + 0] << 0)  |
ARM GAS  C:\Users\Ali\AppData\Local\Temp\cc6fRbWg.s 			page 10


 487:Core/Src/bootloader.c ****                  ((uint64_t)data[i + 1] << 8)  |
 488:Core/Src/bootloader.c ****                  ((uint64_t)data[i + 2] << 16) |
 489:Core/Src/bootloader.c ****                  ((uint64_t)data[i + 3] << 24) |
 490:Core/Src/bootloader.c ****                  ((uint64_t)data[i + 4] << 32) |
 491:Core/Src/bootloader.c ****                  ((uint64_t)data[i + 5] << 40) |
 492:Core/Src/bootloader.c ****                  ((uint64_t)data[i + 6] << 48) |
 493:Core/Src/bootloader.c ****                  ((uint64_t)data[i + 7] << 56);
 494:Core/Src/bootloader.c ****         
 495:Core/Src/bootloader.c ****         status = HAL_FLASH_Program(FLASH_TYPEPROGRAM_DOUBLEWORD, address + i, data64);
 496:Core/Src/bootloader.c ****         
 497:Core/Src/bootloader.c ****         if (status != HAL_OK)
 498:Core/Src/bootloader.c ****         {
 499:Core/Src/bootloader.c ****             break;
 500:Core/Src/bootloader.c ****         }
 501:Core/Src/bootloader.c ****     }
 502:Core/Src/bootloader.c ****     
 503:Core/Src/bootloader.c ****     /* Lock flash */
 504:Core/Src/bootloader.c ****     HAL_FLASH_Lock();
 505:Core/Src/bootloader.c ****     
 506:Core/Src/bootloader.c ****     if (status != HAL_OK)
 507:Core/Src/bootloader.c ****     {
 508:Core/Src/bootloader.c ****         bootloader_status.last_error = ERR_FLASH_WRITE_FAILED;
 509:Core/Src/bootloader.c ****         return ERR_FLASH_WRITE_FAILED;
 510:Core/Src/bootloader.c ****     }
 511:Core/Src/bootloader.c ****     
 512:Core/Src/bootloader.c ****     bootloader_status.last_error = ERR_NONE;
 513:Core/Src/bootloader.c ****     return ERR_NONE;
 514:Core/Src/bootloader.c **** }
 515:Core/Src/bootloader.c **** 
 516:Core/Src/bootloader.c **** /**
 517:Core/Src/bootloader.c ****   * @brief  Read data from flash
 518:Core/Src/bootloader.c ****   * @param  address: Flash address to read
 519:Core/Src/bootloader.c ****   * @param  data: Pointer to data buffer
 520:Core/Src/bootloader.c ****   * @param  length: Number of bytes to read
 521:Core/Src/bootloader.c ****   * @retval Error code
 522:Core/Src/bootloader.c ****   */
 523:Core/Src/bootloader.c **** static uint8_t Bootloader_ReadFlash(uint32_t address, uint8_t *data, uint16_t length)
 524:Core/Src/bootloader.c **** {
  29              		.loc 1 524 1 view -0
  30              		.cfi_startproc
  31              		@ args = 0, pretend = 0, frame = 0
  32              		@ frame_needed = 0, uses_anonymous_args = 0
  33              		@ link register save eliminated.
 525:Core/Src/bootloader.c ****     uint16_t i;
  34              		.loc 1 525 5 view .LVU1
 526:Core/Src/bootloader.c ****     uint8_t *flash_ptr = (uint8_t *)address;
  35              		.loc 1 526 5 view .LVU2
 527:Core/Src/bootloader.c **** 
 528:Core/Src/bootloader.c ****     /* Validate address - protect permanent storage area */
 529:Core/Src/bootloader.c ****     if (address < APPLICATION_ADDRESS || address > APPLICATION_END_ADDRESS)
  36              		.loc 1 529 5 view .LVU3
  37              		.loc 1 529 39 is_stmt 0 view .LVU4
  38 0000 00F17843 		add	r3, r0, #-134217728
  39 0004 A3F50043 		sub	r3, r3, #32768
  40              		.loc 1 529 8 view .LVU5
  41 0008 B3F5503F 		cmp	r3, #212992
  42 000c 13D2     		bcs	.L5
ARM GAS  C:\Users\Ali\AppData\Local\Temp\cc6fRbWg.s 			page 11


 524:Core/Src/bootloader.c ****     uint16_t i;
  43              		.loc 1 524 1 view .LVU6
  44 000e 10B4     		push	{r4}
  45              		.cfi_def_cfa_offset 4
  46              		.cfi_offset 4, -4
 530:Core/Src/bootloader.c ****     {
 531:Core/Src/bootloader.c ****         return ERR_INVALID_ADDRESS;
 532:Core/Src/bootloader.c ****     }
 533:Core/Src/bootloader.c **** 
 534:Core/Src/bootloader.c ****     /* Ensure read doesn't overflow into permanent storage */
 535:Core/Src/bootloader.c ****     if ((address + length - 1) > APPLICATION_END_ADDRESS)
  47              		.loc 1 535 5 is_stmt 1 view .LVU7
  48              		.loc 1 535 18 is_stmt 0 view .LVU8
  49 0010 1318     		adds	r3, r2, r0
  50              		.loc 1 535 27 view .LVU9
  51 0012 013B     		subs	r3, r3, #1
  52              		.loc 1 535 8 view .LVU10
  53 0014 0A4C     		ldr	r4, .L11
  54 0016 A342     		cmp	r3, r4
  55 0018 0FD2     		bcs	.L6
 536:Core/Src/bootloader.c ****     {
 537:Core/Src/bootloader.c ****         return ERR_INVALID_ADDRESS;
 538:Core/Src/bootloader.c ****     }
 539:Core/Src/bootloader.c ****     
 540:Core/Src/bootloader.c ****     /* Read data */
 541:Core/Src/bootloader.c ****     for (i = 0; i < length; i++)
  56              		.loc 1 541 12 view .LVU11
  57 001a 0023     		movs	r3, #0
  58 001c 05E0     		b	.L3
  59              	.LVL1:
  60              	.L4:
 542:Core/Src/bootloader.c ****     {
 543:Core/Src/bootloader.c ****         data[i] = flash_ptr[i];
  61              		.loc 1 543 9 is_stmt 1 view .LVU12
  62              		.loc 1 543 28 is_stmt 0 view .LVU13
  63 001e 10F803C0 		ldrb	ip, [r0, r3]	@ zero_extendqisi2
  64              		.loc 1 543 17 view .LVU14
  65 0022 01F803C0 		strb	ip, [r1, r3]
 541:Core/Src/bootloader.c ****     {
  66              		.loc 1 541 30 is_stmt 1 discriminator 3 view .LVU15
  67 0026 0133     		adds	r3, r3, #1
  68              	.LVL2:
 541:Core/Src/bootloader.c ****     {
  69              		.loc 1 541 30 is_stmt 0 discriminator 3 view .LVU16
  70 0028 9BB2     		uxth	r3, r3
  71              	.LVL3:
  72              	.L3:
 541:Core/Src/bootloader.c ****     {
  73              		.loc 1 541 19 is_stmt 1 discriminator 1 view .LVU17
  74 002a 9342     		cmp	r3, r2
  75 002c F7D3     		bcc	.L4
 544:Core/Src/bootloader.c ****     }
 545:Core/Src/bootloader.c ****     
 546:Core/Src/bootloader.c ****     return ERR_NONE;
  76              		.loc 1 546 12 is_stmt 0 view .LVU18
  77 002e 0020     		movs	r0, #0
  78              	.LVL4:
ARM GAS  C:\Users\Ali\AppData\Local\Temp\cc6fRbWg.s 			page 12


  79              	.L2:
 547:Core/Src/bootloader.c **** }
  80              		.loc 1 547 1 view .LVU19
  81 0030 5DF8044B 		ldr	r4, [sp], #4
  82              		.cfi_restore 4
  83              		.cfi_def_cfa_offset 0
  84 0034 7047     		bx	lr
  85              	.LVL5:
  86              	.L5:
 531:Core/Src/bootloader.c ****     }
  87              		.loc 1 531 16 view .LVU20
  88 0036 0220     		movs	r0, #2
  89              	.LVL6:
  90              		.loc 1 547 1 view .LVU21
  91 0038 7047     		bx	lr
  92              	.LVL7:
  93              	.L6:
  94              		.cfi_def_cfa_offset 4
  95              		.cfi_offset 4, -4
 537:Core/Src/bootloader.c ****     }
  96              		.loc 1 537 16 view .LVU22
  97 003a 0220     		movs	r0, #2
  98              	.LVL8:
 537:Core/Src/bootloader.c ****     }
  99              		.loc 1 537 16 view .LVU23
 100 003c F8E7     		b	.L2
 101              	.L12:
 102 003e 00BF     		.align	2
 103              	.L11:
 104 0040 00C00308 		.word	134463488
 105              		.cfi_endproc
 106              	.LFE138:
 108              		.section	.text.Bootloader_ConfigureCANFilter,"ax",%progbits
 109              		.align	1
 110              		.syntax unified
 111              		.thumb
 112              		.thumb_func
 114              	Bootloader_ConfigureCANFilter:
 115              	.LFB133:
  87:Core/Src/bootloader.c ****     CAN_FilterTypeDef can_filter;
 116              		.loc 1 87 1 is_stmt 1 view -0
 117              		.cfi_startproc
 118              		@ args = 0, pretend = 0, frame = 40
 119              		@ frame_needed = 0, uses_anonymous_args = 0
 120 0000 00B5     		push	{lr}
 121              		.cfi_def_cfa_offset 4
 122              		.cfi_offset 14, -4
 123 0002 8BB0     		sub	sp, sp, #44
 124              		.cfi_def_cfa_offset 48
  88:Core/Src/bootloader.c ****     
 125              		.loc 1 88 5 view .LVU25
  90:Core/Src/bootloader.c ****     can_filter.FilterMode = CAN_FILTERMODE_IDMASK;
 126              		.loc 1 90 5 view .LVU26
  90:Core/Src/bootloader.c ****     can_filter.FilterMode = CAN_FILTERMODE_IDMASK;
 127              		.loc 1 90 27 is_stmt 0 view .LVU27
 128 0004 0023     		movs	r3, #0
 129 0006 0593     		str	r3, [sp, #20]
ARM GAS  C:\Users\Ali\AppData\Local\Temp\cc6fRbWg.s 			page 13


  91:Core/Src/bootloader.c ****     can_filter.FilterScale = CAN_FILTERSCALE_32BIT;
 130              		.loc 1 91 5 is_stmt 1 view .LVU28
  91:Core/Src/bootloader.c ****     can_filter.FilterScale = CAN_FILTERSCALE_32BIT;
 131              		.loc 1 91 27 is_stmt 0 view .LVU29
 132 0008 0693     		str	r3, [sp, #24]
  92:Core/Src/bootloader.c ****     /* For extended IDs: bits [28:13] in FilterIdHigh, bits [12:0] + IDE in FilterIdLow */
 133              		.loc 1 92 5 is_stmt 1 view .LVU30
  92:Core/Src/bootloader.c ****     /* For extended IDs: bits [28:13] in FilterIdHigh, bits [12:0] + IDE in FilterIdLow */
 134              		.loc 1 92 28 is_stmt 0 view .LVU31
 135 000a 0122     		movs	r2, #1
 136 000c 0792     		str	r2, [sp, #28]
  94:Core/Src/bootloader.c ****     can_filter.FilterIdLow = ((CAN_HOST_ID << 3) & 0xFFF8) | 0x0004;  /* IDE bit set */
 137              		.loc 1 94 5 is_stmt 1 view .LVU32
  94:Core/Src/bootloader.c ****     can_filter.FilterIdLow = ((CAN_HOST_ID << 3) & 0xFFF8) | 0x0004;  /* IDE bit set */
 138              		.loc 1 94 29 is_stmt 0 view .LVU33
 139 000e 4FF44041 		mov	r1, #49152
 140 0012 0091     		str	r1, [sp]
  95:Core/Src/bootloader.c ****     can_filter.FilterMaskIdHigh = 0xFFFF;  /* Match all upper bits */
 141              		.loc 1 95 5 is_stmt 1 view .LVU34
  95:Core/Src/bootloader.c ****     can_filter.FilterMaskIdHigh = 0xFFFF;  /* Match all upper bits */
 142              		.loc 1 95 28 is_stmt 0 view .LVU35
 143 0014 43F60C01 		movw	r1, #14348
 144 0018 0191     		str	r1, [sp, #4]
  96:Core/Src/bootloader.c ****     can_filter.FilterMaskIdLow = 0xFFFC;   /* Match lower bits + IDE */
 145              		.loc 1 96 5 is_stmt 1 view .LVU36
  96:Core/Src/bootloader.c ****     can_filter.FilterMaskIdLow = 0xFFFC;   /* Match lower bits + IDE */
 146              		.loc 1 96 33 is_stmt 0 view .LVU37
 147 001a 4FF6FF71 		movw	r1, #65535
 148 001e 0291     		str	r1, [sp, #8]
  97:Core/Src/bootloader.c ****     can_filter.FilterFIFOAssignment = CAN_RX_FIFO0;
 149              		.loc 1 97 5 is_stmt 1 view .LVU38
  97:Core/Src/bootloader.c ****     can_filter.FilterFIFOAssignment = CAN_RX_FIFO0;
 150              		.loc 1 97 32 is_stmt 0 view .LVU39
 151 0020 4FF6FC71 		movw	r1, #65532
 152 0024 0391     		str	r1, [sp, #12]
  98:Core/Src/bootloader.c ****     can_filter.FilterActivation = ENABLE;
 153              		.loc 1 98 5 is_stmt 1 view .LVU40
  98:Core/Src/bootloader.c ****     can_filter.FilterActivation = ENABLE;
 154              		.loc 1 98 37 is_stmt 0 view .LVU41
 155 0026 0493     		str	r3, [sp, #16]
  99:Core/Src/bootloader.c ****     can_filter.SlaveStartFilterBank = 14;
 156              		.loc 1 99 5 is_stmt 1 view .LVU42
  99:Core/Src/bootloader.c ****     can_filter.SlaveStartFilterBank = 14;
 157              		.loc 1 99 33 is_stmt 0 view .LVU43
 158 0028 0892     		str	r2, [sp, #32]
 100:Core/Src/bootloader.c ****     
 159              		.loc 1 100 5 is_stmt 1 view .LVU44
 100:Core/Src/bootloader.c ****     
 160              		.loc 1 100 37 is_stmt 0 view .LVU45
 161 002a 0E23     		movs	r3, #14
 162 002c 0993     		str	r3, [sp, #36]
 102:Core/Src/bootloader.c ****     {
 163              		.loc 1 102 5 is_stmt 1 view .LVU46
 102:Core/Src/bootloader.c ****     {
 164              		.loc 1 102 9 is_stmt 0 view .LVU47
 165 002e 6946     		mov	r1, sp
 166 0030 054B     		ldr	r3, .L17
ARM GAS  C:\Users\Ali\AppData\Local\Temp\cc6fRbWg.s 			page 14


 167 0032 1868     		ldr	r0, [r3]
 168 0034 FFF7FEFF 		bl	HAL_CAN_ConfigFilter
 169              	.LVL9:
 102:Core/Src/bootloader.c ****     {
 170              		.loc 1 102 8 discriminator 1 view .LVU48
 171 0038 10B9     		cbnz	r0, .L16
 172              	.L13:
 106:Core/Src/bootloader.c **** 
 173              		.loc 1 106 1 view .LVU49
 174 003a 0BB0     		add	sp, sp, #44
 175              		.cfi_remember_state
 176              		.cfi_def_cfa_offset 4
 177              		@ sp needed
 178 003c 5DF804FB 		ldr	pc, [sp], #4
 179              	.L16:
 180              		.cfi_restore_state
 104:Core/Src/bootloader.c ****     }
 181              		.loc 1 104 9 is_stmt 1 view .LVU50
 182 0040 FFF7FEFF 		bl	Error_Handler
 183              	.LVL10:
 106:Core/Src/bootloader.c **** 
 184              		.loc 1 106 1 is_stmt 0 view .LVU51
 185 0044 F9E7     		b	.L13
 186              	.L18:
 187 0046 00BF     		.align	2
 188              	.L17:
 189 0048 00000000 		.word	hcan_bootloader
 190              		.cfi_endproc
 191              	.LFE133:
 193              		.section	.text.Bootloader_WaitForCANTransmission,"ax",%progbits
 194              		.align	1
 195              		.syntax unified
 196              		.thumb
 197              		.thumb_func
 199              	Bootloader_WaitForCANTransmission:
 200              	.LFB141:
 548:Core/Src/bootloader.c **** 
 549:Core/Src/bootloader.c **** /**
 550:Core/Src/bootloader.c ****   * @brief  Check if valid application exists
 551:Core/Src/bootloader.c ****   * @retval 1 if valid application, 0 otherwise
 552:Core/Src/bootloader.c ****   */
 553:Core/Src/bootloader.c **** uint8_t Bootloader_CheckValidApplication(void)
 554:Core/Src/bootloader.c **** {
 555:Core/Src/bootloader.c ****     uint32_t stack_pointer = *(__IO uint32_t *)APPLICATION_ADDRESS;
 556:Core/Src/bootloader.c ****     uint32_t reset_handler = *(__IO uint32_t *)(APPLICATION_ADDRESS + 4);
 557:Core/Src/bootloader.c ****     
 558:Core/Src/bootloader.c ****     /* Check if stack pointer is in valid RAM range */
 559:Core/Src/bootloader.c ****     if ((stack_pointer & 0xFFF00000) != 0x20000000)
 560:Core/Src/bootloader.c ****     {
 561:Core/Src/bootloader.c ****         return 0;
 562:Core/Src/bootloader.c ****     }
 563:Core/Src/bootloader.c ****     
 564:Core/Src/bootloader.c ****     /* Check if reset handler is in valid flash range (odd address for Thumb) */
 565:Core/Src/bootloader.c ****     if ((reset_handler & 0xFF000000) != 0x08000000 || (reset_handler & 0x01) == 0)
 566:Core/Src/bootloader.c ****     {
 567:Core/Src/bootloader.c ****         return 0;
 568:Core/Src/bootloader.c ****     }
ARM GAS  C:\Users\Ali\AppData\Local\Temp\cc6fRbWg.s 			page 15


 569:Core/Src/bootloader.c ****     
 570:Core/Src/bootloader.c ****     return 1;
 571:Core/Src/bootloader.c **** }
 572:Core/Src/bootloader.c **** 
 573:Core/Src/bootloader.c **** /**
 574:Core/Src/bootloader.c ****   * @brief  De-initialize peripherals before jumping to application
 575:Core/Src/bootloader.c ****   * @retval None
 576:Core/Src/bootloader.c ****   */
 577:Core/Src/bootloader.c **** static void Bootloader_DeInit(void)
 578:Core/Src/bootloader.c **** {
 579:Core/Src/bootloader.c ****     /* Disable CAN */
 580:Core/Src/bootloader.c ****     HAL_CAN_DeactivateNotification(hcan_bootloader, CAN_IT_RX_FIFO0_MSG_PENDING);
 581:Core/Src/bootloader.c ****     HAL_CAN_Stop(hcan_bootloader);
 582:Core/Src/bootloader.c ****     HAL_CAN_MspDeInit(hcan_bootloader);
 583:Core/Src/bootloader.c ****     
 584:Core/Src/bootloader.c ****     /* Disable SysTick */
 585:Core/Src/bootloader.c ****     SysTick->CTRL = 0;
 586:Core/Src/bootloader.c ****     SysTick->LOAD = 0;
 587:Core/Src/bootloader.c ****     SysTick->VAL = 0;
 588:Core/Src/bootloader.c ****     
 589:Core/Src/bootloader.c ****     /* Disable all interrupts */
 590:Core/Src/bootloader.c ****     __disable_irq();
 591:Core/Src/bootloader.c ****     
 592:Core/Src/bootloader.c ****     /* Disable all peripheral clocks */
 593:Core/Src/bootloader.c ****     __HAL_RCC_GPIOA_CLK_DISABLE();
 594:Core/Src/bootloader.c ****     __HAL_RCC_CAN1_CLK_DISABLE();
 595:Core/Src/bootloader.c **** }
 596:Core/Src/bootloader.c **** 
 597:Core/Src/bootloader.c **** /**
 598:Core/Src/bootloader.c ****   * @brief  Wait for all CAN transmissions to complete
 599:Core/Src/bootloader.c ****   * @retval None
 600:Core/Src/bootloader.c ****   */
 601:Core/Src/bootloader.c **** static void Bootloader_WaitForCANTransmission(void)
 602:Core/Src/bootloader.c **** {
 201              		.loc 1 602 1 is_stmt 1 view -0
 202              		.cfi_startproc
 203              		@ args = 0, pretend = 0, frame = 0
 204              		@ frame_needed = 0, uses_anonymous_args = 0
 205 0000 10B5     		push	{r4, lr}
 206              		.cfi_def_cfa_offset 8
 207              		.cfi_offset 4, -8
 208              		.cfi_offset 14, -4
 603:Core/Src/bootloader.c ****     uint32_t timeout = 0;
 209              		.loc 1 603 5 view .LVU53
 210              	.LVL11:
 604:Core/Src/bootloader.c ****     
 605:Core/Src/bootloader.c ****     /* Wait until all 3 TX mailboxes are free (all transmissions complete) */
 606:Core/Src/bootloader.c ****     while (HAL_CAN_GetTxMailboxesFreeLevel(hcan_bootloader) != 3 && timeout < 1000000)
 211              		.loc 1 606 5 view .LVU54
 603:Core/Src/bootloader.c ****     uint32_t timeout = 0;
 212              		.loc 1 603 14 is_stmt 0 view .LVU55
 213 0002 0024     		movs	r4, #0
 214              	.LVL12:
 215              	.L20:
 216              		.loc 1 606 66 is_stmt 1 view .LVU56
 217              		.loc 1 606 12 is_stmt 0 view .LVU57
 218 0004 074B     		ldr	r3, .L24
ARM GAS  C:\Users\Ali\AppData\Local\Temp\cc6fRbWg.s 			page 16


 219 0006 1868     		ldr	r0, [r3]
 220 0008 FFF7FEFF 		bl	HAL_CAN_GetTxMailboxesFreeLevel
 221              	.LVL13:
 222              		.loc 1 606 66 discriminator 1 view .LVU58
 223 000c 0328     		cmp	r0, #3
 224 000e 04D0     		beq	.L21
 225 0010 054B     		ldr	r3, .L24+4
 226 0012 9C42     		cmp	r4, r3
 227 0014 01D8     		bhi	.L21
 607:Core/Src/bootloader.c ****     {
 608:Core/Src/bootloader.c ****         timeout++;
 228              		.loc 1 608 9 is_stmt 1 view .LVU59
 229              		.loc 1 608 16 is_stmt 0 view .LVU60
 230 0016 0134     		adds	r4, r4, #1
 231              	.LVL14:
 232              		.loc 1 608 16 view .LVU61
 233 0018 F4E7     		b	.L20
 234              	.LVL15:
 235              	.L21:
 609:Core/Src/bootloader.c ****     }
 610:Core/Src/bootloader.c ****     
 611:Core/Src/bootloader.c ****     /* Additional delay to ensure message physically leaves the CAN controller */
 612:Core/Src/bootloader.c ****     HAL_Delay(10);
 236              		.loc 1 612 5 is_stmt 1 view .LVU62
 237 001a 0A20     		movs	r0, #10
 238 001c FFF7FEFF 		bl	HAL_Delay
 239              	.LVL16:
 613:Core/Src/bootloader.c **** }
 240              		.loc 1 613 1 is_stmt 0 view .LVU63
 241 0020 10BD     		pop	{r4, pc}
 242              	.LVL17:
 243              	.L25:
 244              		.loc 1 613 1 view .LVU64
 245 0022 00BF     		.align	2
 246              	.L24:
 247 0024 00000000 		.word	hcan_bootloader
 248 0028 3F420F00 		.word	999999
 249              		.cfi_endproc
 250              	.LFE141:
 252              		.section	.text.Bootloader_EraseApplicationFlash,"ax",%progbits
 253              		.align	1
 254              		.syntax unified
 255              		.thumb
 256              		.thumb_func
 258              	Bootloader_EraseApplicationFlash:
 259              	.LFB136:
 405:Core/Src/bootloader.c ****     FLASH_EraseInitTypeDef erase_init;
 260              		.loc 1 405 1 is_stmt 1 view -0
 261              		.cfi_startproc
 262              		@ args = 0, pretend = 0, frame = 24
 263              		@ frame_needed = 0, uses_anonymous_args = 0
 264 0000 10B5     		push	{r4, lr}
 265              		.cfi_def_cfa_offset 8
 266              		.cfi_offset 4, -8
 267              		.cfi_offset 14, -4
 268 0002 86B0     		sub	sp, sp, #24
 269              		.cfi_def_cfa_offset 32
ARM GAS  C:\Users\Ali\AppData\Local\Temp\cc6fRbWg.s 			page 17


 406:Core/Src/bootloader.c ****     uint32_t page_error;
 270              		.loc 1 406 5 view .LVU66
 407:Core/Src/bootloader.c ****     HAL_StatusTypeDef status;
 271              		.loc 1 407 5 view .LVU67
 408:Core/Src/bootloader.c ****     
 272              		.loc 1 408 5 view .LVU68
 411:Core/Src/bootloader.c ****     uint32_t num_pages = APPLICATION_SIZE / FLASH_PAGE_SIZE;
 273              		.loc 1 411 5 view .LVU69
 274              	.LVL18:
 412:Core/Src/bootloader.c ****     
 275              		.loc 1 412 5 view .LVU70
 415:Core/Src/bootloader.c ****     
 276              		.loc 1 415 5 view .LVU71
 277 0004 FFF7FEFF 		bl	HAL_FLASH_Unlock
 278              	.LVL19:
 418:Core/Src/bootloader.c ****     
 279              		.loc 1 418 5 view .LVU72
 418:Core/Src/bootloader.c ****     
 280              		.loc 1 418 5 view .LVU73
 418:Core/Src/bootloader.c ****     
 281              		.loc 1 418 5 discriminator 1 view .LVU74
 282 0008 104B     		ldr	r3, .L31
 283 000a 9A69     		ldr	r2, [r3, #24]
 284 000c 42F04042 		orr	r2, r2, #-1073741824
 285 0010 9A61     		str	r2, [r3, #24]
 418:Core/Src/bootloader.c ****     
 286              		.loc 1 418 5 discriminator 3 view .LVU75
 418:Core/Src/bootloader.c ****     
 287              		.loc 1 418 5 discriminator 4 view .LVU76
 288 0012 4CF2FA32 		movw	r2, #50170
 289 0016 1A61     		str	r2, [r3, #16]
 418:Core/Src/bootloader.c ****     
 290              		.loc 1 418 5 discriminator 6 view .LVU77
 421:Core/Src/bootloader.c ****     erase_init.Banks = FLASH_BANK_1;
 291              		.loc 1 421 5 view .LVU78
 421:Core/Src/bootloader.c ****     erase_init.Banks = FLASH_BANK_1;
 292              		.loc 1 421 26 is_stmt 0 view .LVU79
 293 0018 0023     		movs	r3, #0
 294 001a 0293     		str	r3, [sp, #8]
 422:Core/Src/bootloader.c ****     erase_init.Page = first_page;
 295              		.loc 1 422 5 is_stmt 1 view .LVU80
 422:Core/Src/bootloader.c ****     erase_init.Page = first_page;
 296              		.loc 1 422 22 is_stmt 0 view .LVU81
 297 001c 0123     		movs	r3, #1
 298 001e 0393     		str	r3, [sp, #12]
 423:Core/Src/bootloader.c ****     erase_init.NbPages = num_pages;
 299              		.loc 1 423 5 is_stmt 1 view .LVU82
 423:Core/Src/bootloader.c ****     erase_init.NbPages = num_pages;
 300              		.loc 1 423 21 is_stmt 0 view .LVU83
 301 0020 1023     		movs	r3, #16
 302 0022 0493     		str	r3, [sp, #16]
 424:Core/Src/bootloader.c ****     
 303              		.loc 1 424 5 is_stmt 1 view .LVU84
 424:Core/Src/bootloader.c ****     
 304              		.loc 1 424 24 is_stmt 0 view .LVU85
 305 0024 6823     		movs	r3, #104
 306 0026 0593     		str	r3, [sp, #20]
ARM GAS  C:\Users\Ali\AppData\Local\Temp\cc6fRbWg.s 			page 18


 427:Core/Src/bootloader.c ****     
 307              		.loc 1 427 5 is_stmt 1 view .LVU86
 427:Core/Src/bootloader.c ****     
 308              		.loc 1 427 14 is_stmt 0 view .LVU87
 309 0028 01A9     		add	r1, sp, #4
 310 002a 02A8     		add	r0, sp, #8
 311 002c FFF7FEFF 		bl	HAL_FLASHEx_Erase
 312              	.LVL20:
 313 0030 0446     		mov	r4, r0
 314              	.LVL21:
 430:Core/Src/bootloader.c ****     
 315              		.loc 1 430 5 is_stmt 1 view .LVU88
 316 0032 FFF7FEFF 		bl	HAL_FLASH_Lock
 317              	.LVL22:
 432:Core/Src/bootloader.c ****     {
 318              		.loc 1 432 5 view .LVU89
 432:Core/Src/bootloader.c ****     {
 319              		.loc 1 432 8 is_stmt 0 view .LVU90
 320 0036 2CB9     		cbnz	r4, .L30
 438:Core/Src/bootloader.c ****     return ERR_NONE;
 321              		.loc 1 438 5 is_stmt 1 view .LVU91
 438:Core/Src/bootloader.c ****     return ERR_NONE;
 322              		.loc 1 438 34 is_stmt 0 view .LVU92
 323 0038 054B     		ldr	r3, .L31+4
 324 003a 0022     		movs	r2, #0
 325 003c 1A74     		strb	r2, [r3, #16]
 439:Core/Src/bootloader.c **** }
 326              		.loc 1 439 5 is_stmt 1 view .LVU93
 327              	.LVL23:
 328              	.L28:
 440:Core/Src/bootloader.c **** 
 329              		.loc 1 440 1 is_stmt 0 view .LVU94
 330 003e 2046     		mov	r0, r4
 331 0040 06B0     		add	sp, sp, #24
 332              		.cfi_remember_state
 333              		.cfi_def_cfa_offset 8
 334              		@ sp needed
 335 0042 10BD     		pop	{r4, pc}
 336              	.LVL24:
 337              	.L30:
 338              		.cfi_restore_state
 434:Core/Src/bootloader.c ****         return ERR_FLASH_ERASE_FAILED;
 339              		.loc 1 434 9 is_stmt 1 view .LVU95
 434:Core/Src/bootloader.c ****         return ERR_FLASH_ERASE_FAILED;
 340              		.loc 1 434 38 is_stmt 0 view .LVU96
 341 0044 0324     		movs	r4, #3
 342              	.LVL25:
 434:Core/Src/bootloader.c ****         return ERR_FLASH_ERASE_FAILED;
 343              		.loc 1 434 38 view .LVU97
 344 0046 024B     		ldr	r3, .L31+4
 345 0048 1C74     		strb	r4, [r3, #16]
 435:Core/Src/bootloader.c ****     }
 346              		.loc 1 435 9 is_stmt 1 view .LVU98
 435:Core/Src/bootloader.c ****     }
 347              		.loc 1 435 16 is_stmt 0 view .LVU99
 348 004a F8E7     		b	.L28
 349              	.L32:
ARM GAS  C:\Users\Ali\AppData\Local\Temp\cc6fRbWg.s 			page 19


 350              		.align	2
 351              	.L31:
 352 004c 00200240 		.word	1073881088
 353 0050 00000000 		.word	bootloader_status
 354              		.cfi_endproc
 355              	.LFE136:
 357              		.section	.text.Bootloader_WriteFlash,"ax",%progbits
 358              		.align	1
 359              		.syntax unified
 360              		.thumb
 361              		.thumb_func
 363              	Bootloader_WriteFlash:
 364              	.LVL26:
 365              	.LFB137:
 450:Core/Src/bootloader.c ****     HAL_StatusTypeDef status = HAL_OK;
 366              		.loc 1 450 1 is_stmt 1 view -0
 367              		.cfi_startproc
 368              		@ args = 0, pretend = 0, frame = 0
 369              		@ frame_needed = 0, uses_anonymous_args = 0
 450:Core/Src/bootloader.c ****     HAL_StatusTypeDef status = HAL_OK;
 370              		.loc 1 450 1 is_stmt 0 view .LVU101
 371 0000 2DE9F041 		push	{r4, r5, r6, r7, r8, lr}
 372              		.cfi_def_cfa_offset 24
 373              		.cfi_offset 4, -24
 374              		.cfi_offset 5, -20
 375              		.cfi_offset 6, -16
 376              		.cfi_offset 7, -12
 377              		.cfi_offset 8, -8
 378              		.cfi_offset 14, -4
 451:Core/Src/bootloader.c ****     uint32_t i;
 379              		.loc 1 451 5 is_stmt 1 view .LVU102
 380              	.LVL27:
 452:Core/Src/bootloader.c ****     uint64_t data64;
 381              		.loc 1 452 5 view .LVU103
 453:Core/Src/bootloader.c **** 
 382              		.loc 1 453 5 view .LVU104
 456:Core/Src/bootloader.c ****     {
 383              		.loc 1 456 5 view .LVU105
 456:Core/Src/bootloader.c ****     {
 384              		.loc 1 456 39 is_stmt 0 view .LVU106
 385 0004 00F17843 		add	r3, r0, #-134217728
 386 0008 A3F50043 		sub	r3, r3, #32768
 456:Core/Src/bootloader.c ****     {
 387              		.loc 1 456 8 view .LVU107
 388 000c B3F5503F 		cmp	r3, #212992
 389 0010 3DD2     		bcs	.L43
 390 0012 0646     		mov	r6, r0
 391 0014 0D46     		mov	r5, r1
 392 0016 1746     		mov	r7, r2
 463:Core/Src/bootloader.c ****     {
 393              		.loc 1 463 5 is_stmt 1 view .LVU108
 463:Core/Src/bootloader.c ****     {
 394              		.loc 1 463 18 is_stmt 0 view .LVU109
 395 0018 1318     		adds	r3, r2, r0
 463:Core/Src/bootloader.c ****     {
 396              		.loc 1 463 27 view .LVU110
 397 001a 013B     		subs	r3, r3, #1
ARM GAS  C:\Users\Ali\AppData\Local\Temp\cc6fRbWg.s 			page 20


 463:Core/Src/bootloader.c ****     {
 398              		.loc 1 463 8 view .LVU111
 399 001c 2D4A     		ldr	r2, .L47
 400              	.LVL28:
 463:Core/Src/bootloader.c ****     {
 401              		.loc 1 463 8 view .LVU112
 402 001e 9342     		cmp	r3, r2
 403 0020 3BD2     		bcs	.L44
 470:Core/Src/bootloader.c ****     {
 404              		.loc 1 470 5 is_stmt 1 view .LVU113
 470:Core/Src/bootloader.c ****     {
 405              		.loc 1 470 8 is_stmt 0 view .LVU114
 406 0022 17F0070F 		tst	r7, #7
 407 0026 3ED1     		bne	.L45
 477:Core/Src/bootloader.c ****     
 408              		.loc 1 477 5 is_stmt 1 view .LVU115
 409 0028 FFF7FEFF 		bl	HAL_FLASH_Unlock
 410              	.LVL29:
 480:Core/Src/bootloader.c ****     
 411              		.loc 1 480 5 view .LVU116
 480:Core/Src/bootloader.c ****     
 412              		.loc 1 480 5 view .LVU117
 480:Core/Src/bootloader.c ****     
 413              		.loc 1 480 5 discriminator 1 view .LVU118
 414 002c 2A4B     		ldr	r3, .L47+4
 415 002e 9A69     		ldr	r2, [r3, #24]
 416 0030 42F04042 		orr	r2, r2, #-1073741824
 417 0034 9A61     		str	r2, [r3, #24]
 480:Core/Src/bootloader.c ****     
 418              		.loc 1 480 5 discriminator 3 view .LVU119
 480:Core/Src/bootloader.c ****     
 419              		.loc 1 480 5 discriminator 4 view .LVU120
 420 0036 4CF2FA32 		movw	r2, #50170
 421 003a 1A61     		str	r2, [r3, #16]
 480:Core/Src/bootloader.c ****     
 422              		.loc 1 480 5 discriminator 6 view .LVU121
 483:Core/Src/bootloader.c ****     {
 423              		.loc 1 483 5 view .LVU122
 424              	.LVL30:
 483:Core/Src/bootloader.c ****     {
 425              		.loc 1 483 12 is_stmt 0 view .LVU123
 426 003c 0024     		movs	r4, #0
 451:Core/Src/bootloader.c ****     uint32_t i;
 427              		.loc 1 451 23 view .LVU124
 428 003e A046     		mov	r8, r4
 429              	.LVL31:
 430              	.L38:
 483:Core/Src/bootloader.c ****     {
 431              		.loc 1 483 19 is_stmt 1 discriminator 1 view .LVU125
 432 0040 A742     		cmp	r7, r4
 433 0042 36D9     		bls	.L39
 486:Core/Src/bootloader.c ****                  ((uint64_t)data[i + 1] << 8)  |
 434              		.loc 1 486 9 view .LVU126
 486:Core/Src/bootloader.c ****                  ((uint64_t)data[i + 1] << 8)  |
 435              		.loc 1 486 33 is_stmt 0 view .LVU127
 436 0044 2A5D     		ldrb	r2, [r5, r4]	@ zero_extendqisi2
 487:Core/Src/bootloader.c ****                  ((uint64_t)data[i + 2] << 16) |
ARM GAS  C:\Users\Ali\AppData\Local\Temp\cc6fRbWg.s 			page 21


 437              		.loc 1 487 33 view .LVU128
 438 0046 05EB040C 		add	ip, r5, r4
 439 004a 9CF80130 		ldrb	r3, [ip, #1]	@ zero_extendqisi2
 486:Core/Src/bootloader.c ****                  ((uint64_t)data[i + 1] << 8)  |
 440              		.loc 1 486 48 view .LVU129
 441 004e 42EA0322 		orr	r2, r2, r3, lsl #8
 488:Core/Src/bootloader.c ****                  ((uint64_t)data[i + 3] << 24) |
 442              		.loc 1 488 33 view .LVU130
 443 0052 9CF80230 		ldrb	r3, [ip, #2]	@ zero_extendqisi2
 487:Core/Src/bootloader.c ****                  ((uint64_t)data[i + 2] << 16) |
 444              		.loc 1 487 48 view .LVU131
 445 0056 42EA0342 		orr	r2, r2, r3, lsl #16
 489:Core/Src/bootloader.c ****                  ((uint64_t)data[i + 4] << 32) |
 446              		.loc 1 489 33 view .LVU132
 447 005a 9CF80300 		ldrb	r0, [ip, #3]	@ zero_extendqisi2
 489:Core/Src/bootloader.c ****                  ((uint64_t)data[i + 4] << 32) |
 448              		.loc 1 489 48 view .LVU133
 449 005e 9CF80430 		ldrb	r3, [ip, #4]	@ zero_extendqisi2
 491:Core/Src/bootloader.c ****                  ((uint64_t)data[i + 6] << 48) |
 450              		.loc 1 491 33 view .LVU134
 451 0062 9CF80510 		ldrb	r1, [ip, #5]	@ zero_extendqisi2
 490:Core/Src/bootloader.c ****                  ((uint64_t)data[i + 5] << 40) |
 452              		.loc 1 490 48 view .LVU135
 453 0066 43EA0123 		orr	r3, r3, r1, lsl #8
 492:Core/Src/bootloader.c ****                  ((uint64_t)data[i + 7] << 56);
 454              		.loc 1 492 33 view .LVU136
 455 006a 9CF80610 		ldrb	r1, [ip, #6]	@ zero_extendqisi2
 491:Core/Src/bootloader.c ****                  ((uint64_t)data[i + 6] << 48) |
 456              		.loc 1 491 48 view .LVU137
 457 006e 43EA0143 		orr	r3, r3, r1, lsl #16
 493:Core/Src/bootloader.c ****         
 458              		.loc 1 493 33 view .LVU138
 459 0072 9CF80710 		ldrb	r1, [ip, #7]	@ zero_extendqisi2
 460              	.LVL32:
 495:Core/Src/bootloader.c ****         
 461              		.loc 1 495 9 is_stmt 1 view .LVU139
 495:Core/Src/bootloader.c ****         
 462              		.loc 1 495 18 is_stmt 0 view .LVU140
 463 0076 42EA0062 		orr	r2, r2, r0, lsl #24
 464              	.LVL33:
 495:Core/Src/bootloader.c ****         
 465              		.loc 1 495 18 view .LVU141
 466 007a 43EA0163 		orr	r3, r3, r1, lsl #24
 467              	.LVL34:
 495:Core/Src/bootloader.c ****         
 468              		.loc 1 495 18 view .LVU142
 469 007e A119     		adds	r1, r4, r6
 470 0080 0020     		movs	r0, #0
 471 0082 FFF7FEFF 		bl	HAL_FLASH_Program
 472              	.LVL35:
 497:Core/Src/bootloader.c ****         {
 473              		.loc 1 497 9 is_stmt 1 view .LVU143
 497:Core/Src/bootloader.c ****         {
 474              		.loc 1 497 12 is_stmt 0 view .LVU144
 475 0086 8046     		mov	r8, r0
 476 0088 98B9     		cbnz	r0, .L39
 483:Core/Src/bootloader.c ****     {
ARM GAS  C:\Users\Ali\AppData\Local\Temp\cc6fRbWg.s 			page 22


 477              		.loc 1 483 31 is_stmt 1 discriminator 2 view .LVU145
 478 008a 0834     		adds	r4, r4, #8
 479              	.LVL36:
 483:Core/Src/bootloader.c ****     {
 480              		.loc 1 483 31 is_stmt 0 discriminator 2 view .LVU146
 481 008c D8E7     		b	.L38
 482              	.LVL37:
 483              	.L43:
 458:Core/Src/bootloader.c ****         return ERR_INVALID_ADDRESS;
 484              		.loc 1 458 9 is_stmt 1 view .LVU147
 458:Core/Src/bootloader.c ****         return ERR_INVALID_ADDRESS;
 485              		.loc 1 458 38 is_stmt 0 view .LVU148
 486 008e 4FF00208 		mov	r8, #2
 487 0092 124B     		ldr	r3, .L47+8
 488 0094 83F81080 		strb	r8, [r3, #16]
 459:Core/Src/bootloader.c ****     }
 489              		.loc 1 459 9 is_stmt 1 view .LVU149
 459:Core/Src/bootloader.c ****     }
 490              		.loc 1 459 16 is_stmt 0 view .LVU150
 491 0098 13E0     		b	.L35
 492              	.LVL38:
 493              	.L44:
 465:Core/Src/bootloader.c ****         return ERR_INVALID_ADDRESS;
 494              		.loc 1 465 9 is_stmt 1 view .LVU151
 465:Core/Src/bootloader.c ****         return ERR_INVALID_ADDRESS;
 495              		.loc 1 465 38 is_stmt 0 view .LVU152
 496 009a 4FF00208 		mov	r8, #2
 497 009e 0F4B     		ldr	r3, .L47+8
 498 00a0 83F81080 		strb	r8, [r3, #16]
 466:Core/Src/bootloader.c ****     }
 499              		.loc 1 466 9 is_stmt 1 view .LVU153
 466:Core/Src/bootloader.c ****     }
 500              		.loc 1 466 16 is_stmt 0 view .LVU154
 501 00a4 0DE0     		b	.L35
 502              	.L45:
 472:Core/Src/bootloader.c ****         return ERR_INVALID_DATA_LENGTH;
 503              		.loc 1 472 9 is_stmt 1 view .LVU155
 472:Core/Src/bootloader.c ****         return ERR_INVALID_DATA_LENGTH;
 504              		.loc 1 472 38 is_stmt 0 view .LVU156
 505 00a6 4FF00508 		mov	r8, #5
 506 00aa 0C4B     		ldr	r3, .L47+8
 507 00ac 83F81080 		strb	r8, [r3, #16]
 473:Core/Src/bootloader.c ****     }
 508              		.loc 1 473 9 is_stmt 1 view .LVU157
 473:Core/Src/bootloader.c ****     }
 509              		.loc 1 473 16 is_stmt 0 view .LVU158
 510 00b0 07E0     		b	.L35
 511              	.LVL39:
 512              	.L39:
 504:Core/Src/bootloader.c ****     
 513              		.loc 1 504 5 is_stmt 1 view .LVU159
 514 00b2 FFF7FEFF 		bl	HAL_FLASH_Lock
 515              	.LVL40:
 506:Core/Src/bootloader.c ****     {
 516              		.loc 1 506 5 view .LVU160
 506:Core/Src/bootloader.c ****     {
 517              		.loc 1 506 8 is_stmt 0 view .LVU161
ARM GAS  C:\Users\Ali\AppData\Local\Temp\cc6fRbWg.s 			page 23


 518 00b6 B8F1000F 		cmp	r8, #0
 519 00ba 05D1     		bne	.L46
 512:Core/Src/bootloader.c ****     return ERR_NONE;
 520              		.loc 1 512 5 is_stmt 1 view .LVU162
 512:Core/Src/bootloader.c ****     return ERR_NONE;
 521              		.loc 1 512 34 is_stmt 0 view .LVU163
 522 00bc 074B     		ldr	r3, .L47+8
 523 00be 0022     		movs	r2, #0
 524 00c0 1A74     		strb	r2, [r3, #16]
 513:Core/Src/bootloader.c **** }
 525              		.loc 1 513 5 is_stmt 1 view .LVU164
 526              	.LVL41:
 527              	.L35:
 514:Core/Src/bootloader.c **** 
 528              		.loc 1 514 1 is_stmt 0 view .LVU165
 529 00c2 4046     		mov	r0, r8
 530 00c4 BDE8F081 		pop	{r4, r5, r6, r7, r8, pc}
 531              	.LVL42:
 532              	.L46:
 508:Core/Src/bootloader.c ****         return ERR_FLASH_WRITE_FAILED;
 533              		.loc 1 508 9 is_stmt 1 view .LVU166
 508:Core/Src/bootloader.c ****         return ERR_FLASH_WRITE_FAILED;
 534              		.loc 1 508 38 is_stmt 0 view .LVU167
 535 00c8 4FF00408 		mov	r8, #4
 536              	.LVL43:
 508:Core/Src/bootloader.c ****         return ERR_FLASH_WRITE_FAILED;
 537              		.loc 1 508 38 view .LVU168
 538 00cc 034B     		ldr	r3, .L47+8
 539 00ce 83F81080 		strb	r8, [r3, #16]
 509:Core/Src/bootloader.c ****     }
 540              		.loc 1 509 9 is_stmt 1 view .LVU169
 509:Core/Src/bootloader.c ****     }
 541              		.loc 1 509 16 is_stmt 0 view .LVU170
 542 00d2 F6E7     		b	.L35
 543              	.L48:
 544              		.align	2
 545              	.L47:
 546 00d4 00C00308 		.word	134463488
 547 00d8 00200240 		.word	1073881088
 548 00dc 00000000 		.word	bootloader_status
 549              		.cfi_endproc
 550              	.LFE137:
 552              		.section	.text.Bootloader_DeInit,"ax",%progbits
 553              		.align	1
 554              		.syntax unified
 555              		.thumb
 556              		.thumb_func
 558              	Bootloader_DeInit:
 559              	.LFB140:
 578:Core/Src/bootloader.c ****     /* Disable CAN */
 560              		.loc 1 578 1 is_stmt 1 view -0
 561              		.cfi_startproc
 562              		@ args = 0, pretend = 0, frame = 0
 563              		@ frame_needed = 0, uses_anonymous_args = 0
 564 0000 10B5     		push	{r4, lr}
 565              		.cfi_def_cfa_offset 8
 566              		.cfi_offset 4, -8
ARM GAS  C:\Users\Ali\AppData\Local\Temp\cc6fRbWg.s 			page 24


 567              		.cfi_offset 14, -4
 580:Core/Src/bootloader.c ****     HAL_CAN_Stop(hcan_bootloader);
 568              		.loc 1 580 5 view .LVU172
 569 0002 0F4C     		ldr	r4, .L51
 570 0004 0221     		movs	r1, #2
 571 0006 2068     		ldr	r0, [r4]
 572 0008 FFF7FEFF 		bl	HAL_CAN_DeactivateNotification
 573              	.LVL44:
 581:Core/Src/bootloader.c ****     HAL_CAN_MspDeInit(hcan_bootloader);
 574              		.loc 1 581 5 view .LVU173
 575 000c 2068     		ldr	r0, [r4]
 576 000e FFF7FEFF 		bl	HAL_CAN_Stop
 577              	.LVL45:
 582:Core/Src/bootloader.c ****     
 578              		.loc 1 582 5 view .LVU174
 579 0012 2068     		ldr	r0, [r4]
 580 0014 FFF7FEFF 		bl	HAL_CAN_MspDeInit
 581              	.LVL46:
 585:Core/Src/bootloader.c ****     SysTick->LOAD = 0;
 582              		.loc 1 585 5 view .LVU175
 585:Core/Src/bootloader.c ****     SysTick->LOAD = 0;
 583              		.loc 1 585 19 is_stmt 0 view .LVU176
 584 0018 4FF0E023 		mov	r3, #-536813568
 585 001c 0022     		movs	r2, #0
 586 001e 1A61     		str	r2, [r3, #16]
 586:Core/Src/bootloader.c ****     SysTick->VAL = 0;
 587              		.loc 1 586 5 is_stmt 1 view .LVU177
 586:Core/Src/bootloader.c ****     SysTick->VAL = 0;
 588              		.loc 1 586 19 is_stmt 0 view .LVU178
 589 0020 5A61     		str	r2, [r3, #20]
 587:Core/Src/bootloader.c ****     
 590              		.loc 1 587 5 is_stmt 1 view .LVU179
 587:Core/Src/bootloader.c ****     
 591              		.loc 1 587 18 is_stmt 0 view .LVU180
 592 0022 9A61     		str	r2, [r3, #24]
 590:Core/Src/bootloader.c ****     
 593              		.loc 1 590 5 is_stmt 1 view .LVU181
 594              	.LBB6:
 595              	.LBI6:
 596              		.file 2 "Drivers/CMSIS/Include/cmsis_gcc.h"
   1:Drivers/CMSIS/Include/cmsis_gcc.h **** /**************************************************************************//**
   2:Drivers/CMSIS/Include/cmsis_gcc.h ****  * @file     cmsis_gcc.h
   3:Drivers/CMSIS/Include/cmsis_gcc.h ****  * @brief    CMSIS compiler GCC header file
   4:Drivers/CMSIS/Include/cmsis_gcc.h ****  * @version  V5.2.0
   5:Drivers/CMSIS/Include/cmsis_gcc.h ****  * @date     08. May 2019
   6:Drivers/CMSIS/Include/cmsis_gcc.h ****  ******************************************************************************/
   7:Drivers/CMSIS/Include/cmsis_gcc.h **** /*
   8:Drivers/CMSIS/Include/cmsis_gcc.h ****  * Copyright (c) 2009-2019 Arm Limited. All rights reserved.
   9:Drivers/CMSIS/Include/cmsis_gcc.h ****  *
  10:Drivers/CMSIS/Include/cmsis_gcc.h ****  * SPDX-License-Identifier: Apache-2.0
  11:Drivers/CMSIS/Include/cmsis_gcc.h ****  *
  12:Drivers/CMSIS/Include/cmsis_gcc.h ****  * Licensed under the Apache License, Version 2.0 (the License); you may
  13:Drivers/CMSIS/Include/cmsis_gcc.h ****  * not use this file except in compliance with the License.
  14:Drivers/CMSIS/Include/cmsis_gcc.h ****  * You may obtain a copy of the License at
  15:Drivers/CMSIS/Include/cmsis_gcc.h ****  *
  16:Drivers/CMSIS/Include/cmsis_gcc.h ****  * www.apache.org/licenses/LICENSE-2.0
  17:Drivers/CMSIS/Include/cmsis_gcc.h ****  *
ARM GAS  C:\Users\Ali\AppData\Local\Temp\cc6fRbWg.s 			page 25


  18:Drivers/CMSIS/Include/cmsis_gcc.h ****  * Unless required by applicable law or agreed to in writing, software
  19:Drivers/CMSIS/Include/cmsis_gcc.h ****  * distributed under the License is distributed on an AS IS BASIS, WITHOUT
  20:Drivers/CMSIS/Include/cmsis_gcc.h ****  * WARRANTIES OR CONDITIONS OF ANY KIND, either express or implied.
  21:Drivers/CMSIS/Include/cmsis_gcc.h ****  * See the License for the specific language governing permissions and
  22:Drivers/CMSIS/Include/cmsis_gcc.h ****  * limitations under the License.
  23:Drivers/CMSIS/Include/cmsis_gcc.h ****  */
  24:Drivers/CMSIS/Include/cmsis_gcc.h **** 
  25:Drivers/CMSIS/Include/cmsis_gcc.h **** #ifndef __CMSIS_GCC_H
  26:Drivers/CMSIS/Include/cmsis_gcc.h **** #define __CMSIS_GCC_H
  27:Drivers/CMSIS/Include/cmsis_gcc.h **** 
  28:Drivers/CMSIS/Include/cmsis_gcc.h **** /* ignore some GCC warnings */
  29:Drivers/CMSIS/Include/cmsis_gcc.h **** #pragma GCC diagnostic push
  30:Drivers/CMSIS/Include/cmsis_gcc.h **** #pragma GCC diagnostic ignored "-Wsign-conversion"
  31:Drivers/CMSIS/Include/cmsis_gcc.h **** #pragma GCC diagnostic ignored "-Wconversion"
  32:Drivers/CMSIS/Include/cmsis_gcc.h **** #pragma GCC diagnostic ignored "-Wunused-parameter"
  33:Drivers/CMSIS/Include/cmsis_gcc.h **** 
  34:Drivers/CMSIS/Include/cmsis_gcc.h **** /* Fallback for __has_builtin */
  35:Drivers/CMSIS/Include/cmsis_gcc.h **** #ifndef __has_builtin
  36:Drivers/CMSIS/Include/cmsis_gcc.h ****   #define __has_builtin(x) (0)
  37:Drivers/CMSIS/Include/cmsis_gcc.h **** #endif
  38:Drivers/CMSIS/Include/cmsis_gcc.h **** 
  39:Drivers/CMSIS/Include/cmsis_gcc.h **** /* CMSIS compiler specific defines */
  40:Drivers/CMSIS/Include/cmsis_gcc.h **** #ifndef   __ASM
  41:Drivers/CMSIS/Include/cmsis_gcc.h ****   #define __ASM                                  __asm
  42:Drivers/CMSIS/Include/cmsis_gcc.h **** #endif
  43:Drivers/CMSIS/Include/cmsis_gcc.h **** #ifndef   __INLINE
  44:Drivers/CMSIS/Include/cmsis_gcc.h ****   #define __INLINE                               inline
  45:Drivers/CMSIS/Include/cmsis_gcc.h **** #endif
  46:Drivers/CMSIS/Include/cmsis_gcc.h **** #ifndef   __STATIC_INLINE
  47:Drivers/CMSIS/Include/cmsis_gcc.h ****   #define __STATIC_INLINE                        static inline
  48:Drivers/CMSIS/Include/cmsis_gcc.h **** #endif
  49:Drivers/CMSIS/Include/cmsis_gcc.h **** #ifndef   __STATIC_FORCEINLINE                 
  50:Drivers/CMSIS/Include/cmsis_gcc.h ****   #define __STATIC_FORCEINLINE                   __attribute__((always_inline)) static inline
  51:Drivers/CMSIS/Include/cmsis_gcc.h **** #endif                                           
  52:Drivers/CMSIS/Include/cmsis_gcc.h **** #ifndef   __NO_RETURN
  53:Drivers/CMSIS/Include/cmsis_gcc.h ****   #define __NO_RETURN                            __attribute__((__noreturn__))
  54:Drivers/CMSIS/Include/cmsis_gcc.h **** #endif
  55:Drivers/CMSIS/Include/cmsis_gcc.h **** #ifndef   __USED
  56:Drivers/CMSIS/Include/cmsis_gcc.h ****   #define __USED                                 __attribute__((used))
  57:Drivers/CMSIS/Include/cmsis_gcc.h **** #endif
  58:Drivers/CMSIS/Include/cmsis_gcc.h **** #ifndef   __WEAK
  59:Drivers/CMSIS/Include/cmsis_gcc.h ****   #define __WEAK                                 __attribute__((weak))
  60:Drivers/CMSIS/Include/cmsis_gcc.h **** #endif
  61:Drivers/CMSIS/Include/cmsis_gcc.h **** #ifndef   __PACKED
  62:Drivers/CMSIS/Include/cmsis_gcc.h ****   #define __PACKED                               __attribute__((packed, aligned(1)))
  63:Drivers/CMSIS/Include/cmsis_gcc.h **** #endif
  64:Drivers/CMSIS/Include/cmsis_gcc.h **** #ifndef   __PACKED_STRUCT
  65:Drivers/CMSIS/Include/cmsis_gcc.h ****   #define __PACKED_STRUCT                        struct __attribute__((packed, aligned(1)))
  66:Drivers/CMSIS/Include/cmsis_gcc.h **** #endif
  67:Drivers/CMSIS/Include/cmsis_gcc.h **** #ifndef   __PACKED_UNION
  68:Drivers/CMSIS/Include/cmsis_gcc.h ****   #define __PACKED_UNION                         union __attribute__((packed, aligned(1)))
  69:Drivers/CMSIS/Include/cmsis_gcc.h **** #endif
  70:Drivers/CMSIS/Include/cmsis_gcc.h **** #ifndef   __UNALIGNED_UINT32        /* deprecated */
  71:Drivers/CMSIS/Include/cmsis_gcc.h ****   #pragma GCC diagnostic push
  72:Drivers/CMSIS/Include/cmsis_gcc.h ****   #pragma GCC diagnostic ignored "-Wpacked"
  73:Drivers/CMSIS/Include/cmsis_gcc.h ****   #pragma GCC diagnostic ignored "-Wattributes"
  74:Drivers/CMSIS/Include/cmsis_gcc.h ****   struct __attribute__((packed)) T_UINT32 { uint32_t v; };
ARM GAS  C:\Users\Ali\AppData\Local\Temp\cc6fRbWg.s 			page 26


  75:Drivers/CMSIS/Include/cmsis_gcc.h ****   #pragma GCC diagnostic pop
  76:Drivers/CMSIS/Include/cmsis_gcc.h ****   #define __UNALIGNED_UINT32(x)                  (((struct T_UINT32 *)(x))->v)
  77:Drivers/CMSIS/Include/cmsis_gcc.h **** #endif
  78:Drivers/CMSIS/Include/cmsis_gcc.h **** #ifndef   __UNALIGNED_UINT16_WRITE
  79:Drivers/CMSIS/Include/cmsis_gcc.h ****   #pragma GCC diagnostic push
  80:Drivers/CMSIS/Include/cmsis_gcc.h ****   #pragma GCC diagnostic ignored "-Wpacked"
  81:Drivers/CMSIS/Include/cmsis_gcc.h ****   #pragma GCC diagnostic ignored "-Wattributes"
  82:Drivers/CMSIS/Include/cmsis_gcc.h ****   __PACKED_STRUCT T_UINT16_WRITE { uint16_t v; };
  83:Drivers/CMSIS/Include/cmsis_gcc.h ****   #pragma GCC diagnostic pop
  84:Drivers/CMSIS/Include/cmsis_gcc.h ****   #define __UNALIGNED_UINT16_WRITE(addr, val)    (void)((((struct T_UINT16_WRITE *)(void *)(addr))-
  85:Drivers/CMSIS/Include/cmsis_gcc.h **** #endif
  86:Drivers/CMSIS/Include/cmsis_gcc.h **** #ifndef   __UNALIGNED_UINT16_READ
  87:Drivers/CMSIS/Include/cmsis_gcc.h ****   #pragma GCC diagnostic push
  88:Drivers/CMSIS/Include/cmsis_gcc.h ****   #pragma GCC diagnostic ignored "-Wpacked"
  89:Drivers/CMSIS/Include/cmsis_gcc.h ****   #pragma GCC diagnostic ignored "-Wattributes"
  90:Drivers/CMSIS/Include/cmsis_gcc.h ****   __PACKED_STRUCT T_UINT16_READ { uint16_t v; };
  91:Drivers/CMSIS/Include/cmsis_gcc.h ****   #pragma GCC diagnostic pop
  92:Drivers/CMSIS/Include/cmsis_gcc.h ****   #define __UNALIGNED_UINT16_READ(addr)          (((const struct T_UINT16_READ *)(const void *)(add
  93:Drivers/CMSIS/Include/cmsis_gcc.h **** #endif
  94:Drivers/CMSIS/Include/cmsis_gcc.h **** #ifndef   __UNALIGNED_UINT32_WRITE
  95:Drivers/CMSIS/Include/cmsis_gcc.h ****   #pragma GCC diagnostic push
  96:Drivers/CMSIS/Include/cmsis_gcc.h ****   #pragma GCC diagnostic ignored "-Wpacked"
  97:Drivers/CMSIS/Include/cmsis_gcc.h ****   #pragma GCC diagnostic ignored "-Wattributes"
  98:Drivers/CMSIS/Include/cmsis_gcc.h ****   __PACKED_STRUCT T_UINT32_WRITE { uint32_t v; };
  99:Drivers/CMSIS/Include/cmsis_gcc.h ****   #pragma GCC diagnostic pop
 100:Drivers/CMSIS/Include/cmsis_gcc.h ****   #define __UNALIGNED_UINT32_WRITE(addr, val)    (void)((((struct T_UINT32_WRITE *)(void *)(addr))-
 101:Drivers/CMSIS/Include/cmsis_gcc.h **** #endif
 102:Drivers/CMSIS/Include/cmsis_gcc.h **** #ifndef   __UNALIGNED_UINT32_READ
 103:Drivers/CMSIS/Include/cmsis_gcc.h ****   #pragma GCC diagnostic push
 104:Drivers/CMSIS/Include/cmsis_gcc.h ****   #pragma GCC diagnostic ignored "-Wpacked"
 105:Drivers/CMSIS/Include/cmsis_gcc.h ****   #pragma GCC diagnostic ignored "-Wattributes"
 106:Drivers/CMSIS/Include/cmsis_gcc.h ****   __PACKED_STRUCT T_UINT32_READ { uint32_t v; };
 107:Drivers/CMSIS/Include/cmsis_gcc.h ****   #pragma GCC diagnostic pop
 108:Drivers/CMSIS/Include/cmsis_gcc.h ****   #define __UNALIGNED_UINT32_READ(addr)          (((const struct T_UINT32_READ *)(const void *)(add
 109:Drivers/CMSIS/Include/cmsis_gcc.h **** #endif
 110:Drivers/CMSIS/Include/cmsis_gcc.h **** #ifndef   __ALIGNED
 111:Drivers/CMSIS/Include/cmsis_gcc.h ****   #define __ALIGNED(x)                           __attribute__((aligned(x)))
 112:Drivers/CMSIS/Include/cmsis_gcc.h **** #endif
 113:Drivers/CMSIS/Include/cmsis_gcc.h **** #ifndef   __RESTRICT
 114:Drivers/CMSIS/Include/cmsis_gcc.h ****   #define __RESTRICT                             __restrict
 115:Drivers/CMSIS/Include/cmsis_gcc.h **** #endif
 116:Drivers/CMSIS/Include/cmsis_gcc.h **** #ifndef   __COMPILER_BARRIER
 117:Drivers/CMSIS/Include/cmsis_gcc.h ****   #define __COMPILER_BARRIER()                   __ASM volatile("":::"memory")
 118:Drivers/CMSIS/Include/cmsis_gcc.h **** #endif
 119:Drivers/CMSIS/Include/cmsis_gcc.h **** 
 120:Drivers/CMSIS/Include/cmsis_gcc.h **** /* #########################  Startup and Lowlevel Init  ######################## */
 121:Drivers/CMSIS/Include/cmsis_gcc.h **** 
 122:Drivers/CMSIS/Include/cmsis_gcc.h **** #ifndef __PROGRAM_START
 123:Drivers/CMSIS/Include/cmsis_gcc.h **** 
 124:Drivers/CMSIS/Include/cmsis_gcc.h **** /**
 125:Drivers/CMSIS/Include/cmsis_gcc.h ****   \brief   Initializes data and bss sections
 126:Drivers/CMSIS/Include/cmsis_gcc.h ****   \details This default implementations initialized all data and additional bss
 127:Drivers/CMSIS/Include/cmsis_gcc.h ****            sections relying on .copy.table and .zero.table specified properly
 128:Drivers/CMSIS/Include/cmsis_gcc.h ****            in the used linker script.
 129:Drivers/CMSIS/Include/cmsis_gcc.h ****   
 130:Drivers/CMSIS/Include/cmsis_gcc.h ****  */
 131:Drivers/CMSIS/Include/cmsis_gcc.h **** __STATIC_FORCEINLINE __NO_RETURN void __cmsis_start(void)
ARM GAS  C:\Users\Ali\AppData\Local\Temp\cc6fRbWg.s 			page 27


 132:Drivers/CMSIS/Include/cmsis_gcc.h **** {
 133:Drivers/CMSIS/Include/cmsis_gcc.h ****   extern void _start(void) __NO_RETURN;
 134:Drivers/CMSIS/Include/cmsis_gcc.h ****   
 135:Drivers/CMSIS/Include/cmsis_gcc.h ****   typedef struct {
 136:Drivers/CMSIS/Include/cmsis_gcc.h ****     uint32_t const* src;
 137:Drivers/CMSIS/Include/cmsis_gcc.h ****     uint32_t* dest;
 138:Drivers/CMSIS/Include/cmsis_gcc.h ****     uint32_t  wlen;
 139:Drivers/CMSIS/Include/cmsis_gcc.h ****   } __copy_table_t;
 140:Drivers/CMSIS/Include/cmsis_gcc.h ****   
 141:Drivers/CMSIS/Include/cmsis_gcc.h ****   typedef struct {
 142:Drivers/CMSIS/Include/cmsis_gcc.h ****     uint32_t* dest;
 143:Drivers/CMSIS/Include/cmsis_gcc.h ****     uint32_t  wlen;
 144:Drivers/CMSIS/Include/cmsis_gcc.h ****   } __zero_table_t;
 145:Drivers/CMSIS/Include/cmsis_gcc.h ****   
 146:Drivers/CMSIS/Include/cmsis_gcc.h ****   extern const __copy_table_t __copy_table_start__;
 147:Drivers/CMSIS/Include/cmsis_gcc.h ****   extern const __copy_table_t __copy_table_end__;
 148:Drivers/CMSIS/Include/cmsis_gcc.h ****   extern const __zero_table_t __zero_table_start__;
 149:Drivers/CMSIS/Include/cmsis_gcc.h ****   extern const __zero_table_t __zero_table_end__;
 150:Drivers/CMSIS/Include/cmsis_gcc.h **** 
 151:Drivers/CMSIS/Include/cmsis_gcc.h ****   for (__copy_table_t const* pTable = &__copy_table_start__; pTable < &__copy_table_end__; ++pTable
 152:Drivers/CMSIS/Include/cmsis_gcc.h ****     for(uint32_t i=0u; i<pTable->wlen; ++i) {
 153:Drivers/CMSIS/Include/cmsis_gcc.h ****       pTable->dest[i] = pTable->src[i];
 154:Drivers/CMSIS/Include/cmsis_gcc.h ****     }
 155:Drivers/CMSIS/Include/cmsis_gcc.h ****   }
 156:Drivers/CMSIS/Include/cmsis_gcc.h ****  
 157:Drivers/CMSIS/Include/cmsis_gcc.h ****   for (__zero_table_t const* pTable = &__zero_table_start__; pTable < &__zero_table_end__; ++pTable
 158:Drivers/CMSIS/Include/cmsis_gcc.h ****     for(uint32_t i=0u; i<pTable->wlen; ++i) {
 159:Drivers/CMSIS/Include/cmsis_gcc.h ****       pTable->dest[i] = 0u;
 160:Drivers/CMSIS/Include/cmsis_gcc.h ****     }
 161:Drivers/CMSIS/Include/cmsis_gcc.h ****   }
 162:Drivers/CMSIS/Include/cmsis_gcc.h ****  
 163:Drivers/CMSIS/Include/cmsis_gcc.h ****   _start();
 164:Drivers/CMSIS/Include/cmsis_gcc.h **** }
 165:Drivers/CMSIS/Include/cmsis_gcc.h ****   
 166:Drivers/CMSIS/Include/cmsis_gcc.h **** #define __PROGRAM_START           __cmsis_start
 167:Drivers/CMSIS/Include/cmsis_gcc.h **** #endif
 168:Drivers/CMSIS/Include/cmsis_gcc.h **** 
 169:Drivers/CMSIS/Include/cmsis_gcc.h **** #ifndef __INITIAL_SP
 170:Drivers/CMSIS/Include/cmsis_gcc.h **** #define __INITIAL_SP              __StackTop
 171:Drivers/CMSIS/Include/cmsis_gcc.h **** #endif
 172:Drivers/CMSIS/Include/cmsis_gcc.h **** 
 173:Drivers/CMSIS/Include/cmsis_gcc.h **** #ifndef __STACK_LIMIT
 174:Drivers/CMSIS/Include/cmsis_gcc.h **** #define __STACK_LIMIT             __StackLimit
 175:Drivers/CMSIS/Include/cmsis_gcc.h **** #endif
 176:Drivers/CMSIS/Include/cmsis_gcc.h **** 
 177:Drivers/CMSIS/Include/cmsis_gcc.h **** #ifndef __VECTOR_TABLE
 178:Drivers/CMSIS/Include/cmsis_gcc.h **** #define __VECTOR_TABLE            __Vectors
 179:Drivers/CMSIS/Include/cmsis_gcc.h **** #endif
 180:Drivers/CMSIS/Include/cmsis_gcc.h **** 
 181:Drivers/CMSIS/Include/cmsis_gcc.h **** #ifndef __VECTOR_TABLE_ATTRIBUTE
 182:Drivers/CMSIS/Include/cmsis_gcc.h **** #define __VECTOR_TABLE_ATTRIBUTE  __attribute((used, section(".vectors")))
 183:Drivers/CMSIS/Include/cmsis_gcc.h **** #endif
 184:Drivers/CMSIS/Include/cmsis_gcc.h **** 
 185:Drivers/CMSIS/Include/cmsis_gcc.h **** /* ###########################  Core Function Access  ########################### */
 186:Drivers/CMSIS/Include/cmsis_gcc.h **** /** \ingroup  CMSIS_Core_FunctionInterface
 187:Drivers/CMSIS/Include/cmsis_gcc.h ****     \defgroup CMSIS_Core_RegAccFunctions CMSIS Core Register Access Functions
 188:Drivers/CMSIS/Include/cmsis_gcc.h ****   @{
ARM GAS  C:\Users\Ali\AppData\Local\Temp\cc6fRbWg.s 			page 28


 189:Drivers/CMSIS/Include/cmsis_gcc.h ****  */
 190:Drivers/CMSIS/Include/cmsis_gcc.h **** 
 191:Drivers/CMSIS/Include/cmsis_gcc.h **** /**
 192:Drivers/CMSIS/Include/cmsis_gcc.h ****   \brief   Enable IRQ Interrupts
 193:Drivers/CMSIS/Include/cmsis_gcc.h ****   \details Enables IRQ interrupts by clearing the I-bit in the CPSR.
 194:Drivers/CMSIS/Include/cmsis_gcc.h ****            Can only be executed in Privileged modes.
 195:Drivers/CMSIS/Include/cmsis_gcc.h ****  */
 196:Drivers/CMSIS/Include/cmsis_gcc.h **** __STATIC_FORCEINLINE void __enable_irq(void)
 197:Drivers/CMSIS/Include/cmsis_gcc.h **** {
 198:Drivers/CMSIS/Include/cmsis_gcc.h ****   __ASM volatile ("cpsie i" : : : "memory");
 199:Drivers/CMSIS/Include/cmsis_gcc.h **** }
 200:Drivers/CMSIS/Include/cmsis_gcc.h **** 
 201:Drivers/CMSIS/Include/cmsis_gcc.h **** 
 202:Drivers/CMSIS/Include/cmsis_gcc.h **** /**
 203:Drivers/CMSIS/Include/cmsis_gcc.h ****   \brief   Disable IRQ Interrupts
 204:Drivers/CMSIS/Include/cmsis_gcc.h ****   \details Disables IRQ interrupts by setting the I-bit in the CPSR.
 205:Drivers/CMSIS/Include/cmsis_gcc.h ****            Can only be executed in Privileged modes.
 206:Drivers/CMSIS/Include/cmsis_gcc.h ****  */
 207:Drivers/CMSIS/Include/cmsis_gcc.h **** __STATIC_FORCEINLINE void __disable_irq(void)
 597              		.loc 2 207 27 view .LVU182
 598              	.LBB7:
 208:Drivers/CMSIS/Include/cmsis_gcc.h **** {
 209:Drivers/CMSIS/Include/cmsis_gcc.h ****   __ASM volatile ("cpsid i" : : : "memory");
 599              		.loc 2 209 3 view .LVU183
 600              		.syntax unified
 601              	@ 209 "Drivers/CMSIS/Include/cmsis_gcc.h" 1
 602 0024 72B6     		cpsid i
 603              	@ 0 "" 2
 604              		.thumb
 605              		.syntax unified
 606              	.LBE7:
 607              	.LBE6:
 593:Core/Src/bootloader.c ****     __HAL_RCC_CAN1_CLK_DISABLE();
 608              		.loc 1 593 5 view .LVU184
 609 0026 03F1C043 		add	r3, r3, #1610612736
 610 002a 03F59833 		add	r3, r3, #77824
 611 002e DA6C     		ldr	r2, [r3, #76]
 612 0030 22F00102 		bic	r2, r2, #1
 613 0034 DA64     		str	r2, [r3, #76]
 594:Core/Src/bootloader.c **** }
 614              		.loc 1 594 5 view .LVU185
 615 0036 9A6D     		ldr	r2, [r3, #88]
 616 0038 22F00072 		bic	r2, r2, #33554432
 617 003c 9A65     		str	r2, [r3, #88]
 595:Core/Src/bootloader.c **** 
 618              		.loc 1 595 1 is_stmt 0 view .LVU186
 619 003e 10BD     		pop	{r4, pc}
 620              	.L52:
 621              		.align	2
 622              	.L51:
 623 0040 00000000 		.word	hcan_bootloader
 624              		.cfi_endproc
 625              	.LFE140:
 627              		.section	.text.Bootloader_Init,"ax",%progbits
 628              		.align	1
 629              		.global	Bootloader_Init
 630              		.syntax unified
ARM GAS  C:\Users\Ali\AppData\Local\Temp\cc6fRbWg.s 			page 29


 631              		.thumb
 632              		.thumb_func
 634              	Bootloader_Init:
 635              	.LVL47:
 636              	.LFB132:
  50:Core/Src/bootloader.c ****     hcan_bootloader = hcan;
 637              		.loc 1 50 1 is_stmt 1 view -0
 638              		.cfi_startproc
 639              		@ args = 0, pretend = 0, frame = 0
 640              		@ frame_needed = 0, uses_anonymous_args = 0
  50:Core/Src/bootloader.c ****     hcan_bootloader = hcan;
 641              		.loc 1 50 1 is_stmt 0 view .LVU188
 642 0000 10B5     		push	{r4, lr}
 643              		.cfi_def_cfa_offset 8
 644              		.cfi_offset 4, -8
 645              		.cfi_offset 14, -4
  51:Core/Src/bootloader.c ****     
 646              		.loc 1 51 5 is_stmt 1 view .LVU189
  51:Core/Src/bootloader.c ****     
 647              		.loc 1 51 21 is_stmt 0 view .LVU190
 648 0002 144C     		ldr	r4, .L59
 649 0004 2060     		str	r0, [r4]
  54:Core/Src/bootloader.c ****     bootloader_status.state = BL_STATE_IDLE;
 650              		.loc 1 54 5 is_stmt 1 view .LVU191
 651 0006 144B     		ldr	r3, .L59+4
 652 0008 0022     		movs	r2, #0
 653 000a 1A60     		str	r2, [r3]
 654 000c 5A60     		str	r2, [r3, #4]
 655 000e 9A60     		str	r2, [r3, #8]
 656 0010 DA60     		str	r2, [r3, #12]
 657 0012 1A61     		str	r2, [r3, #16]
  55:Core/Src/bootloader.c ****     bootloader_status.current_address = APPLICATION_ADDRESS;
 658              		.loc 1 55 5 view .LVU192
  56:Core/Src/bootloader.c ****     
 659              		.loc 1 56 5 view .LVU193
  56:Core/Src/bootloader.c ****     
 660              		.loc 1 56 39 is_stmt 0 view .LVU194
 661 0014 114A     		ldr	r2, .L59+8
 662 0016 5A60     		str	r2, [r3, #4]
  59:Core/Src/bootloader.c ****     
 663              		.loc 1 59 5 is_stmt 1 view .LVU195
 664 0018 FFF7FEFF 		bl	Bootloader_ConfigureCANFilter
 665              	.LVL48:
  62:Core/Src/bootloader.c ****     {
 666              		.loc 1 62 5 view .LVU196
  62:Core/Src/bootloader.c ****     {
 667              		.loc 1 62 9 is_stmt 0 view .LVU197
 668 001c 2068     		ldr	r0, [r4]
 669 001e FFF7FEFF 		bl	HAL_CAN_Start
 670              	.LVL49:
  62:Core/Src/bootloader.c ****     {
 671              		.loc 1 62 8 discriminator 1 view .LVU198
 672 0022 88B9     		cbnz	r0, .L57
 673              	.L54:
  68:Core/Src/bootloader.c ****     {
 674              		.loc 1 68 5 is_stmt 1 view .LVU199
  68:Core/Src/bootloader.c ****     {
ARM GAS  C:\Users\Ali\AppData\Local\Temp\cc6fRbWg.s 			page 30


 675              		.loc 1 68 9 is_stmt 0 view .LVU200
 676 0024 0221     		movs	r1, #2
 677 0026 0B4B     		ldr	r3, .L59
 678 0028 1868     		ldr	r0, [r3]
 679 002a FFF7FEFF 		bl	HAL_CAN_ActivateNotification
 680              	.LVL50:
  68:Core/Src/bootloader.c ****     {
 681              		.loc 1 68 8 discriminator 1 view .LVU201
 682 002e 70B9     		cbnz	r0, .L58
 683              	.L55:
  74:Core/Src/bootloader.c ****     tx_header.ExtId = CAN_BOOTLOADER_ID;
 684              		.loc 1 74 5 is_stmt 1 view .LVU202
  74:Core/Src/bootloader.c ****     tx_header.ExtId = CAN_BOOTLOADER_ID;
 685              		.loc 1 74 21 is_stmt 0 view .LVU203
 686 0030 0B4B     		ldr	r3, .L59+12
 687 0032 0022     		movs	r2, #0
 688 0034 1A60     		str	r2, [r3]
  75:Core/Src/bootloader.c ****     tx_header.IDE = CAN_ID_EXT;
 689              		.loc 1 75 5 is_stmt 1 view .LVU204
  75:Core/Src/bootloader.c ****     tx_header.IDE = CAN_ID_EXT;
 690              		.loc 1 75 21 is_stmt 0 view .LVU205
 691 0036 0B49     		ldr	r1, .L59+16
 692 0038 5960     		str	r1, [r3, #4]
  76:Core/Src/bootloader.c ****     tx_header.RTR = CAN_RTR_DATA;
 693              		.loc 1 76 5 is_stmt 1 view .LVU206
  76:Core/Src/bootloader.c ****     tx_header.RTR = CAN_RTR_DATA;
 694              		.loc 1 76 19 is_stmt 0 view .LVU207
 695 003a 0421     		movs	r1, #4
 696 003c 9960     		str	r1, [r3, #8]
  77:Core/Src/bootloader.c ****     tx_header.DLC = 8;
 697              		.loc 1 77 5 is_stmt 1 view .LVU208
  77:Core/Src/bootloader.c ****     tx_header.DLC = 8;
 698              		.loc 1 77 19 is_stmt 0 view .LVU209
 699 003e DA60     		str	r2, [r3, #12]
  78:Core/Src/bootloader.c ****     tx_header.TransmitGlobalTime = DISABLE;
 700              		.loc 1 78 5 is_stmt 1 view .LVU210
  78:Core/Src/bootloader.c ****     tx_header.TransmitGlobalTime = DISABLE;
 701              		.loc 1 78 19 is_stmt 0 view .LVU211
 702 0040 0821     		movs	r1, #8
 703 0042 1961     		str	r1, [r3, #16]
  79:Core/Src/bootloader.c **** }
 704              		.loc 1 79 5 is_stmt 1 view .LVU212
  79:Core/Src/bootloader.c **** }
 705              		.loc 1 79 34 is_stmt 0 view .LVU213
 706 0044 1A75     		strb	r2, [r3, #20]
  80:Core/Src/bootloader.c **** 
 707              		.loc 1 80 1 view .LVU214
 708 0046 10BD     		pop	{r4, pc}
 709              	.L57:
  64:Core/Src/bootloader.c ****     }
 710              		.loc 1 64 9 is_stmt 1 view .LVU215
 711 0048 FFF7FEFF 		bl	Error_Handler
 712              	.LVL51:
 713 004c EAE7     		b	.L54
 714              	.L58:
  70:Core/Src/bootloader.c ****     }
 715              		.loc 1 70 9 view .LVU216
ARM GAS  C:\Users\Ali\AppData\Local\Temp\cc6fRbWg.s 			page 31


 716 004e FFF7FEFF 		bl	Error_Handler
 717              	.LVL52:
 718 0052 EDE7     		b	.L55
 719              	.L60:
 720              		.align	2
 721              	.L59:
 722 0054 00000000 		.word	hcan_bootloader
 723 0058 00000000 		.word	bootloader_status
 724 005c 00800008 		.word	134250496
 725 0060 00000000 		.word	tx_header
 726 0064 00070018 		.word	402654976
 727              		.cfi_endproc
 728              	.LFE132:
 730              		.section	.text.Bootloader_CheckValidApplication,"ax",%progbits
 731              		.align	1
 732              		.global	Bootloader_CheckValidApplication
 733              		.syntax unified
 734              		.thumb
 735              		.thumb_func
 737              	Bootloader_CheckValidApplication:
 738              	.LFB139:
 554:Core/Src/bootloader.c ****     uint32_t stack_pointer = *(__IO uint32_t *)APPLICATION_ADDRESS;
 739              		.loc 1 554 1 view -0
 740              		.cfi_startproc
 741              		@ args = 0, pretend = 0, frame = 0
 742              		@ frame_needed = 0, uses_anonymous_args = 0
 743              		@ link register save eliminated.
 555:Core/Src/bootloader.c ****     uint32_t reset_handler = *(__IO uint32_t *)(APPLICATION_ADDRESS + 4);
 744              		.loc 1 555 5 view .LVU218
 555:Core/Src/bootloader.c ****     uint32_t reset_handler = *(__IO uint32_t *)(APPLICATION_ADDRESS + 4);
 745              		.loc 1 555 14 is_stmt 0 view .LVU219
 746 0000 094A     		ldr	r2, .L65
 747 0002 1368     		ldr	r3, [r2]
 748              	.LVL53:
 556:Core/Src/bootloader.c ****     
 749              		.loc 1 556 5 is_stmt 1 view .LVU220
 556:Core/Src/bootloader.c ****     
 750              		.loc 1 556 14 is_stmt 0 view .LVU221
 751 0004 5268     		ldr	r2, [r2, #4]
 752              	.LVL54:
 559:Core/Src/bootloader.c ****     {
 753              		.loc 1 559 5 is_stmt 1 view .LVU222
 559:Core/Src/bootloader.c ****     {
 754              		.loc 1 559 24 is_stmt 0 view .LVU223
 755 0006 6FF31303 		bfc	r3, #0, #20
 756              	.LVL55:
 559:Core/Src/bootloader.c ****     {
 757              		.loc 1 559 8 view .LVU224
 758 000a B3F1005F 		cmp	r3, #536870912
 759 000e 06D1     		bne	.L63
 565:Core/Src/bootloader.c ****     {
 760              		.loc 1 565 5 is_stmt 1 view .LVU225
 565:Core/Src/bootloader.c ****     {
 761              		.loc 1 565 52 is_stmt 0 view .LVU226
 762 0010 6FF35702 		bfc	r2, #1, #23
 763              	.LVL56:
 565:Core/Src/bootloader.c ****     {
ARM GAS  C:\Users\Ali\AppData\Local\Temp\cc6fRbWg.s 			page 32


 764              		.loc 1 565 8 view .LVU227
 765 0014 054B     		ldr	r3, .L65+4
 766 0016 9A42     		cmp	r2, r3
 767 0018 03D1     		bne	.L64
 570:Core/Src/bootloader.c **** }
 768              		.loc 1 570 12 view .LVU228
 769 001a 0120     		movs	r0, #1
 770 001c 7047     		bx	lr
 771              	.LVL57:
 772              	.L63:
 561:Core/Src/bootloader.c ****     }
 773              		.loc 1 561 16 view .LVU229
 774 001e 0020     		movs	r0, #0
 775 0020 7047     		bx	lr
 776              	.LVL58:
 777              	.L64:
 567:Core/Src/bootloader.c ****     }
 778              		.loc 1 567 16 view .LVU230
 779 0022 0020     		movs	r0, #0
 571:Core/Src/bootloader.c **** 
 780              		.loc 1 571 1 view .LVU231
 781 0024 7047     		bx	lr
 782              	.L66:
 783 0026 00BF     		.align	2
 784              	.L65:
 785 0028 00800008 		.word	134250496
 786 002c 01000008 		.word	134217729
 787              		.cfi_endproc
 788              	.LFE139:
 790              		.section	.text.Bootloader_SendCANMessage,"ax",%progbits
 791              		.align	1
 792              		.global	Bootloader_SendCANMessage
 793              		.syntax unified
 794              		.thumb
 795              		.thumb_func
 797              	Bootloader_SendCANMessage:
 798              	.LVL59:
 799              	.LFB145:
 614:Core/Src/bootloader.c **** 
 615:Core/Src/bootloader.c **** /**
 616:Core/Src/bootloader.c ****   * @brief  Jump to application
 617:Core/Src/bootloader.c ****   * @retval Error code (if returns, jump failed)
 618:Core/Src/bootloader.c ****   */
 619:Core/Src/bootloader.c **** uint8_t Bootloader_JumpToApplication(void)
 620:Core/Src/bootloader.c **** {
 621:Core/Src/bootloader.c ****     typedef void (*pFunction)(void);
 622:Core/Src/bootloader.c ****     pFunction jump_to_application;
 623:Core/Src/bootloader.c ****     uint32_t jump_address;
 624:Core/Src/bootloader.c ****     uint32_t app_stack_pointer;
 625:Core/Src/bootloader.c ****     uint8_t jump_info[8];
 626:Core/Src/bootloader.c ****     
 627:Core/Src/bootloader.c ****     /* Check if valid application exists */
 628:Core/Src/bootloader.c ****     if (!Bootloader_CheckValidApplication())
 629:Core/Src/bootloader.c ****     {
 630:Core/Src/bootloader.c ****         return ERR_NO_VALID_APP;
 631:Core/Src/bootloader.c ****     }
 632:Core/Src/bootloader.c ****     
ARM GAS  C:\Users\Ali\AppData\Local\Temp\cc6fRbWg.s 			page 33


 633:Core/Src/bootloader.c ****     /* Read application vector table */
 634:Core/Src/bootloader.c ****     app_stack_pointer = *(__IO uint32_t *)APPLICATION_ADDRESS;
 635:Core/Src/bootloader.c ****     jump_address = *(__IO uint32_t *)(APPLICATION_ADDRESS + 4);
 636:Core/Src/bootloader.c ****     
 637:Core/Src/bootloader.c ****     /* Send detailed jump information before jumping */
 638:Core/Src/bootloader.c ****     jump_info[0] = RESP_JUMP_INFO;
 639:Core/Src/bootloader.c ****     jump_info[1] = (app_stack_pointer >> 24) & 0xFF;  /* Stack pointer MSB */
 640:Core/Src/bootloader.c ****     jump_info[2] = (app_stack_pointer >> 16) & 0xFF;
 641:Core/Src/bootloader.c ****     jump_info[3] = (app_stack_pointer >> 8) & 0xFF;
 642:Core/Src/bootloader.c ****     jump_info[4] = app_stack_pointer & 0xFF;          /* Stack pointer LSB */
 643:Core/Src/bootloader.c ****     jump_info[5] = (jump_address >> 16) & 0xFF;       /* Reset vector high word */
 644:Core/Src/bootloader.c ****     jump_info[6] = (jump_address >> 8) & 0xFF;
 645:Core/Src/bootloader.c ****     jump_info[7] = jump_address & 0xFF;               /* Reset vector LSB */
 646:Core/Src/bootloader.c ****     
 647:Core/Src/bootloader.c ****     Bootloader_SendCANMessage(RESP_JUMP_INFO, jump_info, 8);
 648:Core/Src/bootloader.c ****     
 649:Core/Src/bootloader.c ****     /* Wait for CAN transmission to complete */
 650:Core/Src/bootloader.c ****     Bootloader_WaitForCANTransmission();
 651:Core/Src/bootloader.c ****     
 652:Core/Src/bootloader.c ****     bootloader_status.state = BL_STATE_JUMPING;
 653:Core/Src/bootloader.c ****     
 654:Core/Src/bootloader.c ****     /* De-initialize peripherals */
 655:Core/Src/bootloader.c ****     Bootloader_DeInit();
 656:Core/Src/bootloader.c ****     
 657:Core/Src/bootloader.c ****     /* Get the application stack pointer */
 658:Core/Src/bootloader.c ****     __set_MSP(app_stack_pointer);
 659:Core/Src/bootloader.c ****     
 660:Core/Src/bootloader.c ****     /* Cast to function pointer */
 661:Core/Src/bootloader.c ****     jump_to_application = (pFunction)jump_address;
 662:Core/Src/bootloader.c ****     
 663:Core/Src/bootloader.c ****     /* Relocate vector table */
 664:Core/Src/bootloader.c ****     SCB->VTOR = APPLICATION_ADDRESS;
 665:Core/Src/bootloader.c ****     
 666:Core/Src/bootloader.c ****     /* Jump to application */
 667:Core/Src/bootloader.c ****     jump_to_application();
 668:Core/Src/bootloader.c ****     
 669:Core/Src/bootloader.c ****     /* Should never reach here */
 670:Core/Src/bootloader.c ****     return ERR_NONE;
 671:Core/Src/bootloader.c **** }
 672:Core/Src/bootloader.c **** 
 673:Core/Src/bootloader.c **** /**
 674:Core/Src/bootloader.c ****   * @brief  Send ACK message
 675:Core/Src/bootloader.c ****   * @retval None
 676:Core/Src/bootloader.c ****   */
 677:Core/Src/bootloader.c **** static void Bootloader_SendACK(void)
 678:Core/Src/bootloader.c **** {
 679:Core/Src/bootloader.c ****     tx_data[0] = RESP_ACK;
 680:Core/Src/bootloader.c ****     tx_data[1] = bootloader_status.last_error;
 681:Core/Src/bootloader.c ****     Bootloader_SendCANMessage(RESP_ACK, tx_data, 2);
 682:Core/Src/bootloader.c **** }
 683:Core/Src/bootloader.c **** 
 684:Core/Src/bootloader.c **** /**
 685:Core/Src/bootloader.c ****   * @brief  Send NACK message
 686:Core/Src/bootloader.c ****   * @param  error_code: Error code to send
 687:Core/Src/bootloader.c ****   * @retval None
 688:Core/Src/bootloader.c ****   */
 689:Core/Src/bootloader.c **** static void Bootloader_SendNACK(uint8_t error_code)
ARM GAS  C:\Users\Ali\AppData\Local\Temp\cc6fRbWg.s 			page 34


 690:Core/Src/bootloader.c **** {
 691:Core/Src/bootloader.c ****     bootloader_status.last_error = error_code;
 692:Core/Src/bootloader.c ****     tx_data[0] = RESP_NACK;
 693:Core/Src/bootloader.c ****     tx_data[1] = error_code;
 694:Core/Src/bootloader.c ****     Bootloader_SendCANMessage(RESP_NACK, tx_data, 2);
 695:Core/Src/bootloader.c **** }
 696:Core/Src/bootloader.c **** 
 697:Core/Src/bootloader.c **** /**
 698:Core/Src/bootloader.c ****   * @brief  Send CAN message
 699:Core/Src/bootloader.c ****   * @param  cmd: Command/response byte
 700:Core/Src/bootloader.c ****   * @param  data: Pointer to data buffer
 701:Core/Src/bootloader.c ****   * @param  length: Data length
 702:Core/Src/bootloader.c ****   * @retval None
 703:Core/Src/bootloader.c ****   */
 704:Core/Src/bootloader.c **** void Bootloader_SendCANMessage(uint8_t cmd, uint8_t *data, uint8_t length)
 705:Core/Src/bootloader.c **** {
 800              		.loc 1 705 1 is_stmt 1 view -0
 801              		.cfi_startproc
 802              		@ args = 0, pretend = 0, frame = 8
 803              		@ frame_needed = 0, uses_anonymous_args = 0
 804              		.loc 1 705 1 is_stmt 0 view .LVU233
 805 0000 00B5     		push	{lr}
 806              		.cfi_def_cfa_offset 4
 807              		.cfi_offset 14, -4
 808 0002 83B0     		sub	sp, sp, #12
 809              		.cfi_def_cfa_offset 16
 706:Core/Src/bootloader.c ****     uint8_t i;
 810              		.loc 1 706 5 is_stmt 1 view .LVU234
 707:Core/Src/bootloader.c ****     uint8_t tx_buffer[8] = {0};
 811              		.loc 1 707 5 view .LVU235
 812              		.loc 1 707 13 is_stmt 0 view .LVU236
 813 0004 0023     		movs	r3, #0
 814 0006 0093     		str	r3, [sp]
 815 0008 0193     		str	r3, [sp, #4]
 708:Core/Src/bootloader.c ****     
 709:Core/Src/bootloader.c ****     /* Copy data to TX buffer */
 710:Core/Src/bootloader.c ****     for (i = 0; i < length && i < 8; i++)
 816              		.loc 1 710 5 is_stmt 1 view .LVU237
 817              	.LVL60:
 818              		.loc 1 710 5 is_stmt 0 view .LVU238
 819 000a 08E0     		b	.L68
 820              	.LVL61:
 821              	.L70:
 711:Core/Src/bootloader.c ****     {
 712:Core/Src/bootloader.c ****         tx_buffer[i] = data[i];
 822              		.loc 1 712 9 is_stmt 1 view .LVU239
 823              		.loc 1 712 28 is_stmt 0 view .LVU240
 824 000c 11F803C0 		ldrb	ip, [r1, r3]	@ zero_extendqisi2
 825              		.loc 1 712 22 view .LVU241
 826 0010 03F10800 		add	r0, r3, #8
 827 0014 6844     		add	r0, sp, r0
 828 0016 00F808CC 		strb	ip, [r0, #-8]
 710:Core/Src/bootloader.c ****     {
 829              		.loc 1 710 39 is_stmt 1 discriminator 4 view .LVU242
 830 001a 0133     		adds	r3, r3, #1
 831              	.LVL62:
 710:Core/Src/bootloader.c ****     {
ARM GAS  C:\Users\Ali\AppData\Local\Temp\cc6fRbWg.s 			page 35


 832              		.loc 1 710 39 is_stmt 0 discriminator 4 view .LVU243
 833 001c DBB2     		uxtb	r3, r3
 834              	.LVL63:
 835              	.L68:
 710:Core/Src/bootloader.c ****     {
 836              		.loc 1 710 28 is_stmt 1 discriminator 1 view .LVU244
 837 001e 9342     		cmp	r3, r2
 838 0020 01D2     		bcs	.L69
 710:Core/Src/bootloader.c ****     {
 839              		.loc 1 710 28 is_stmt 0 discriminator 3 view .LVU245
 840 0022 072B     		cmp	r3, #7
 841 0024 F2D9     		bls	.L70
 842              	.L69:
 713:Core/Src/bootloader.c ****     }
 714:Core/Src/bootloader.c ****     
 715:Core/Src/bootloader.c ****     /* Set DLC */
 716:Core/Src/bootloader.c ****     tx_header.DLC = length;
 843              		.loc 1 716 5 is_stmt 1 view .LVU246
 844              		.loc 1 716 19 is_stmt 0 view .LVU247
 845 0026 0549     		ldr	r1, .L72
 846              	.LVL64:
 847              		.loc 1 716 19 view .LVU248
 848 0028 0A61     		str	r2, [r1, #16]
 717:Core/Src/bootloader.c ****     
 718:Core/Src/bootloader.c ****     /* Send message */
 719:Core/Src/bootloader.c ****     HAL_CAN_AddTxMessage(hcan_bootloader, &tx_header, tx_buffer, &tx_mailbox);
 849              		.loc 1 719 5 is_stmt 1 view .LVU249
 850 002a 054B     		ldr	r3, .L72+4
 851              	.LVL65:
 852              		.loc 1 719 5 is_stmt 0 view .LVU250
 853 002c 6A46     		mov	r2, sp
 854              	.LVL66:
 855              		.loc 1 719 5 view .LVU251
 856 002e 0548     		ldr	r0, .L72+8
 857 0030 0068     		ldr	r0, [r0]
 858 0032 FFF7FEFF 		bl	HAL_CAN_AddTxMessage
 859              	.LVL67:
 720:Core/Src/bootloader.c **** }
 860              		.loc 1 720 1 view .LVU252
 861 0036 03B0     		add	sp, sp, #12
 862              		.cfi_def_cfa_offset 4
 863              		@ sp needed
 864 0038 5DF804FB 		ldr	pc, [sp], #4
 865              	.L73:
 866              		.align	2
 867              	.L72:
 868 003c 00000000 		.word	tx_header
 869 0040 00000000 		.word	tx_mailbox
 870 0044 00000000 		.word	hcan_bootloader
 871              		.cfi_endproc
 872              	.LFE145:
 874              		.section	.text.Bootloader_SendACK,"ax",%progbits
 875              		.align	1
 876              		.syntax unified
 877              		.thumb
 878              		.thumb_func
 880              	Bootloader_SendACK:
ARM GAS  C:\Users\Ali\AppData\Local\Temp\cc6fRbWg.s 			page 36


 881              	.LFB143:
 678:Core/Src/bootloader.c ****     tx_data[0] = RESP_ACK;
 882              		.loc 1 678 1 is_stmt 1 view -0
 883              		.cfi_startproc
 884              		@ args = 0, pretend = 0, frame = 0
 885              		@ frame_needed = 0, uses_anonymous_args = 0
 886 0000 08B5     		push	{r3, lr}
 887              		.cfi_def_cfa_offset 8
 888              		.cfi_offset 3, -8
 889              		.cfi_offset 14, -4
 679:Core/Src/bootloader.c ****     tx_data[1] = bootloader_status.last_error;
 890              		.loc 1 679 5 view .LVU254
 679:Core/Src/bootloader.c ****     tx_data[1] = bootloader_status.last_error;
 891              		.loc 1 679 16 is_stmt 0 view .LVU255
 892 0002 0549     		ldr	r1, .L76
 893 0004 1020     		movs	r0, #16
 894 0006 0870     		strb	r0, [r1]
 680:Core/Src/bootloader.c ****     Bootloader_SendCANMessage(RESP_ACK, tx_data, 2);
 895              		.loc 1 680 5 is_stmt 1 view .LVU256
 680:Core/Src/bootloader.c ****     Bootloader_SendCANMessage(RESP_ACK, tx_data, 2);
 896              		.loc 1 680 35 is_stmt 0 view .LVU257
 897 0008 044B     		ldr	r3, .L76+4
 898 000a 1B7C     		ldrb	r3, [r3, #16]	@ zero_extendqisi2
 680:Core/Src/bootloader.c ****     Bootloader_SendCANMessage(RESP_ACK, tx_data, 2);
 899              		.loc 1 680 16 view .LVU258
 900 000c 4B70     		strb	r3, [r1, #1]
 681:Core/Src/bootloader.c **** }
 901              		.loc 1 681 5 is_stmt 1 view .LVU259
 902 000e 0222     		movs	r2, #2
 903 0010 FFF7FEFF 		bl	Bootloader_SendCANMessage
 904              	.LVL68:
 682:Core/Src/bootloader.c **** 
 905              		.loc 1 682 1 is_stmt 0 view .LVU260
 906 0014 08BD     		pop	{r3, pc}
 907              	.L77:
 908 0016 00BF     		.align	2
 909              	.L76:
 910 0018 00000000 		.word	tx_data
 911 001c 00000000 		.word	bootloader_status
 912              		.cfi_endproc
 913              	.LFE143:
 915              		.section	.text.Bootloader_SendNACK,"ax",%progbits
 916              		.align	1
 917              		.syntax unified
 918              		.thumb
 919              		.thumb_func
 921              	Bootloader_SendNACK:
 922              	.LVL69:
 923              	.LFB144:
 690:Core/Src/bootloader.c ****     bootloader_status.last_error = error_code;
 924              		.loc 1 690 1 is_stmt 1 view -0
 925              		.cfi_startproc
 926              		@ args = 0, pretend = 0, frame = 0
 927              		@ frame_needed = 0, uses_anonymous_args = 0
 690:Core/Src/bootloader.c ****     bootloader_status.last_error = error_code;
 928              		.loc 1 690 1 is_stmt 0 view .LVU262
 929 0000 08B5     		push	{r3, lr}
ARM GAS  C:\Users\Ali\AppData\Local\Temp\cc6fRbWg.s 			page 37


 930              		.cfi_def_cfa_offset 8
 931              		.cfi_offset 3, -8
 932              		.cfi_offset 14, -4
 933 0002 0346     		mov	r3, r0
 691:Core/Src/bootloader.c ****     tx_data[0] = RESP_NACK;
 934              		.loc 1 691 5 is_stmt 1 view .LVU263
 691:Core/Src/bootloader.c ****     tx_data[0] = RESP_NACK;
 935              		.loc 1 691 34 is_stmt 0 view .LVU264
 936 0004 044A     		ldr	r2, .L80
 937 0006 1074     		strb	r0, [r2, #16]
 692:Core/Src/bootloader.c ****     tx_data[1] = error_code;
 938              		.loc 1 692 5 is_stmt 1 view .LVU265
 692:Core/Src/bootloader.c ****     tx_data[1] = error_code;
 939              		.loc 1 692 16 is_stmt 0 view .LVU266
 940 0008 0449     		ldr	r1, .L80+4
 941 000a 1120     		movs	r0, #17
 942              	.LVL70:
 692:Core/Src/bootloader.c ****     tx_data[1] = error_code;
 943              		.loc 1 692 16 view .LVU267
 944 000c 0870     		strb	r0, [r1]
 693:Core/Src/bootloader.c ****     Bootloader_SendCANMessage(RESP_NACK, tx_data, 2);
 945              		.loc 1 693 5 is_stmt 1 view .LVU268
 693:Core/Src/bootloader.c ****     Bootloader_SendCANMessage(RESP_NACK, tx_data, 2);
 946              		.loc 1 693 16 is_stmt 0 view .LVU269
 947 000e 4B70     		strb	r3, [r1, #1]
 694:Core/Src/bootloader.c **** }
 948              		.loc 1 694 5 is_stmt 1 view .LVU270
 949 0010 0222     		movs	r2, #2
 694:Core/Src/bootloader.c **** }
 950              		.loc 1 694 5 is_stmt 0 view .LVU271
 951 0012 FFF7FEFF 		bl	Bootloader_SendCANMessage
 952              	.LVL71:
 695:Core/Src/bootloader.c **** 
 953              		.loc 1 695 1 view .LVU272
 954 0016 08BD     		pop	{r3, pc}
 955              	.L81:
 956              		.align	2
 957              	.L80:
 958 0018 00000000 		.word	bootloader_status
 959 001c 00000000 		.word	tx_data
 960              		.cfi_endproc
 961              	.LFE144:
 963              		.section	.text.Bootloader_JumpToApplication,"ax",%progbits
 964              		.align	1
 965              		.global	Bootloader_JumpToApplication
 966              		.syntax unified
 967              		.thumb
 968              		.thumb_func
 970              	Bootloader_JumpToApplication:
 971              	.LFB142:
 620:Core/Src/bootloader.c ****     typedef void (*pFunction)(void);
 972              		.loc 1 620 1 is_stmt 1 view -0
 973              		.cfi_startproc
 974              		@ args = 0, pretend = 0, frame = 8
 975              		@ frame_needed = 0, uses_anonymous_args = 0
 976 0000 70B5     		push	{r4, r5, r6, lr}
 977              		.cfi_def_cfa_offset 16
ARM GAS  C:\Users\Ali\AppData\Local\Temp\cc6fRbWg.s 			page 38


 978              		.cfi_offset 4, -16
 979              		.cfi_offset 5, -12
 980              		.cfi_offset 6, -8
 981              		.cfi_offset 14, -4
 982 0002 82B0     		sub	sp, sp, #8
 983              		.cfi_def_cfa_offset 24
 621:Core/Src/bootloader.c ****     pFunction jump_to_application;
 984              		.loc 1 621 5 view .LVU274
 622:Core/Src/bootloader.c ****     uint32_t jump_address;
 985              		.loc 1 622 5 view .LVU275
 623:Core/Src/bootloader.c ****     uint32_t app_stack_pointer;
 986              		.loc 1 623 5 view .LVU276
 624:Core/Src/bootloader.c ****     uint8_t jump_info[8];
 987              		.loc 1 624 5 view .LVU277
 625:Core/Src/bootloader.c ****     
 988              		.loc 1 625 5 view .LVU278
 628:Core/Src/bootloader.c ****     {
 989              		.loc 1 628 5 view .LVU279
 628:Core/Src/bootloader.c ****     {
 990              		.loc 1 628 10 is_stmt 0 view .LVU280
 991 0004 FFF7FEFF 		bl	Bootloader_CheckValidApplication
 992              	.LVL72:
 628:Core/Src/bootloader.c ****     {
 993              		.loc 1 628 8 discriminator 1 view .LVU281
 994 0008 58B3     		cbz	r0, .L84
 634:Core/Src/bootloader.c ****     jump_address = *(__IO uint32_t *)(APPLICATION_ADDRESS + 4);
 995              		.loc 1 634 5 is_stmt 1 view .LVU282
 634:Core/Src/bootloader.c ****     jump_address = *(__IO uint32_t *)(APPLICATION_ADDRESS + 4);
 996              		.loc 1 634 23 is_stmt 0 view .LVU283
 997 000a 174E     		ldr	r6, .L86
 998 000c 3468     		ldr	r4, [r6]
 999              	.LVL73:
 635:Core/Src/bootloader.c ****     
 1000              		.loc 1 635 5 is_stmt 1 view .LVU284
 635:Core/Src/bootloader.c ****     
 1001              		.loc 1 635 18 is_stmt 0 view .LVU285
 1002 000e 7568     		ldr	r5, [r6, #4]
 1003              	.LVL74:
 638:Core/Src/bootloader.c ****     jump_info[1] = (app_stack_pointer >> 24) & 0xFF;  /* Stack pointer MSB */
 1004              		.loc 1 638 5 is_stmt 1 view .LVU286
 638:Core/Src/bootloader.c ****     jump_info[1] = (app_stack_pointer >> 24) & 0xFF;  /* Stack pointer MSB */
 1005              		.loc 1 638 18 is_stmt 0 view .LVU287
 1006 0010 1620     		movs	r0, #22
 1007 0012 8DF80000 		strb	r0, [sp]
 639:Core/Src/bootloader.c ****     jump_info[2] = (app_stack_pointer >> 16) & 0xFF;
 1008              		.loc 1 639 5 is_stmt 1 view .LVU288
 639:Core/Src/bootloader.c ****     jump_info[2] = (app_stack_pointer >> 16) & 0xFF;
 1009              		.loc 1 639 39 is_stmt 0 view .LVU289
 1010 0016 230E     		lsrs	r3, r4, #24
 639:Core/Src/bootloader.c ****     jump_info[2] = (app_stack_pointer >> 16) & 0xFF;
 1011              		.loc 1 639 18 view .LVU290
 1012 0018 8DF80130 		strb	r3, [sp, #1]
 640:Core/Src/bootloader.c ****     jump_info[3] = (app_stack_pointer >> 8) & 0xFF;
 1013              		.loc 1 640 5 is_stmt 1 view .LVU291
 640:Core/Src/bootloader.c ****     jump_info[3] = (app_stack_pointer >> 8) & 0xFF;
 1014              		.loc 1 640 39 is_stmt 0 view .LVU292
 1015 001c 230C     		lsrs	r3, r4, #16
ARM GAS  C:\Users\Ali\AppData\Local\Temp\cc6fRbWg.s 			page 39


 640:Core/Src/bootloader.c ****     jump_info[3] = (app_stack_pointer >> 8) & 0xFF;
 1016              		.loc 1 640 18 view .LVU293
 1017 001e 8DF80230 		strb	r3, [sp, #2]
 641:Core/Src/bootloader.c ****     jump_info[4] = app_stack_pointer & 0xFF;          /* Stack pointer LSB */
 1018              		.loc 1 641 5 is_stmt 1 view .LVU294
 641:Core/Src/bootloader.c ****     jump_info[4] = app_stack_pointer & 0xFF;          /* Stack pointer LSB */
 1019              		.loc 1 641 39 is_stmt 0 view .LVU295
 1020 0022 230A     		lsrs	r3, r4, #8
 641:Core/Src/bootloader.c ****     jump_info[4] = app_stack_pointer & 0xFF;          /* Stack pointer LSB */
 1021              		.loc 1 641 18 view .LVU296
 1022 0024 8DF80330 		strb	r3, [sp, #3]
 642:Core/Src/bootloader.c ****     jump_info[5] = (jump_address >> 16) & 0xFF;       /* Reset vector high word */
 1023              		.loc 1 642 5 is_stmt 1 view .LVU297
 642:Core/Src/bootloader.c ****     jump_info[5] = (jump_address >> 16) & 0xFF;       /* Reset vector high word */
 1024              		.loc 1 642 18 is_stmt 0 view .LVU298
 1025 0028 8DF80440 		strb	r4, [sp, #4]
 643:Core/Src/bootloader.c ****     jump_info[6] = (jump_address >> 8) & 0xFF;
 1026              		.loc 1 643 5 is_stmt 1 view .LVU299
 643:Core/Src/bootloader.c ****     jump_info[6] = (jump_address >> 8) & 0xFF;
 1027              		.loc 1 643 34 is_stmt 0 view .LVU300
 1028 002c 2B0C     		lsrs	r3, r5, #16
 643:Core/Src/bootloader.c ****     jump_info[6] = (jump_address >> 8) & 0xFF;
 1029              		.loc 1 643 18 view .LVU301
 1030 002e 8DF80530 		strb	r3, [sp, #5]
 644:Core/Src/bootloader.c ****     jump_info[7] = jump_address & 0xFF;               /* Reset vector LSB */
 1031              		.loc 1 644 5 is_stmt 1 view .LVU302
 644:Core/Src/bootloader.c ****     jump_info[7] = jump_address & 0xFF;               /* Reset vector LSB */
 1032              		.loc 1 644 34 is_stmt 0 view .LVU303
 1033 0032 2B0A     		lsrs	r3, r5, #8
 644:Core/Src/bootloader.c ****     jump_info[7] = jump_address & 0xFF;               /* Reset vector LSB */
 1034              		.loc 1 644 18 view .LVU304
 1035 0034 8DF80630 		strb	r3, [sp, #6]
 645:Core/Src/bootloader.c ****     
 1036              		.loc 1 645 5 is_stmt 1 view .LVU305
 645:Core/Src/bootloader.c ****     
 1037              		.loc 1 645 18 is_stmt 0 view .LVU306
 1038 0038 8DF80750 		strb	r5, [sp, #7]
 647:Core/Src/bootloader.c ****     
 1039              		.loc 1 647 5 is_stmt 1 view .LVU307
 1040 003c 0822     		movs	r2, #8
 1041 003e 6946     		mov	r1, sp
 1042 0040 FFF7FEFF 		bl	Bootloader_SendCANMessage
 1043              	.LVL75:
 650:Core/Src/bootloader.c ****     
 1044              		.loc 1 650 5 view .LVU308
 1045 0044 FFF7FEFF 		bl	Bootloader_WaitForCANTransmission
 1046              	.LVL76:
 652:Core/Src/bootloader.c ****     
 1047              		.loc 1 652 5 view .LVU309
 652:Core/Src/bootloader.c ****     
 1048              		.loc 1 652 29 is_stmt 0 view .LVU310
 1049 0048 084B     		ldr	r3, .L86+4
 1050 004a 0522     		movs	r2, #5
 1051 004c 1A70     		strb	r2, [r3]
 655:Core/Src/bootloader.c ****     
 1052              		.loc 1 655 5 is_stmt 1 view .LVU311
 1053 004e FFF7FEFF 		bl	Bootloader_DeInit
ARM GAS  C:\Users\Ali\AppData\Local\Temp\cc6fRbWg.s 			page 40


 1054              	.LVL77:
 658:Core/Src/bootloader.c ****     
 1055              		.loc 1 658 5 view .LVU312
 1056              	.LBB8:
 1057              	.LBI8:
 210:Drivers/CMSIS/Include/cmsis_gcc.h **** }
 211:Drivers/CMSIS/Include/cmsis_gcc.h **** 
 212:Drivers/CMSIS/Include/cmsis_gcc.h **** 
 213:Drivers/CMSIS/Include/cmsis_gcc.h **** /**
 214:Drivers/CMSIS/Include/cmsis_gcc.h ****   \brief   Get Control Register
 215:Drivers/CMSIS/Include/cmsis_gcc.h ****   \details Returns the content of the Control Register.
 216:Drivers/CMSIS/Include/cmsis_gcc.h ****   \return               Control Register value
 217:Drivers/CMSIS/Include/cmsis_gcc.h ****  */
 218:Drivers/CMSIS/Include/cmsis_gcc.h **** __STATIC_FORCEINLINE uint32_t __get_CONTROL(void)
 219:Drivers/CMSIS/Include/cmsis_gcc.h **** {
 220:Drivers/CMSIS/Include/cmsis_gcc.h ****   uint32_t result;
 221:Drivers/CMSIS/Include/cmsis_gcc.h **** 
 222:Drivers/CMSIS/Include/cmsis_gcc.h ****   __ASM volatile ("MRS %0, control" : "=r" (result) );
 223:Drivers/CMSIS/Include/cmsis_gcc.h ****   return(result);
 224:Drivers/CMSIS/Include/cmsis_gcc.h **** }
 225:Drivers/CMSIS/Include/cmsis_gcc.h **** 
 226:Drivers/CMSIS/Include/cmsis_gcc.h **** 
 227:Drivers/CMSIS/Include/cmsis_gcc.h **** #if (defined (__ARM_FEATURE_CMSE ) && (__ARM_FEATURE_CMSE == 3))
 228:Drivers/CMSIS/Include/cmsis_gcc.h **** /**
 229:Drivers/CMSIS/Include/cmsis_gcc.h ****   \brief   Get Control Register (non-secure)
 230:Drivers/CMSIS/Include/cmsis_gcc.h ****   \details Returns the content of the non-secure Control Register when in secure mode.
 231:Drivers/CMSIS/Include/cmsis_gcc.h ****   \return               non-secure Control Register value
 232:Drivers/CMSIS/Include/cmsis_gcc.h ****  */
 233:Drivers/CMSIS/Include/cmsis_gcc.h **** __STATIC_FORCEINLINE uint32_t __TZ_get_CONTROL_NS(void)
 234:Drivers/CMSIS/Include/cmsis_gcc.h **** {
 235:Drivers/CMSIS/Include/cmsis_gcc.h ****   uint32_t result;
 236:Drivers/CMSIS/Include/cmsis_gcc.h **** 
 237:Drivers/CMSIS/Include/cmsis_gcc.h ****   __ASM volatile ("MRS %0, control_ns" : "=r" (result) );
 238:Drivers/CMSIS/Include/cmsis_gcc.h ****   return(result);
 239:Drivers/CMSIS/Include/cmsis_gcc.h **** }
 240:Drivers/CMSIS/Include/cmsis_gcc.h **** #endif
 241:Drivers/CMSIS/Include/cmsis_gcc.h **** 
 242:Drivers/CMSIS/Include/cmsis_gcc.h **** 
 243:Drivers/CMSIS/Include/cmsis_gcc.h **** /**
 244:Drivers/CMSIS/Include/cmsis_gcc.h ****   \brief   Set Control Register
 245:Drivers/CMSIS/Include/cmsis_gcc.h ****   \details Writes the given value to the Control Register.
 246:Drivers/CMSIS/Include/cmsis_gcc.h ****   \param [in]    control  Control Register value to set
 247:Drivers/CMSIS/Include/cmsis_gcc.h ****  */
 248:Drivers/CMSIS/Include/cmsis_gcc.h **** __STATIC_FORCEINLINE void __set_CONTROL(uint32_t control)
 249:Drivers/CMSIS/Include/cmsis_gcc.h **** {
 250:Drivers/CMSIS/Include/cmsis_gcc.h ****   __ASM volatile ("MSR control, %0" : : "r" (control) : "memory");
 251:Drivers/CMSIS/Include/cmsis_gcc.h **** }
 252:Drivers/CMSIS/Include/cmsis_gcc.h **** 
 253:Drivers/CMSIS/Include/cmsis_gcc.h **** 
 254:Drivers/CMSIS/Include/cmsis_gcc.h **** #if (defined (__ARM_FEATURE_CMSE ) && (__ARM_FEATURE_CMSE == 3))
 255:Drivers/CMSIS/Include/cmsis_gcc.h **** /**
 256:Drivers/CMSIS/Include/cmsis_gcc.h ****   \brief   Set Control Register (non-secure)
 257:Drivers/CMSIS/Include/cmsis_gcc.h ****   \details Writes the given value to the non-secure Control Register when in secure state.
 258:Drivers/CMSIS/Include/cmsis_gcc.h ****   \param [in]    control  Control Register value to set
 259:Drivers/CMSIS/Include/cmsis_gcc.h ****  */
 260:Drivers/CMSIS/Include/cmsis_gcc.h **** __STATIC_FORCEINLINE void __TZ_set_CONTROL_NS(uint32_t control)
 261:Drivers/CMSIS/Include/cmsis_gcc.h **** {
ARM GAS  C:\Users\Ali\AppData\Local\Temp\cc6fRbWg.s 			page 41


 262:Drivers/CMSIS/Include/cmsis_gcc.h ****   __ASM volatile ("MSR control_ns, %0" : : "r" (control) : "memory");
 263:Drivers/CMSIS/Include/cmsis_gcc.h **** }
 264:Drivers/CMSIS/Include/cmsis_gcc.h **** #endif
 265:Drivers/CMSIS/Include/cmsis_gcc.h **** 
 266:Drivers/CMSIS/Include/cmsis_gcc.h **** 
 267:Drivers/CMSIS/Include/cmsis_gcc.h **** /**
 268:Drivers/CMSIS/Include/cmsis_gcc.h ****   \brief   Get IPSR Register
 269:Drivers/CMSIS/Include/cmsis_gcc.h ****   \details Returns the content of the IPSR Register.
 270:Drivers/CMSIS/Include/cmsis_gcc.h ****   \return               IPSR Register value
 271:Drivers/CMSIS/Include/cmsis_gcc.h ****  */
 272:Drivers/CMSIS/Include/cmsis_gcc.h **** __STATIC_FORCEINLINE uint32_t __get_IPSR(void)
 273:Drivers/CMSIS/Include/cmsis_gcc.h **** {
 274:Drivers/CMSIS/Include/cmsis_gcc.h ****   uint32_t result;
 275:Drivers/CMSIS/Include/cmsis_gcc.h **** 
 276:Drivers/CMSIS/Include/cmsis_gcc.h ****   __ASM volatile ("MRS %0, ipsr" : "=r" (result) );
 277:Drivers/CMSIS/Include/cmsis_gcc.h ****   return(result);
 278:Drivers/CMSIS/Include/cmsis_gcc.h **** }
 279:Drivers/CMSIS/Include/cmsis_gcc.h **** 
 280:Drivers/CMSIS/Include/cmsis_gcc.h **** 
 281:Drivers/CMSIS/Include/cmsis_gcc.h **** /**
 282:Drivers/CMSIS/Include/cmsis_gcc.h ****   \brief   Get APSR Register
 283:Drivers/CMSIS/Include/cmsis_gcc.h ****   \details Returns the content of the APSR Register.
 284:Drivers/CMSIS/Include/cmsis_gcc.h ****   \return               APSR Register value
 285:Drivers/CMSIS/Include/cmsis_gcc.h ****  */
 286:Drivers/CMSIS/Include/cmsis_gcc.h **** __STATIC_FORCEINLINE uint32_t __get_APSR(void)
 287:Drivers/CMSIS/Include/cmsis_gcc.h **** {
 288:Drivers/CMSIS/Include/cmsis_gcc.h ****   uint32_t result;
 289:Drivers/CMSIS/Include/cmsis_gcc.h **** 
 290:Drivers/CMSIS/Include/cmsis_gcc.h ****   __ASM volatile ("MRS %0, apsr" : "=r" (result) );
 291:Drivers/CMSIS/Include/cmsis_gcc.h ****   return(result);
 292:Drivers/CMSIS/Include/cmsis_gcc.h **** }
 293:Drivers/CMSIS/Include/cmsis_gcc.h **** 
 294:Drivers/CMSIS/Include/cmsis_gcc.h **** 
 295:Drivers/CMSIS/Include/cmsis_gcc.h **** /**
 296:Drivers/CMSIS/Include/cmsis_gcc.h ****   \brief   Get xPSR Register
 297:Drivers/CMSIS/Include/cmsis_gcc.h ****   \details Returns the content of the xPSR Register.
 298:Drivers/CMSIS/Include/cmsis_gcc.h ****   \return               xPSR Register value
 299:Drivers/CMSIS/Include/cmsis_gcc.h ****  */
 300:Drivers/CMSIS/Include/cmsis_gcc.h **** __STATIC_FORCEINLINE uint32_t __get_xPSR(void)
 301:Drivers/CMSIS/Include/cmsis_gcc.h **** {
 302:Drivers/CMSIS/Include/cmsis_gcc.h ****   uint32_t result;
 303:Drivers/CMSIS/Include/cmsis_gcc.h **** 
 304:Drivers/CMSIS/Include/cmsis_gcc.h ****   __ASM volatile ("MRS %0, xpsr" : "=r" (result) );
 305:Drivers/CMSIS/Include/cmsis_gcc.h ****   return(result);
 306:Drivers/CMSIS/Include/cmsis_gcc.h **** }
 307:Drivers/CMSIS/Include/cmsis_gcc.h **** 
 308:Drivers/CMSIS/Include/cmsis_gcc.h **** 
 309:Drivers/CMSIS/Include/cmsis_gcc.h **** /**
 310:Drivers/CMSIS/Include/cmsis_gcc.h ****   \brief   Get Process Stack Pointer
 311:Drivers/CMSIS/Include/cmsis_gcc.h ****   \details Returns the current value of the Process Stack Pointer (PSP).
 312:Drivers/CMSIS/Include/cmsis_gcc.h ****   \return               PSP Register value
 313:Drivers/CMSIS/Include/cmsis_gcc.h ****  */
 314:Drivers/CMSIS/Include/cmsis_gcc.h **** __STATIC_FORCEINLINE uint32_t __get_PSP(void)
 315:Drivers/CMSIS/Include/cmsis_gcc.h **** {
 316:Drivers/CMSIS/Include/cmsis_gcc.h ****   uint32_t result;
 317:Drivers/CMSIS/Include/cmsis_gcc.h **** 
 318:Drivers/CMSIS/Include/cmsis_gcc.h ****   __ASM volatile ("MRS %0, psp"  : "=r" (result) );
ARM GAS  C:\Users\Ali\AppData\Local\Temp\cc6fRbWg.s 			page 42


 319:Drivers/CMSIS/Include/cmsis_gcc.h ****   return(result);
 320:Drivers/CMSIS/Include/cmsis_gcc.h **** }
 321:Drivers/CMSIS/Include/cmsis_gcc.h **** 
 322:Drivers/CMSIS/Include/cmsis_gcc.h **** 
 323:Drivers/CMSIS/Include/cmsis_gcc.h **** #if (defined (__ARM_FEATURE_CMSE ) && (__ARM_FEATURE_CMSE == 3))
 324:Drivers/CMSIS/Include/cmsis_gcc.h **** /**
 325:Drivers/CMSIS/Include/cmsis_gcc.h ****   \brief   Get Process Stack Pointer (non-secure)
 326:Drivers/CMSIS/Include/cmsis_gcc.h ****   \details Returns the current value of the non-secure Process Stack Pointer (PSP) when in secure s
 327:Drivers/CMSIS/Include/cmsis_gcc.h ****   \return               PSP Register value
 328:Drivers/CMSIS/Include/cmsis_gcc.h ****  */
 329:Drivers/CMSIS/Include/cmsis_gcc.h **** __STATIC_FORCEINLINE uint32_t __TZ_get_PSP_NS(void)
 330:Drivers/CMSIS/Include/cmsis_gcc.h **** {
 331:Drivers/CMSIS/Include/cmsis_gcc.h ****   uint32_t result;
 332:Drivers/CMSIS/Include/cmsis_gcc.h **** 
 333:Drivers/CMSIS/Include/cmsis_gcc.h ****   __ASM volatile ("MRS %0, psp_ns"  : "=r" (result) );
 334:Drivers/CMSIS/Include/cmsis_gcc.h ****   return(result);
 335:Drivers/CMSIS/Include/cmsis_gcc.h **** }
 336:Drivers/CMSIS/Include/cmsis_gcc.h **** #endif
 337:Drivers/CMSIS/Include/cmsis_gcc.h **** 
 338:Drivers/CMSIS/Include/cmsis_gcc.h **** 
 339:Drivers/CMSIS/Include/cmsis_gcc.h **** /**
 340:Drivers/CMSIS/Include/cmsis_gcc.h ****   \brief   Set Process Stack Pointer
 341:Drivers/CMSIS/Include/cmsis_gcc.h ****   \details Assigns the given value to the Process Stack Pointer (PSP).
 342:Drivers/CMSIS/Include/cmsis_gcc.h ****   \param [in]    topOfProcStack  Process Stack Pointer value to set
 343:Drivers/CMSIS/Include/cmsis_gcc.h ****  */
 344:Drivers/CMSIS/Include/cmsis_gcc.h **** __STATIC_FORCEINLINE void __set_PSP(uint32_t topOfProcStack)
 345:Drivers/CMSIS/Include/cmsis_gcc.h **** {
 346:Drivers/CMSIS/Include/cmsis_gcc.h ****   __ASM volatile ("MSR psp, %0" : : "r" (topOfProcStack) : );
 347:Drivers/CMSIS/Include/cmsis_gcc.h **** }
 348:Drivers/CMSIS/Include/cmsis_gcc.h **** 
 349:Drivers/CMSIS/Include/cmsis_gcc.h **** 
 350:Drivers/CMSIS/Include/cmsis_gcc.h **** #if (defined (__ARM_FEATURE_CMSE ) && (__ARM_FEATURE_CMSE == 3))
 351:Drivers/CMSIS/Include/cmsis_gcc.h **** /**
 352:Drivers/CMSIS/Include/cmsis_gcc.h ****   \brief   Set Process Stack Pointer (non-secure)
 353:Drivers/CMSIS/Include/cmsis_gcc.h ****   \details Assigns the given value to the non-secure Process Stack Pointer (PSP) when in secure sta
 354:Drivers/CMSIS/Include/cmsis_gcc.h ****   \param [in]    topOfProcStack  Process Stack Pointer value to set
 355:Drivers/CMSIS/Include/cmsis_gcc.h ****  */
 356:Drivers/CMSIS/Include/cmsis_gcc.h **** __STATIC_FORCEINLINE void __TZ_set_PSP_NS(uint32_t topOfProcStack)
 357:Drivers/CMSIS/Include/cmsis_gcc.h **** {
 358:Drivers/CMSIS/Include/cmsis_gcc.h ****   __ASM volatile ("MSR psp_ns, %0" : : "r" (topOfProcStack) : );
 359:Drivers/CMSIS/Include/cmsis_gcc.h **** }
 360:Drivers/CMSIS/Include/cmsis_gcc.h **** #endif
 361:Drivers/CMSIS/Include/cmsis_gcc.h **** 
 362:Drivers/CMSIS/Include/cmsis_gcc.h **** 
 363:Drivers/CMSIS/Include/cmsis_gcc.h **** /**
 364:Drivers/CMSIS/Include/cmsis_gcc.h ****   \brief   Get Main Stack Pointer
 365:Drivers/CMSIS/Include/cmsis_gcc.h ****   \details Returns the current value of the Main Stack Pointer (MSP).
 366:Drivers/CMSIS/Include/cmsis_gcc.h ****   \return               MSP Register value
 367:Drivers/CMSIS/Include/cmsis_gcc.h ****  */
 368:Drivers/CMSIS/Include/cmsis_gcc.h **** __STATIC_FORCEINLINE uint32_t __get_MSP(void)
 369:Drivers/CMSIS/Include/cmsis_gcc.h **** {
 370:Drivers/CMSIS/Include/cmsis_gcc.h ****   uint32_t result;
 371:Drivers/CMSIS/Include/cmsis_gcc.h **** 
 372:Drivers/CMSIS/Include/cmsis_gcc.h ****   __ASM volatile ("MRS %0, msp" : "=r" (result) );
 373:Drivers/CMSIS/Include/cmsis_gcc.h ****   return(result);
 374:Drivers/CMSIS/Include/cmsis_gcc.h **** }
 375:Drivers/CMSIS/Include/cmsis_gcc.h **** 
ARM GAS  C:\Users\Ali\AppData\Local\Temp\cc6fRbWg.s 			page 43


 376:Drivers/CMSIS/Include/cmsis_gcc.h **** 
 377:Drivers/CMSIS/Include/cmsis_gcc.h **** #if (defined (__ARM_FEATURE_CMSE ) && (__ARM_FEATURE_CMSE == 3))
 378:Drivers/CMSIS/Include/cmsis_gcc.h **** /**
 379:Drivers/CMSIS/Include/cmsis_gcc.h ****   \brief   Get Main Stack Pointer (non-secure)
 380:Drivers/CMSIS/Include/cmsis_gcc.h ****   \details Returns the current value of the non-secure Main Stack Pointer (MSP) when in secure stat
 381:Drivers/CMSIS/Include/cmsis_gcc.h ****   \return               MSP Register value
 382:Drivers/CMSIS/Include/cmsis_gcc.h ****  */
 383:Drivers/CMSIS/Include/cmsis_gcc.h **** __STATIC_FORCEINLINE uint32_t __TZ_get_MSP_NS(void)
 384:Drivers/CMSIS/Include/cmsis_gcc.h **** {
 385:Drivers/CMSIS/Include/cmsis_gcc.h ****   uint32_t result;
 386:Drivers/CMSIS/Include/cmsis_gcc.h **** 
 387:Drivers/CMSIS/Include/cmsis_gcc.h ****   __ASM volatile ("MRS %0, msp_ns" : "=r" (result) );
 388:Drivers/CMSIS/Include/cmsis_gcc.h ****   return(result);
 389:Drivers/CMSIS/Include/cmsis_gcc.h **** }
 390:Drivers/CMSIS/Include/cmsis_gcc.h **** #endif
 391:Drivers/CMSIS/Include/cmsis_gcc.h **** 
 392:Drivers/CMSIS/Include/cmsis_gcc.h **** 
 393:Drivers/CMSIS/Include/cmsis_gcc.h **** /**
 394:Drivers/CMSIS/Include/cmsis_gcc.h ****   \brief   Set Main Stack Pointer
 395:Drivers/CMSIS/Include/cmsis_gcc.h ****   \details Assigns the given value to the Main Stack Pointer (MSP).
 396:Drivers/CMSIS/Include/cmsis_gcc.h ****   \param [in]    topOfMainStack  Main Stack Pointer value to set
 397:Drivers/CMSIS/Include/cmsis_gcc.h ****  */
 398:Drivers/CMSIS/Include/cmsis_gcc.h **** __STATIC_FORCEINLINE void __set_MSP(uint32_t topOfMainStack)
 1058              		.loc 2 398 27 view .LVU313
 1059              	.LBB9:
 399:Drivers/CMSIS/Include/cmsis_gcc.h **** {
 400:Drivers/CMSIS/Include/cmsis_gcc.h ****   __ASM volatile ("MSR msp, %0" : : "r" (topOfMainStack) : );
 1060              		.loc 2 400 3 view .LVU314
 1061              		.syntax unified
 1062              	@ 400 "Drivers/CMSIS/Include/cmsis_gcc.h" 1
 1063 0052 84F30888 		MSR msp, r4
 1064              	@ 0 "" 2
 1065              	.LVL78:
 1066              		.loc 2 400 3 is_stmt 0 view .LVU315
 1067              		.thumb
 1068              		.syntax unified
 1069              	.LBE9:
 1070              	.LBE8:
 661:Core/Src/bootloader.c ****     
 1071              		.loc 1 661 5 is_stmt 1 view .LVU316
 664:Core/Src/bootloader.c ****     
 1072              		.loc 1 664 5 view .LVU317
 664:Core/Src/bootloader.c ****     
 1073              		.loc 1 664 15 is_stmt 0 view .LVU318
 1074 0056 064B     		ldr	r3, .L86+8
 1075 0058 9E60     		str	r6, [r3, #8]
 667:Core/Src/bootloader.c ****     
 1076              		.loc 1 667 5 is_stmt 1 view .LVU319
 1077 005a A847     		blx	r5
 1078              	.LVL79:
 670:Core/Src/bootloader.c **** }
 1079              		.loc 1 670 5 view .LVU320
 670:Core/Src/bootloader.c **** }
 1080              		.loc 1 670 12 is_stmt 0 view .LVU321
 1081 005c 0020     		movs	r0, #0
 1082              	.LVL80:
 1083              	.L83:
ARM GAS  C:\Users\Ali\AppData\Local\Temp\cc6fRbWg.s 			page 44


 671:Core/Src/bootloader.c **** 
 1084              		.loc 1 671 1 view .LVU322
 1085 005e 02B0     		add	sp, sp, #8
 1086              		.cfi_remember_state
 1087              		.cfi_def_cfa_offset 16
 1088              		@ sp needed
 1089 0060 70BD     		pop	{r4, r5, r6, pc}
 1090              	.L84:
 1091              		.cfi_restore_state
 630:Core/Src/bootloader.c ****     }
 1092              		.loc 1 630 16 view .LVU323
 1093 0062 0620     		movs	r0, #6
 1094 0064 FBE7     		b	.L83
 1095              	.L87:
 1096 0066 00BF     		.align	2
 1097              	.L86:
 1098 0068 00800008 		.word	134250496
 1099 006c 00000000 		.word	bootloader_status
 1100 0070 00ED00E0 		.word	-536810240
 1101              		.cfi_endproc
 1102              	.LFE142:
 1104              		.section	.text.Bootloader_SetApplicationValidFlag,"ax",%progbits
 1105              		.align	1
 1106              		.global	Bootloader_SetApplicationValidFlag
 1107              		.syntax unified
 1108              		.thumb
 1109              		.thumb_func
 1111              	Bootloader_SetApplicationValidFlag:
 1112              	.LFB146:
 721:Core/Src/bootloader.c **** 
 722:Core/Src/bootloader.c **** /**
 723:Core/Src/bootloader.c ****   * @brief  Set application valid flag in flash
 724:Core/Src/bootloader.c ****   * @retval ERR_NONE if successful, error code otherwise
 725:Core/Src/bootloader.c ****   */
 726:Core/Src/bootloader.c **** uint8_t Bootloader_SetApplicationValidFlag(void)
 727:Core/Src/bootloader.c **** {
 1113              		.loc 1 727 1 is_stmt 1 view -0
 1114              		.cfi_startproc
 1115              		@ args = 0, pretend = 0, frame = 32
 1116              		@ frame_needed = 0, uses_anonymous_args = 0
 1117 0000 10B5     		push	{r4, lr}
 1118              		.cfi_def_cfa_offset 8
 1119              		.cfi_offset 4, -8
 1120              		.cfi_offset 14, -4
 1121 0002 88B0     		sub	sp, sp, #32
 1122              		.cfi_def_cfa_offset 40
 728:Core/Src/bootloader.c ****     HAL_StatusTypeDef status;
 1123              		.loc 1 728 5 view .LVU325
 729:Core/Src/bootloader.c ****     uint32_t magic_data[2];
 1124              		.loc 1 729 5 view .LVU326
 730:Core/Src/bootloader.c ****     uint64_t data_to_write;
 1125              		.loc 1 730 5 view .LVU327
 731:Core/Src/bootloader.c ****     
 732:Core/Src/bootloader.c ****     magic_data[0] = APP_VALID_MAGIC_NUMBER;
 1126              		.loc 1 732 5 view .LVU328
 1127              		.loc 1 732 19 is_stmt 0 view .LVU329
 1128 0004 164B     		ldr	r3, .L95+8
ARM GAS  C:\Users\Ali\AppData\Local\Temp\cc6fRbWg.s 			page 45


 1129 0006 0693     		str	r3, [sp, #24]
 733:Core/Src/bootloader.c ****     magic_data[1] = APP_VALID_FLAG_COMPLEMENT;
 1130              		.loc 1 733 5 is_stmt 1 view .LVU330
 1131              		.loc 1 733 19 is_stmt 0 view .LVU331
 1132 0008 164B     		ldr	r3, .L95+12
 1133 000a 0793     		str	r3, [sp, #28]
 734:Core/Src/bootloader.c ****     
 735:Core/Src/bootloader.c ****     /* Unlock flash */
 736:Core/Src/bootloader.c ****     HAL_FLASH_Unlock();
 1134              		.loc 1 736 5 is_stmt 1 view .LVU332
 1135 000c FFF7FEFF 		bl	HAL_FLASH_Unlock
 1136              	.LVL81:
 737:Core/Src/bootloader.c ****     
 738:Core/Src/bootloader.c ****     /* Erase the page containing the flag (Page 63 - last page before application) */
 739:Core/Src/bootloader.c ****     FLASH_EraseInitTypeDef erase_init;
 1137              		.loc 1 739 5 view .LVU333
 740:Core/Src/bootloader.c ****     uint32_t page_error;
 1138              		.loc 1 740 5 view .LVU334
 741:Core/Src/bootloader.c ****     
 742:Core/Src/bootloader.c ****     erase_init.TypeErase = FLASH_TYPEERASE_PAGES;
 1139              		.loc 1 742 5 view .LVU335
 1140              		.loc 1 742 26 is_stmt 0 view .LVU336
 1141 0010 0023     		movs	r3, #0
 1142 0012 0293     		str	r3, [sp, #8]
 743:Core/Src/bootloader.c ****     erase_init.Page = 63;  /* Last page of bootloader area (32KB / 2KB per page = page 0-15, but fl
 1143              		.loc 1 743 5 is_stmt 1 view .LVU337
 1144              		.loc 1 743 21 is_stmt 0 view .LVU338
 1145 0014 3F23     		movs	r3, #63
 1146 0016 0493     		str	r3, [sp, #16]
 744:Core/Src/bootloader.c ****     erase_init.NbPages = 1;
 1147              		.loc 1 744 5 is_stmt 1 view .LVU339
 1148              		.loc 1 744 24 is_stmt 0 view .LVU340
 1149 0018 0123     		movs	r3, #1
 1150 001a 0593     		str	r3, [sp, #20]
 745:Core/Src/bootloader.c ****     
 746:Core/Src/bootloader.c ****     status = HAL_FLASHEx_Erase(&erase_init, &page_error);
 1151              		.loc 1 746 5 is_stmt 1 view .LVU341
 1152              		.loc 1 746 14 is_stmt 0 view .LVU342
 1153 001c 01A9     		add	r1, sp, #4
 1154 001e 02A8     		add	r0, sp, #8
 1155 0020 FFF7FEFF 		bl	HAL_FLASHEx_Erase
 1156              	.LVL82:
 747:Core/Src/bootloader.c ****     if (status != HAL_OK)
 1157              		.loc 1 747 5 is_stmt 1 view .LVU343
 1158              		.loc 1 747 8 is_stmt 0 view .LVU344
 1159 0024 68B9     		cbnz	r0, .L93
 748:Core/Src/bootloader.c ****     {
 749:Core/Src/bootloader.c ****         HAL_FLASH_Lock();
 750:Core/Src/bootloader.c ****         return ERR_FLASH_ERASE_FAILED;
 751:Core/Src/bootloader.c ****     }
 752:Core/Src/bootloader.c ****     
 753:Core/Src/bootloader.c ****     /* Write magic number (first 4 bytes) */
 754:Core/Src/bootloader.c ****     status = HAL_FLASH_Program(FLASH_TYPEPROGRAM_DOUBLEWORD, APP_VALID_FLAG_ADDRESS, 
 1160              		.loc 1 754 5 is_stmt 1 view .LVU345
 1161              		.loc 1 754 14 is_stmt 0 view .LVU346
 1162 0026 0CA3     		adr	r3, .L95
 1163 0028 D3E90023 		ldrd	r2, [r3]
ARM GAS  C:\Users\Ali\AppData\Local\Temp\cc6fRbWg.s 			page 46


 1164 002c 0E49     		ldr	r1, .L95+16
 1165 002e 0020     		movs	r0, #0
 1166              	.LVL83:
 1167              		.loc 1 754 14 view .LVU347
 1168 0030 FFF7FEFF 		bl	HAL_FLASH_Program
 1169              	.LVL84:
 755:Core/Src/bootloader.c ****                                 *((uint64_t*)magic_data));
 756:Core/Src/bootloader.c ****     
 757:Core/Src/bootloader.c ****     if (status != HAL_OK)
 1170              		.loc 1 757 5 is_stmt 1 view .LVU348
 1171              		.loc 1 757 8 is_stmt 0 view .LVU349
 1172 0034 0446     		mov	r4, r0
 1173 0036 40B9     		cbnz	r0, .L94
 758:Core/Src/bootloader.c ****     {
 759:Core/Src/bootloader.c ****         HAL_FLASH_Lock();
 760:Core/Src/bootloader.c ****         return ERR_FLASH_WRITE_FAILED;
 761:Core/Src/bootloader.c ****     }
 762:Core/Src/bootloader.c ****     
 763:Core/Src/bootloader.c ****     /* Lock flash */
 764:Core/Src/bootloader.c ****     HAL_FLASH_Lock();
 1174              		.loc 1 764 5 is_stmt 1 view .LVU350
 1175 0038 FFF7FEFF 		bl	HAL_FLASH_Lock
 1176              	.LVL85:
 765:Core/Src/bootloader.c ****     
 766:Core/Src/bootloader.c ****     return ERR_NONE;
 1177              		.loc 1 766 5 view .LVU351
 1178              	.L90:
 767:Core/Src/bootloader.c **** }
 1179              		.loc 1 767 1 is_stmt 0 view .LVU352
 1180 003c 2046     		mov	r0, r4
 1181 003e 08B0     		add	sp, sp, #32
 1182              		.cfi_remember_state
 1183              		.cfi_def_cfa_offset 8
 1184              		@ sp needed
 1185 0040 10BD     		pop	{r4, pc}
 1186              	.LVL86:
 1187              	.L93:
 1188              		.cfi_restore_state
 749:Core/Src/bootloader.c ****         return ERR_FLASH_ERASE_FAILED;
 1189              		.loc 1 749 9 is_stmt 1 view .LVU353
 1190 0042 FFF7FEFF 		bl	HAL_FLASH_Lock
 1191              	.LVL87:
 750:Core/Src/bootloader.c ****     }
 1192              		.loc 1 750 9 view .LVU354
 750:Core/Src/bootloader.c ****     }
 1193              		.loc 1 750 16 is_stmt 0 view .LVU355
 1194 0046 0324     		movs	r4, #3
 1195 0048 F8E7     		b	.L90
 1196              	.LVL88:
 1197              	.L94:
 759:Core/Src/bootloader.c ****         return ERR_FLASH_WRITE_FAILED;
 1198              		.loc 1 759 9 is_stmt 1 view .LVU356
 1199 004a FFF7FEFF 		bl	HAL_FLASH_Lock
 1200              	.LVL89:
 760:Core/Src/bootloader.c ****     }
 1201              		.loc 1 760 9 view .LVU357
 760:Core/Src/bootloader.c ****     }
ARM GAS  C:\Users\Ali\AppData\Local\Temp\cc6fRbWg.s 			page 47


 1202              		.loc 1 760 16 is_stmt 0 view .LVU358
 1203 004e 0424     		movs	r4, #4
 1204              	.LVL90:
 760:Core/Src/bootloader.c ****     }
 1205              		.loc 1 760 16 view .LVU359
 1206 0050 F4E7     		b	.L90
 1207              	.L96:
 1208 0052 00BFAFF3 		.align	3
 1208      0080
 1209              	.L95:
 1210 0058 EFBEADDE 		.word	-559038737
 1211 005c 10415221 		.word	559038736
 1212 0060 EFBEADDE 		.word	-559038737
 1213 0064 10415221 		.word	559038736
 1214 0068 F87F0008 		.word	134250488
 1215              		.cfi_endproc
 1216              	.LFE146:
 1218              		.section	.text.Bootloader_CheckApplicationValidFlag,"ax",%progbits
 1219              		.align	1
 1220              		.global	Bootloader_CheckApplicationValidFlag
 1221              		.syntax unified
 1222              		.thumb
 1223              		.thumb_func
 1225              	Bootloader_CheckApplicationValidFlag:
 1226              	.LFB147:
 768:Core/Src/bootloader.c **** 
 769:Core/Src/bootloader.c **** /**
 770:Core/Src/bootloader.c ****   * @brief  Check if application valid flag is set
 771:Core/Src/bootloader.c ****   * @retval 1 if valid, 0 if not valid
 772:Core/Src/bootloader.c ****   */
 773:Core/Src/bootloader.c **** uint8_t Bootloader_CheckApplicationValidFlag(void)
 774:Core/Src/bootloader.c **** {
 1227              		.loc 1 774 1 is_stmt 1 view -0
 1228              		.cfi_startproc
 1229              		@ args = 0, pretend = 0, frame = 0
 1230              		@ frame_needed = 0, uses_anonymous_args = 0
 1231              		@ link register save eliminated.
 775:Core/Src/bootloader.c ****     uint32_t *flag_ptr = (uint32_t *)APP_VALID_FLAG_ADDRESS;
 1232              		.loc 1 775 5 view .LVU361
 1233              	.LVL91:
 776:Core/Src/bootloader.c ****     
 777:Core/Src/bootloader.c ****     /* Check if both magic number and complement are present */
 778:Core/Src/bootloader.c ****     if (flag_ptr[0] == APP_VALID_MAGIC_NUMBER && 
 1234              		.loc 1 778 5 view .LVU362
 1235              		.loc 1 778 17 is_stmt 0 view .LVU363
 1236 0000 084B     		ldr	r3, .L102
 1237 0002 D3F8F82F 		ldr	r2, [r3, #4088]
 1238              		.loc 1 778 8 view .LVU364
 1239 0006 084B     		ldr	r3, .L102+4
 1240 0008 9A42     		cmp	r2, r3
 1241 000a 01D0     		beq	.L101
 779:Core/Src/bootloader.c ****         flag_ptr[1] == APP_VALID_FLAG_COMPLEMENT)
 780:Core/Src/bootloader.c ****     {
 781:Core/Src/bootloader.c ****         return 1;  /* Valid flag found */
 782:Core/Src/bootloader.c ****     }
 783:Core/Src/bootloader.c ****     
 784:Core/Src/bootloader.c ****     return 0;  /* No valid flag */
ARM GAS  C:\Users\Ali\AppData\Local\Temp\cc6fRbWg.s 			page 48


 1242              		.loc 1 784 12 view .LVU365
 1243 000c 0020     		movs	r0, #0
 1244 000e 7047     		bx	lr
 1245              	.L101:
 779:Core/Src/bootloader.c ****         flag_ptr[1] == APP_VALID_FLAG_COMPLEMENT)
 1246              		.loc 1 779 17 view .LVU366
 1247 0010 044B     		ldr	r3, .L102
 1248 0012 D3F8FC2F 		ldr	r2, [r3, #4092]
 778:Core/Src/bootloader.c ****         flag_ptr[1] == APP_VALID_FLAG_COMPLEMENT)
 1249              		.loc 1 778 47 discriminator 1 view .LVU367
 1250 0016 054B     		ldr	r3, .L102+8
 1251 0018 9A42     		cmp	r2, r3
 1252 001a 01D0     		beq	.L100
 1253              		.loc 1 784 12 view .LVU368
 1254 001c 0020     		movs	r0, #0
 1255 001e 7047     		bx	lr
 1256              	.L100:
 781:Core/Src/bootloader.c ****     }
 1257              		.loc 1 781 16 view .LVU369
 1258 0020 0120     		movs	r0, #1
 785:Core/Src/bootloader.c **** }
 1259              		.loc 1 785 1 view .LVU370
 1260 0022 7047     		bx	lr
 1261              	.L103:
 1262              		.align	2
 1263              	.L102:
 1264 0024 00700008 		.word	134246400
 1265 0028 EFBEADDE 		.word	-559038737
 1266 002c 10415221 		.word	559038736
 1267              		.cfi_endproc
 1268              	.LFE147:
 1270              		.section	.text.Bootloader_Main,"ax",%progbits
 1271              		.align	1
 1272              		.global	Bootloader_Main
 1273              		.syntax unified
 1274              		.thumb
 1275              		.thumb_func
 1277              	Bootloader_Main:
 1278              	.LFB134:
 113:Core/Src/bootloader.c ****     uint32_t timeout_start = HAL_GetTick();
 1279              		.loc 1 113 1 is_stmt 1 view -0
 1280              		.cfi_startproc
 1281              		@ args = 0, pretend = 0, frame = 0
 1282              		@ frame_needed = 0, uses_anonymous_args = 0
 1283 0000 70B5     		push	{r4, r5, r6, lr}
 1284              		.cfi_def_cfa_offset 16
 1285              		.cfi_offset 4, -16
 1286              		.cfi_offset 5, -12
 1287              		.cfi_offset 6, -8
 1288              		.cfi_offset 14, -4
 114:Core/Src/bootloader.c ****     uint32_t last_heartbeat = HAL_GetTick();
 1289              		.loc 1 114 5 view .LVU372
 114:Core/Src/bootloader.c ****     uint32_t last_heartbeat = HAL_GetTick();
 1290              		.loc 1 114 30 is_stmt 0 view .LVU373
 1291 0002 FFF7FEFF 		bl	HAL_GetTick
 1292              	.LVL92:
 1293 0006 0546     		mov	r5, r0
ARM GAS  C:\Users\Ali\AppData\Local\Temp\cc6fRbWg.s 			page 49


 1294              	.LVL93:
 115:Core/Src/bootloader.c ****     uint8_t timeout_expired = 0;
 1295              		.loc 1 115 5 is_stmt 1 view .LVU374
 115:Core/Src/bootloader.c ****     uint8_t timeout_expired = 0;
 1296              		.loc 1 115 31 is_stmt 0 view .LVU375
 1297 0008 FFF7FEFF 		bl	HAL_GetTick
 1298              	.LVL94:
 116:Core/Src/bootloader.c ****     
 1299              		.loc 1 116 5 is_stmt 1 view .LVU376
 119:Core/Src/bootloader.c ****     
 1300              		.loc 1 119 5 view .LVU377
 119:Core/Src/bootloader.c ****     
 1301              		.loc 1 119 25 is_stmt 0 view .LVU378
 1302 000c 314B     		ldr	r3, .L113
 1303 000e 1860     		str	r0, [r3]
 122:Core/Src/bootloader.c ****     tx_data[1] = 0x01;  /* Bootloader version */
 1304              		.loc 1 122 5 is_stmt 1 view .LVU379
 122:Core/Src/bootloader.c ****     tx_data[1] = 0x01;  /* Bootloader version */
 1305              		.loc 1 122 16 is_stmt 0 view .LVU380
 1306 0010 3149     		ldr	r1, .L113+4
 1307 0012 1420     		movs	r0, #20
 1308              	.LVL95:
 122:Core/Src/bootloader.c ****     tx_data[1] = 0x01;  /* Bootloader version */
 1309              		.loc 1 122 16 view .LVU381
 1310 0014 0870     		strb	r0, [r1]
 123:Core/Src/bootloader.c ****     tx_data[2] = 0x00;  /* Bootloader subversion */
 1311              		.loc 1 123 5 is_stmt 1 view .LVU382
 123:Core/Src/bootloader.c ****     tx_data[2] = 0x00;  /* Bootloader subversion */
 1312              		.loc 1 123 16 is_stmt 0 view .LVU383
 1313 0016 0123     		movs	r3, #1
 123:Core/Src/bootloader.c ****     tx_data[2] = 0x00;  /* Bootloader subversion */
 1314              		.loc 1 123 16 view .LVU384
 1315 0018 4B70     		strb	r3, [r1, #1]
 124:Core/Src/bootloader.c ****     Bootloader_SendCANMessage(RESP_READY, tx_data, 3);
 1316              		.loc 1 124 5 is_stmt 1 view .LVU385
 124:Core/Src/bootloader.c ****     Bootloader_SendCANMessage(RESP_READY, tx_data, 3);
 1317              		.loc 1 124 16 is_stmt 0 view .LVU386
 1318 001a 0024     		movs	r4, #0
 1319 001c 8C70     		strb	r4, [r1, #2]
 125:Core/Src/bootloader.c ****     
 1320              		.loc 1 125 5 is_stmt 1 view .LVU387
 1321 001e 0322     		movs	r2, #3
 1322 0020 FFF7FEFF 		bl	Bootloader_SendCANMessage
 1323              	.LVL96:
 125:Core/Src/bootloader.c ****     
 1324              		.loc 1 125 5 is_stmt 0 view .LVU388
 1325 0024 3CE0     		b	.L108
 1326              	.LVL97:
 1327              	.L111:
 135:Core/Src/bootloader.c ****         {
 1328              		.loc 1 135 14 view .LVU389
 1329 0026 FFF7FEFF 		bl	HAL_GetTick
 1330              	.LVL98:
 135:Core/Src/bootloader.c ****         {
 1331              		.loc 1 135 28 discriminator 1 view .LVU390
 1332 002a 801B     		subs	r0, r0, r6
 134:Core/Src/bootloader.c ****             (HAL_GetTick() - last_heartbeat) >= HEARTBEAT_INTERVAL_MS)
ARM GAS  C:\Users\Ali\AppData\Local\Temp\cc6fRbWg.s 			page 50


 1333              		.loc 1 134 54 discriminator 1 view .LVU391
 1334 002c B0F57A7F 		cmp	r0, #1000
 1335 0030 3CD3     		bcc	.L105
 138:Core/Src/bootloader.c ****             tx_data[1] = 0x01;  /* Bootloader version */
 1336              		.loc 1 138 13 is_stmt 1 view .LVU392
 138:Core/Src/bootloader.c ****             tx_data[1] = 0x01;  /* Bootloader version */
 1337              		.loc 1 138 24 is_stmt 0 view .LVU393
 1338 0032 2949     		ldr	r1, .L113+4
 1339 0034 1420     		movs	r0, #20
 1340 0036 0870     		strb	r0, [r1]
 139:Core/Src/bootloader.c ****             tx_data[2] = 0x00;  /* Bootloader subversion */
 1341              		.loc 1 139 13 is_stmt 1 view .LVU394
 139:Core/Src/bootloader.c ****             tx_data[2] = 0x00;  /* Bootloader subversion */
 1342              		.loc 1 139 24 is_stmt 0 view .LVU395
 1343 0038 0123     		movs	r3, #1
 1344 003a 4B70     		strb	r3, [r1, #1]
 140:Core/Src/bootloader.c ****             Bootloader_SendCANMessage(RESP_READY, tx_data, 3);
 1345              		.loc 1 140 13 is_stmt 1 view .LVU396
 140:Core/Src/bootloader.c ****             Bootloader_SendCANMessage(RESP_READY, tx_data, 3);
 1346              		.loc 1 140 24 is_stmt 0 view .LVU397
 1347 003c 0023     		movs	r3, #0
 1348 003e 8B70     		strb	r3, [r1, #2]
 141:Core/Src/bootloader.c ****             last_heartbeat = HAL_GetTick();
 1349              		.loc 1 141 13 is_stmt 1 view .LVU398
 1350 0040 0322     		movs	r2, #3
 1351 0042 FFF7FEFF 		bl	Bootloader_SendCANMessage
 1352              	.LVL99:
 142:Core/Src/bootloader.c ****             last_heartbeat_time = last_heartbeat;  /* Update static variable */
 1353              		.loc 1 142 13 view .LVU399
 142:Core/Src/bootloader.c ****             last_heartbeat_time = last_heartbeat;  /* Update static variable */
 1354              		.loc 1 142 30 is_stmt 0 view .LVU400
 1355 0046 FFF7FEFF 		bl	HAL_GetTick
 1356              	.LVL100:
 143:Core/Src/bootloader.c ****         }
 1357              		.loc 1 143 13 is_stmt 1 view .LVU401
 143:Core/Src/bootloader.c ****         }
 1358              		.loc 1 143 33 is_stmt 0 view .LVU402
 1359 004a 224B     		ldr	r3, .L113
 1360 004c 1860     		str	r0, [r3]
 1361 004e 2DE0     		b	.L105
 1362              	.LVL101:
 1363              	.L112:
 157:Core/Src/bootloader.c ****                 tx_data[1] = 0xAA;  /* Special: Timeout auto-jump */
 1364              		.loc 1 157 17 is_stmt 1 view .LVU403
 157:Core/Src/bootloader.c ****                 tx_data[1] = 0xAA;  /* Special: Timeout auto-jump */
 1365              		.loc 1 157 28 is_stmt 0 view .LVU404
 1366 0050 2149     		ldr	r1, .L113+4
 1367 0052 1420     		movs	r0, #20
 1368 0054 0870     		strb	r0, [r1]
 158:Core/Src/bootloader.c ****                 tx_data[2] = 0x55;
 1369              		.loc 1 158 17 is_stmt 1 view .LVU405
 158:Core/Src/bootloader.c ****                 tx_data[2] = 0x55;
 1370              		.loc 1 158 28 is_stmt 0 view .LVU406
 1371 0056 AA23     		movs	r3, #170
 1372 0058 4B70     		strb	r3, [r1, #1]
 159:Core/Src/bootloader.c ****                 Bootloader_SendCANMessage(RESP_READY, tx_data, 3);
 1373              		.loc 1 159 17 is_stmt 1 view .LVU407
ARM GAS  C:\Users\Ali\AppData\Local\Temp\cc6fRbWg.s 			page 51


 159:Core/Src/bootloader.c ****                 Bootloader_SendCANMessage(RESP_READY, tx_data, 3);
 1374              		.loc 1 159 28 is_stmt 0 view .LVU408
 1375 005a 5523     		movs	r3, #85
 1376 005c 8B70     		strb	r3, [r1, #2]
 160:Core/Src/bootloader.c **** 
 1377              		.loc 1 160 17 is_stmt 1 view .LVU409
 1378 005e 0322     		movs	r2, #3
 1379 0060 FFF7FEFF 		bl	Bootloader_SendCANMessage
 1380              	.LVL102:
 163:Core/Src/bootloader.c ****                 HAL_Delay(10);
 1381              		.loc 1 163 17 view .LVU410
 1382 0064 FFF7FEFF 		bl	Bootloader_WaitForCANTransmission
 1383              	.LVL103:
 164:Core/Src/bootloader.c **** 
 1384              		.loc 1 164 17 view .LVU411
 1385 0068 0A20     		movs	r0, #10
 1386 006a FFF7FEFF 		bl	HAL_Delay
 1387              	.LVL104:
 167:Core/Src/bootloader.c ****             }
 1388              		.loc 1 167 17 view .LVU412
 1389 006e FFF7FEFF 		bl	Bootloader_JumpToApplication
 1390              	.LVL105:
 151:Core/Src/bootloader.c **** 
 1391              		.loc 1 151 29 is_stmt 0 view .LVU413
 1392 0072 0124     		movs	r4, #1
 1393              	.LVL106:
 1394              	.L106:
 173:Core/Src/bootloader.c ****         {
 1395              		.loc 1 173 9 is_stmt 1 view .LVU414
 173:Core/Src/bootloader.c ****         {
 1396              		.loc 1 173 13 is_stmt 0 view .LVU415
 1397 0074 194B     		ldr	r3, .L113+8
 1398 0076 1B78     		ldrb	r3, [r3]	@ zero_extendqisi2
 173:Core/Src/bootloader.c ****         {
 1399              		.loc 1 173 12 view .LVU416
 1400 0078 7BB1     		cbz	r3, .L107
 176:Core/Src/bootloader.c ****             tx_data[1] = 0xFF;  /* Special: About to jump */
 1401              		.loc 1 176 13 is_stmt 1 view .LVU417
 176:Core/Src/bootloader.c ****             tx_data[1] = 0xFF;  /* Special: About to jump */
 1402              		.loc 1 176 24 is_stmt 0 view .LVU418
 1403 007a 1749     		ldr	r1, .L113+4
 1404 007c 1420     		movs	r0, #20
 1405 007e 0870     		strb	r0, [r1]
 177:Core/Src/bootloader.c ****             tx_data[2] = 0xFF;
 1406              		.loc 1 177 13 is_stmt 1 view .LVU419
 177:Core/Src/bootloader.c ****             tx_data[2] = 0xFF;
 1407              		.loc 1 177 24 is_stmt 0 view .LVU420
 1408 0080 FF23     		movs	r3, #255
 1409 0082 4B70     		strb	r3, [r1, #1]
 178:Core/Src/bootloader.c ****             Bootloader_SendCANMessage(RESP_READY, tx_data, 3);
 1410              		.loc 1 178 13 is_stmt 1 view .LVU421
 178:Core/Src/bootloader.c ****             Bootloader_SendCANMessage(RESP_READY, tx_data, 3);
 1411              		.loc 1 178 24 is_stmt 0 view .LVU422
 1412 0084 8B70     		strb	r3, [r1, #2]
 179:Core/Src/bootloader.c ****             
 1413              		.loc 1 179 13 is_stmt 1 view .LVU423
 1414 0086 0322     		movs	r2, #3
ARM GAS  C:\Users\Ali\AppData\Local\Temp\cc6fRbWg.s 			page 52


 1415 0088 FFF7FEFF 		bl	Bootloader_SendCANMessage
 1416              	.LVL107:
 182:Core/Src/bootloader.c ****             
 1417              		.loc 1 182 13 view .LVU424
 1418 008c FFF7FEFF 		bl	Bootloader_WaitForCANTransmission
 1419              	.LVL108:
 185:Core/Src/bootloader.c ****             
 1420              		.loc 1 185 13 view .LVU425
 1421 0090 FFF7FEFF 		bl	Bootloader_JumpToApplication
 1422              	.LVL109:
 188:Core/Src/bootloader.c ****         }
 1423              		.loc 1 188 13 view .LVU426
 188:Core/Src/bootloader.c ****         }
 1424              		.loc 1 188 30 is_stmt 0 view .LVU427
 1425 0094 114B     		ldr	r3, .L113+8
 1426 0096 0022     		movs	r2, #0
 1427 0098 1A70     		strb	r2, [r3]
 1428              	.L107:
 192:Core/Src/bootloader.c ****     }
 1429              		.loc 1 192 9 is_stmt 1 view .LVU428
 1430 009a 0120     		movs	r0, #1
 1431 009c FFF7FEFF 		bl	HAL_Delay
 1432              	.LVL110:
 128:Core/Src/bootloader.c ****     {
 1433              		.loc 1 128 11 view .LVU429
 1434              	.L108:
 128:Core/Src/bootloader.c ****     {
 1435              		.loc 1 128 5 view .LVU430
 131:Core/Src/bootloader.c ****         
 1436              		.loc 1 131 9 view .LVU431
 131:Core/Src/bootloader.c ****         
 1437              		.loc 1 131 24 is_stmt 0 view .LVU432
 1438 00a0 0C4B     		ldr	r3, .L113
 1439 00a2 1E68     		ldr	r6, [r3]
 1440              	.LVL111:
 134:Core/Src/bootloader.c ****             (HAL_GetTick() - last_heartbeat) >= HEARTBEAT_INTERVAL_MS)
 1441              		.loc 1 134 9 is_stmt 1 view .LVU433
 134:Core/Src/bootloader.c ****             (HAL_GetTick() - last_heartbeat) >= HEARTBEAT_INTERVAL_MS)
 1442              		.loc 1 134 30 is_stmt 0 view .LVU434
 1443 00a4 0E4B     		ldr	r3, .L113+12
 1444 00a6 1B78     		ldrb	r3, [r3]	@ zero_extendqisi2
 134:Core/Src/bootloader.c ****             (HAL_GetTick() - last_heartbeat) >= HEARTBEAT_INTERVAL_MS)
 1445              		.loc 1 134 12 view .LVU435
 1446 00a8 002B     		cmp	r3, #0
 1447 00aa BCD0     		beq	.L111
 1448              	.LVL112:
 1449              	.L105:
 148:Core/Src/bootloader.c ****             (HAL_GetTick() - timeout_start >= BOOTLOADER_TIMEOUT_MS))
 1450              		.loc 1 148 9 is_stmt 1 view .LVU436
 148:Core/Src/bootloader.c ****             (HAL_GetTick() - timeout_start >= BOOTLOADER_TIMEOUT_MS))
 1451              		.loc 1 148 12 is_stmt 0 view .LVU437
 1452 00ac 002C     		cmp	r4, #0
 1453 00ae E1D1     		bne	.L106
 148:Core/Src/bootloader.c ****             (HAL_GetTick() - timeout_start >= BOOTLOADER_TIMEOUT_MS))
 1454              		.loc 1 148 33 discriminator 1 view .LVU438
 1455 00b0 0C4B     		ldr	r3, .L113+16
 1456 00b2 1B78     		ldrb	r3, [r3]	@ zero_extendqisi2
ARM GAS  C:\Users\Ali\AppData\Local\Temp\cc6fRbWg.s 			page 53


 148:Core/Src/bootloader.c ****             (HAL_GetTick() - timeout_start >= BOOTLOADER_TIMEOUT_MS))
 1457              		.loc 1 148 30 discriminator 1 view .LVU439
 1458 00b4 002B     		cmp	r3, #0
 1459 00b6 DDD1     		bne	.L106
 149:Core/Src/bootloader.c ****         {
 1460              		.loc 1 149 14 view .LVU440
 1461 00b8 FFF7FEFF 		bl	HAL_GetTick
 1462              	.LVL113:
 149:Core/Src/bootloader.c ****         {
 1463              		.loc 1 149 28 discriminator 1 view .LVU441
 1464 00bc 401B     		subs	r0, r0, r5
 148:Core/Src/bootloader.c ****             (HAL_GetTick() - timeout_start >= BOOTLOADER_TIMEOUT_MS))
 1465              		.loc 1 148 55 discriminator 2 view .LVU442
 1466 00be 42F20F73 		movw	r3, #9999
 1467 00c2 9842     		cmp	r0, r3
 1468 00c4 D6D9     		bls	.L106
 151:Core/Src/bootloader.c **** 
 1469              		.loc 1 151 13 is_stmt 1 view .LVU443
 1470              	.LVL114:
 154:Core/Src/bootloader.c ****             {
 1471              		.loc 1 154 13 view .LVU444
 154:Core/Src/bootloader.c ****             {
 1472              		.loc 1 154 17 is_stmt 0 view .LVU445
 1473 00c6 FFF7FEFF 		bl	Bootloader_CheckApplicationValidFlag
 1474              	.LVL115:
 154:Core/Src/bootloader.c ****             {
 1475              		.loc 1 154 16 discriminator 1 view .LVU446
 1476 00ca 0028     		cmp	r0, #0
 1477 00cc C0D1     		bne	.L112
 151:Core/Src/bootloader.c **** 
 1478              		.loc 1 151 29 view .LVU447
 1479 00ce 0124     		movs	r4, #1
 1480 00d0 D0E7     		b	.L106
 1481              	.L114:
 1482 00d2 00BF     		.align	2
 1483              	.L113:
 1484 00d4 00000000 		.word	last_heartbeat_time
 1485 00d8 00000000 		.word	tx_data
 1486 00dc 00000000 		.word	jump_to_app_flag
 1487 00e0 00000000 		.word	bootloader_status
 1488 00e4 00000000 		.word	can_command_received
 1489              		.cfi_endproc
 1490              	.LFE134:
 1492              		.section	.text.Bootloader_ClearApplicationValidFlag,"ax",%progbits
 1493              		.align	1
 1494              		.global	Bootloader_ClearApplicationValidFlag
 1495              		.syntax unified
 1496              		.thumb
 1497              		.thumb_func
 1499              	Bootloader_ClearApplicationValidFlag:
 1500              	.LFB148:
 786:Core/Src/bootloader.c **** 
 787:Core/Src/bootloader.c **** /**
 788:Core/Src/bootloader.c ****   * @brief  Clear application valid flag
 789:Core/Src/bootloader.c ****   * @retval None
 790:Core/Src/bootloader.c ****   */
 791:Core/Src/bootloader.c **** void Bootloader_ClearApplicationValidFlag(void)
ARM GAS  C:\Users\Ali\AppData\Local\Temp\cc6fRbWg.s 			page 54


 792:Core/Src/bootloader.c **** {
 1501              		.loc 1 792 1 is_stmt 1 view -0
 1502              		.cfi_startproc
 1503              		@ args = 0, pretend = 0, frame = 24
 1504              		@ frame_needed = 0, uses_anonymous_args = 0
 1505 0000 00B5     		push	{lr}
 1506              		.cfi_def_cfa_offset 4
 1507              		.cfi_offset 14, -4
 1508 0002 87B0     		sub	sp, sp, #28
 1509              		.cfi_def_cfa_offset 32
 793:Core/Src/bootloader.c ****     HAL_StatusTypeDef status;
 1510              		.loc 1 793 5 view .LVU449
 794:Core/Src/bootloader.c ****     FLASH_EraseInitTypeDef erase_init;
 1511              		.loc 1 794 5 view .LVU450
 795:Core/Src/bootloader.c ****     uint32_t page_error;
 1512              		.loc 1 795 5 view .LVU451
 796:Core/Src/bootloader.c ****     
 797:Core/Src/bootloader.c ****     /* Unlock flash */
 798:Core/Src/bootloader.c ****     HAL_FLASH_Unlock();
 1513              		.loc 1 798 5 view .LVU452
 1514 0004 FFF7FEFF 		bl	HAL_FLASH_Unlock
 1515              	.LVL116:
 799:Core/Src/bootloader.c ****     
 800:Core/Src/bootloader.c ****     /* Erase the page containing the flag */
 801:Core/Src/bootloader.c ****     erase_init.TypeErase = FLASH_TYPEERASE_PAGES;
 1516              		.loc 1 801 5 view .LVU453
 1517              		.loc 1 801 26 is_stmt 0 view .LVU454
 1518 0008 0023     		movs	r3, #0
 1519 000a 0293     		str	r3, [sp, #8]
 802:Core/Src/bootloader.c ****     erase_init.Page = 63;  /* Last page of bootloader area */
 1520              		.loc 1 802 5 is_stmt 1 view .LVU455
 1521              		.loc 1 802 21 is_stmt 0 view .LVU456
 1522 000c 3F23     		movs	r3, #63
 1523 000e 0493     		str	r3, [sp, #16]
 803:Core/Src/bootloader.c ****     erase_init.NbPages = 1;
 1524              		.loc 1 803 5 is_stmt 1 view .LVU457
 1525              		.loc 1 803 24 is_stmt 0 view .LVU458
 1526 0010 0123     		movs	r3, #1
 1527 0012 0593     		str	r3, [sp, #20]
 804:Core/Src/bootloader.c ****     
 805:Core/Src/bootloader.c ****     status = HAL_FLASHEx_Erase(&erase_init, &page_error);
 1528              		.loc 1 805 5 is_stmt 1 view .LVU459
 1529              		.loc 1 805 14 is_stmt 0 view .LVU460
 1530 0014 01A9     		add	r1, sp, #4
 1531 0016 02A8     		add	r0, sp, #8
 1532 0018 FFF7FEFF 		bl	HAL_FLASHEx_Erase
 1533              	.LVL117:
 806:Core/Src/bootloader.c ****     
 807:Core/Src/bootloader.c ****     /* Lock flash */
 808:Core/Src/bootloader.c ****     HAL_FLASH_Lock();
 1534              		.loc 1 808 5 is_stmt 1 view .LVU461
 1535 001c FFF7FEFF 		bl	HAL_FLASH_Lock
 1536              	.LVL118:
 809:Core/Src/bootloader.c **** }
 1537              		.loc 1 809 1 is_stmt 0 view .LVU462
 1538 0020 07B0     		add	sp, sp, #28
 1539              		.cfi_def_cfa_offset 4
ARM GAS  C:\Users\Ali\AppData\Local\Temp\cc6fRbWg.s 			page 55


 1540              		@ sp needed
 1541 0022 5DF804FB 		ldr	pc, [sp], #4
 1542              		.cfi_endproc
 1543              	.LFE148:
 1545              		.section	.text.Bootloader_ProcessCANMessage,"ax",%progbits
 1546              		.align	1
 1547              		.global	Bootloader_ProcessCANMessage
 1548              		.syntax unified
 1549              		.thumb
 1550              		.thumb_func
 1552              	Bootloader_ProcessCANMessage:
 1553              	.LFB135:
 201:Core/Src/bootloader.c ****     uint8_t command;
 1554              		.loc 1 201 1 is_stmt 1 view -0
 1555              		.cfi_startproc
 1556              		@ args = 0, pretend = 0, frame = 0
 1557              		@ frame_needed = 0, uses_anonymous_args = 0
 1558 0000 10B5     		push	{r4, lr}
 1559              		.cfi_def_cfa_offset 8
 1560              		.cfi_offset 4, -8
 1561              		.cfi_offset 14, -4
 202:Core/Src/bootloader.c ****     uint32_t address;
 1562              		.loc 1 202 5 view .LVU464
 203:Core/Src/bootloader.c ****     uint16_t length;
 1563              		.loc 1 203 5 view .LVU465
 204:Core/Src/bootloader.c ****     uint8_t result;
 1564              		.loc 1 204 5 view .LVU466
 205:Core/Src/bootloader.c ****     static uint32_t *last_heartbeat_ptr = NULL;
 1565              		.loc 1 205 5 view .LVU467
 206:Core/Src/bootloader.c **** 
 1566              		.loc 1 206 5 view .LVU468
 209:Core/Src/bootloader.c ****     
 1567              		.loc 1 209 5 view .LVU469
 209:Core/Src/bootloader.c ****     
 1568              		.loc 1 209 26 is_stmt 0 view .LVU470
 1569 0002 884B     		ldr	r3, .L148
 1570 0004 0122     		movs	r2, #1
 1571 0006 1A70     		strb	r2, [r3]
 212:Core/Src/bootloader.c **** 
 1572              		.loc 1 212 5 is_stmt 1 view .LVU471
 212:Core/Src/bootloader.c **** 
 1573              		.loc 1 212 27 is_stmt 0 view .LVU472
 1574 0008 FFF7FEFF 		bl	HAL_GetTick
 1575              	.LVL119:
 212:Core/Src/bootloader.c **** 
 1576              		.loc 1 212 25 discriminator 1 view .LVU473
 1577 000c 864B     		ldr	r3, .L148+4
 1578 000e 1860     		str	r0, [r3]
 215:Core/Src/bootloader.c **** 
 1579              		.loc 1 215 5 is_stmt 1 view .LVU474
 215:Core/Src/bootloader.c **** 
 1580              		.loc 1 215 13 is_stmt 0 view .LVU475
 1581 0010 864B     		ldr	r3, .L148+8
 1582 0012 1B78     		ldrb	r3, [r3]	@ zero_extendqisi2
 1583              	.LVL120:
 217:Core/Src/bootloader.c ****     {
 1584              		.loc 1 217 5 is_stmt 1 view .LVU476
ARM GAS  C:\Users\Ali\AppData\Local\Temp\cc6fRbWg.s 			page 56


 1585 0014 013B     		subs	r3, r3, #1
 1586 0016 062B     		cmp	r3, #6
 1587 0018 00F20081 		bhi	.L118
 1588 001c DFE813F0 		tbh	[pc, r3, lsl #1]
 1589              	.L120:
 1590 0020 1B00     		.2byte	(.L126-.L120)/2
 1591 0022 9400     		.2byte	(.L125-.L120)/2
 1592 0024 BB00     		.2byte	(.L124-.L120)/2
 1593 0026 EC00     		.2byte	(.L123-.L120)/2
 1594 0028 0700     		.2byte	(.L122-.L120)/2
 1595 002a 3100     		.2byte	(.L121-.L120)/2
 1596 002c 4F00     		.2byte	(.L119-.L120)/2
 1597              		.p2align 1
 1598              	.L122:
 221:Core/Src/bootloader.c ****             tx_data[1] = bootloader_status.state;
 1599              		.loc 1 221 13 view .LVU477
 221:Core/Src/bootloader.c ****             tx_data[1] = bootloader_status.state;
 1600              		.loc 1 221 24 is_stmt 0 view .LVU478
 1601 002e 8049     		ldr	r1, .L148+12
 1602 0030 1520     		movs	r0, #21
 1603 0032 0870     		strb	r0, [r1]
 222:Core/Src/bootloader.c ****             tx_data[2] = bootloader_status.last_error;
 1604              		.loc 1 222 13 is_stmt 1 view .LVU479
 222:Core/Src/bootloader.c ****             tx_data[2] = bootloader_status.last_error;
 1605              		.loc 1 222 43 is_stmt 0 view .LVU480
 1606 0034 7F4B     		ldr	r3, .L148+16
 1607 0036 1A78     		ldrb	r2, [r3]	@ zero_extendqisi2
 222:Core/Src/bootloader.c ****             tx_data[2] = bootloader_status.last_error;
 1608              		.loc 1 222 24 view .LVU481
 1609 0038 4A70     		strb	r2, [r1, #1]
 223:Core/Src/bootloader.c ****             tx_data[3] = (bootloader_status.bytes_written >> 24) & 0xFF;
 1610              		.loc 1 223 13 is_stmt 1 view .LVU482
 223:Core/Src/bootloader.c ****             tx_data[3] = (bootloader_status.bytes_written >> 24) & 0xFF;
 1611              		.loc 1 223 43 is_stmt 0 view .LVU483
 1612 003a 1A7C     		ldrb	r2, [r3, #16]	@ zero_extendqisi2
 223:Core/Src/bootloader.c ****             tx_data[3] = (bootloader_status.bytes_written >> 24) & 0xFF;
 1613              		.loc 1 223 24 view .LVU484
 1614 003c 8A70     		strb	r2, [r1, #2]
 224:Core/Src/bootloader.c ****             tx_data[4] = (bootloader_status.bytes_written >> 16) & 0xFF;
 1615              		.loc 1 224 13 is_stmt 1 view .LVU485
 224:Core/Src/bootloader.c ****             tx_data[4] = (bootloader_status.bytes_written >> 16) & 0xFF;
 1616              		.loc 1 224 44 is_stmt 0 view .LVU486
 1617 003e 9B68     		ldr	r3, [r3, #8]
 224:Core/Src/bootloader.c ****             tx_data[4] = (bootloader_status.bytes_written >> 16) & 0xFF;
 1618              		.loc 1 224 59 view .LVU487
 1619 0040 1A0E     		lsrs	r2, r3, #24
 224:Core/Src/bootloader.c ****             tx_data[4] = (bootloader_status.bytes_written >> 16) & 0xFF;
 1620              		.loc 1 224 24 view .LVU488
 1621 0042 CA70     		strb	r2, [r1, #3]
 225:Core/Src/bootloader.c ****             tx_data[5] = (bootloader_status.bytes_written >> 8) & 0xFF;
 1622              		.loc 1 225 13 is_stmt 1 view .LVU489
 225:Core/Src/bootloader.c ****             tx_data[5] = (bootloader_status.bytes_written >> 8) & 0xFF;
 1623              		.loc 1 225 59 is_stmt 0 view .LVU490
 1624 0044 1A0C     		lsrs	r2, r3, #16
 225:Core/Src/bootloader.c ****             tx_data[5] = (bootloader_status.bytes_written >> 8) & 0xFF;
 1625              		.loc 1 225 24 view .LVU491
 1626 0046 0A71     		strb	r2, [r1, #4]
ARM GAS  C:\Users\Ali\AppData\Local\Temp\cc6fRbWg.s 			page 57


 226:Core/Src/bootloader.c ****             tx_data[6] = bootloader_status.bytes_written & 0xFF;
 1627              		.loc 1 226 13 is_stmt 1 view .LVU492
 226:Core/Src/bootloader.c ****             tx_data[6] = bootloader_status.bytes_written & 0xFF;
 1628              		.loc 1 226 59 is_stmt 0 view .LVU493
 1629 0048 1A0A     		lsrs	r2, r3, #8
 226:Core/Src/bootloader.c ****             tx_data[6] = bootloader_status.bytes_written & 0xFF;
 1630              		.loc 1 226 24 view .LVU494
 1631 004a 4A71     		strb	r2, [r1, #5]
 227:Core/Src/bootloader.c ****             Bootloader_SendCANMessage(RESP_DATA, tx_data, 8);
 1632              		.loc 1 227 13 is_stmt 1 view .LVU495
 227:Core/Src/bootloader.c ****             Bootloader_SendCANMessage(RESP_DATA, tx_data, 8);
 1633              		.loc 1 227 24 is_stmt 0 view .LVU496
 1634 004c 8B71     		strb	r3, [r1, #6]
 228:Core/Src/bootloader.c ****             break;
 1635              		.loc 1 228 13 is_stmt 1 view .LVU497
 1636 004e 0822     		movs	r2, #8
 1637 0050 FFF7FEFF 		bl	Bootloader_SendCANMessage
 1638              	.LVL121:
 229:Core/Src/bootloader.c ****             
 1639              		.loc 1 229 13 view .LVU498
 1640              	.L117:
 398:Core/Src/bootloader.c **** 
 1641              		.loc 1 398 1 is_stmt 0 view .LVU499
 1642 0054 10BD     		pop	{r4, pc}
 1643              	.LVL122:
 1644              	.L126:
 233:Core/Src/bootloader.c ****             
 1645              		.loc 1 233 13 is_stmt 1 view .LVU500
 233:Core/Src/bootloader.c ****             
 1646              		.loc 1 233 37 is_stmt 0 view .LVU501
 1647 0056 774B     		ldr	r3, .L148+16
 1648 0058 0122     		movs	r2, #1
 1649 005a 1A70     		strb	r2, [r3]
 236:Core/Src/bootloader.c ****             
 1650              		.loc 1 236 13 is_stmt 1 view .LVU502
 1651 005c FFF7FEFF 		bl	Bootloader_ClearApplicationValidFlag
 1652              	.LVL123:
 238:Core/Src/bootloader.c ****             if (result == ERR_NONE)
 1653              		.loc 1 238 13 view .LVU503
 238:Core/Src/bootloader.c ****             if (result == ERR_NONE)
 1654              		.loc 1 238 22 is_stmt 0 view .LVU504
 1655 0060 FFF7FEFF 		bl	Bootloader_EraseApplicationFlash
 1656              	.LVL124:
 239:Core/Src/bootloader.c ****             {
 1657              		.loc 1 239 13 is_stmt 1 view .LVU505
 239:Core/Src/bootloader.c ****             {
 1658              		.loc 1 239 16 is_stmt 0 view .LVU506
 1659 0064 50B9     		cbnz	r0, .L128
 241:Core/Src/bootloader.c ****                 bootloader_status.current_address = APPLICATION_ADDRESS;
 1660              		.loc 1 241 17 is_stmt 1 view .LVU507
 241:Core/Src/bootloader.c ****                 bootloader_status.current_address = APPLICATION_ADDRESS;
 1661              		.loc 1 241 49 is_stmt 0 view .LVU508
 1662 0066 734B     		ldr	r3, .L148+16
 1663 0068 0022     		movs	r2, #0
 1664 006a 9A60     		str	r2, [r3, #8]
 242:Core/Src/bootloader.c ****                 Bootloader_SendACK();
 1665              		.loc 1 242 17 is_stmt 1 view .LVU509
ARM GAS  C:\Users\Ali\AppData\Local\Temp\cc6fRbWg.s 			page 58


 242:Core/Src/bootloader.c ****                 Bootloader_SendACK();
 1666              		.loc 1 242 51 is_stmt 0 view .LVU510
 1667 006c 724A     		ldr	r2, .L148+20
 1668 006e 5A60     		str	r2, [r3, #4]
 243:Core/Src/bootloader.c ****             }
 1669              		.loc 1 243 17 is_stmt 1 view .LVU511
 1670 0070 FFF7FEFF 		bl	Bootloader_SendACK
 1671              	.LVL125:
 1672              	.L129:
 249:Core/Src/bootloader.c ****             break;
 1673              		.loc 1 249 13 view .LVU512
 249:Core/Src/bootloader.c ****             break;
 1674              		.loc 1 249 37 is_stmt 0 view .LVU513
 1675 0074 6F4B     		ldr	r3, .L148+16
 1676 0076 0022     		movs	r2, #0
 1677 0078 1A70     		strb	r2, [r3]
 250:Core/Src/bootloader.c ****             
 1678              		.loc 1 250 13 is_stmt 1 view .LVU514
 1679 007a EBE7     		b	.L117
 1680              	.LVL126:
 1681              	.L128:
 247:Core/Src/bootloader.c ****             }
 1682              		.loc 1 247 17 view .LVU515
 1683 007c FFF7FEFF 		bl	Bootloader_SendNACK
 1684              	.LVL127:
 247:Core/Src/bootloader.c ****             }
 1685              		.loc 1 247 17 is_stmt 0 view .LVU516
 1686 0080 F8E7     		b	.L129
 1687              	.LVL128:
 1688              	.L121:
 254:Core/Src/bootloader.c ****                      (rx_data[3] << 8) | rx_data[4];
 1689              		.loc 1 254 13 is_stmt 1 view .LVU517
 254:Core/Src/bootloader.c ****                      (rx_data[3] << 8) | rx_data[4];
 1690              		.loc 1 254 31 is_stmt 0 view .LVU518
 1691 0082 6A4A     		ldr	r2, .L148+8
 254:Core/Src/bootloader.c ****                      (rx_data[3] << 8) | rx_data[4];
 1692              		.loc 1 254 31 view .LVU519
 1693 0084 5178     		ldrb	r1, [r2, #1]	@ zero_extendqisi2
 254:Core/Src/bootloader.c ****                      (rx_data[3] << 8) | rx_data[4];
 1694              		.loc 1 254 52 view .LVU520
 1695 0086 9378     		ldrb	r3, [r2, #2]	@ zero_extendqisi2
 254:Core/Src/bootloader.c ****                      (rx_data[3] << 8) | rx_data[4];
 1696              		.loc 1 254 56 view .LVU521
 1697 0088 1B04     		lsls	r3, r3, #16
 254:Core/Src/bootloader.c ****                      (rx_data[3] << 8) | rx_data[4];
 1698              		.loc 1 254 42 view .LVU522
 1699 008a 43EA0163 		orr	r3, r3, r1, lsl #24
 255:Core/Src/bootloader.c **** 
 1700              		.loc 1 255 30 view .LVU523
 1701 008e D178     		ldrb	r1, [r2, #3]	@ zero_extendqisi2
 254:Core/Src/bootloader.c ****                      (rx_data[3] << 8) | rx_data[4];
 1702              		.loc 1 254 63 view .LVU524
 1703 0090 43EA0123 		orr	r3, r3, r1, lsl #8
 255:Core/Src/bootloader.c **** 
 1704              		.loc 1 255 49 view .LVU525
 1705 0094 1279     		ldrb	r2, [r2, #4]	@ zero_extendqisi2
 255:Core/Src/bootloader.c **** 
ARM GAS  C:\Users\Ali\AppData\Local\Temp\cc6fRbWg.s 			page 59


 1706              		.loc 1 255 40 view .LVU526
 1707 0096 1343     		orrs	r3, r3, r2
 1708              	.LVL129:
 258:Core/Src/bootloader.c ****             {
 1709              		.loc 1 258 13 is_stmt 1 view .LVU527
 258:Core/Src/bootloader.c ****             {
 1710              		.loc 1 258 48 is_stmt 0 view .LVU528
 1711 0098 03F17842 		add	r2, r3, #-134217728
 1712 009c A2F50042 		sub	r2, r2, #32768
 258:Core/Src/bootloader.c ****             {
 1713              		.loc 1 258 16 view .LVU529
 1714 00a0 B2F5503F 		cmp	r2, #212992
 1715 00a4 07D2     		bcs	.L130
 260:Core/Src/bootloader.c ****                 buffer_index = 0;  /* Reset buffer */
 1716              		.loc 1 260 17 is_stmt 1 view .LVU530
 260:Core/Src/bootloader.c ****                 buffer_index = 0;  /* Reset buffer */
 1717              		.loc 1 260 51 is_stmt 0 view .LVU531
 1718 00a6 634A     		ldr	r2, .L148+16
 1719 00a8 5360     		str	r3, [r2, #4]
 261:Core/Src/bootloader.c ****                 Bootloader_SendACK();
 1720              		.loc 1 261 17 is_stmt 1 view .LVU532
 261:Core/Src/bootloader.c ****                 Bootloader_SendACK();
 1721              		.loc 1 261 30 is_stmt 0 view .LVU533
 1722 00aa 644B     		ldr	r3, .L148+24
 1723              	.LVL130:
 261:Core/Src/bootloader.c ****                 Bootloader_SendACK();
 1724              		.loc 1 261 30 view .LVU534
 1725 00ac 0022     		movs	r2, #0
 261:Core/Src/bootloader.c ****                 Bootloader_SendACK();
 1726              		.loc 1 261 30 view .LVU535
 1727 00ae 1A80     		strh	r2, [r3]	@ movhi
 262:Core/Src/bootloader.c ****             }
 1728              		.loc 1 262 17 is_stmt 1 view .LVU536
 1729 00b0 FFF7FEFF 		bl	Bootloader_SendACK
 1730              	.LVL131:
 262:Core/Src/bootloader.c ****             }
 1731              		.loc 1 262 17 is_stmt 0 view .LVU537
 1732 00b4 CEE7     		b	.L117
 1733              	.LVL132:
 1734              	.L130:
 266:Core/Src/bootloader.c ****             }
 1735              		.loc 1 266 17 is_stmt 1 view .LVU538
 1736 00b6 0220     		movs	r0, #2
 1737 00b8 FFF7FEFF 		bl	Bootloader_SendNACK
 1738              	.LVL133:
 266:Core/Src/bootloader.c ****             }
 1739              		.loc 1 266 17 is_stmt 0 view .LVU539
 1740 00bc CAE7     		b	.L117
 1741              	.LVL134:
 1742              	.L119:
 274:Core/Src/bootloader.c ****             length = rx_data[1];  /* Data length - should always be 4 */
 1743              		.loc 1 274 13 is_stmt 1 view .LVU540
 274:Core/Src/bootloader.c ****             length = rx_data[1];  /* Data length - should always be 4 */
 1744              		.loc 1 274 37 is_stmt 0 view .LVU541
 1745 00be 5D4B     		ldr	r3, .L148+16
 1746 00c0 0222     		movs	r2, #2
 1747 00c2 1A70     		strb	r2, [r3]
ARM GAS  C:\Users\Ali\AppData\Local\Temp\cc6fRbWg.s 			page 60


 275:Core/Src/bootloader.c ****             
 1748              		.loc 1 275 13 is_stmt 1 view .LVU542
 275:Core/Src/bootloader.c ****             
 1749              		.loc 1 275 29 is_stmt 0 view .LVU543
 1750 00c4 594B     		ldr	r3, .L148+8
 275:Core/Src/bootloader.c ****             
 1751              		.loc 1 275 29 view .LVU544
 1752 00c6 5B78     		ldrb	r3, [r3, #1]	@ zero_extendqisi2
 1753              	.LVL135:
 277:Core/Src/bootloader.c ****             {
 1754              		.loc 1 277 13 is_stmt 1 view .LVU545
 277:Core/Src/bootloader.c ****             {
 1755              		.loc 1 277 16 is_stmt 0 view .LVU546
 1756 00c8 042B     		cmp	r3, #4
 1757 00ca 01D1     		bne	.L146
 1758              	.LBB10:
 286:Core/Src/bootloader.c ****             {
 1759              		.loc 1 286 26 view .LVU547
 1760 00cc 0023     		movs	r3, #0
 1761 00ce 15E0     		b	.L131
 1762              	.L146:
 1763              	.LBE10:
 279:Core/Src/bootloader.c ****                 bootloader_status.state = BL_STATE_IDLE;
 1764              		.loc 1 279 17 is_stmt 1 view .LVU548
 1765 00d0 0520     		movs	r0, #5
 1766 00d2 FFF7FEFF 		bl	Bootloader_SendNACK
 1767              	.LVL136:
 280:Core/Src/bootloader.c ****                 buffer_index = 0;  /* Reset buffer on error */
 1768              		.loc 1 280 17 view .LVU549
 280:Core/Src/bootloader.c ****                 buffer_index = 0;  /* Reset buffer on error */
 1769              		.loc 1 280 41 is_stmt 0 view .LVU550
 1770 00d6 0023     		movs	r3, #0
 1771 00d8 564A     		ldr	r2, .L148+16
 1772 00da 1370     		strb	r3, [r2]
 281:Core/Src/bootloader.c ****                 break;
 1773              		.loc 1 281 17 is_stmt 1 view .LVU551
 281:Core/Src/bootloader.c ****                 break;
 1774              		.loc 1 281 30 is_stmt 0 view .LVU552
 1775 00dc 574A     		ldr	r2, .L148+24
 1776 00de 1380     		strh	r3, [r2]	@ movhi
 282:Core/Src/bootloader.c ****             }
 1777              		.loc 1 282 17 is_stmt 1 view .LVU553
 1778 00e0 B8E7     		b	.L117
 1779              	.LVL137:
 1780              	.L132:
 1781              	.LBB11:
 288:Core/Src/bootloader.c ****             }
 1782              		.loc 1 288 17 view .LVU554
 288:Core/Src/bootloader.c ****             }
 1783              		.loc 1 288 58 is_stmt 0 view .LVU555
 1784 00e2 981C     		adds	r0, r3, #2
 288:Core/Src/bootloader.c ****             }
 1785              		.loc 1 288 42 view .LVU556
 1786 00e4 5549     		ldr	r1, .L148+24
 1787 00e6 0A88     		ldrh	r2, [r1]
 1788 00e8 02F1010C 		add	ip, r2, #1
 1789 00ec A1F800C0 		strh	ip, [r1]	@ movhi
ARM GAS  C:\Users\Ali\AppData\Local\Temp\cc6fRbWg.s 			page 61


 288:Core/Src/bootloader.c ****             }
 1790              		.loc 1 288 55 view .LVU557
 1791 00f0 4E49     		ldr	r1, .L148+8
 288:Core/Src/bootloader.c ****             }
 1792              		.loc 1 288 55 view .LVU558
 1793 00f2 085C     		ldrb	r0, [r1, r0]	@ zero_extendqisi2
 288:Core/Src/bootloader.c ****             }
 1794              		.loc 1 288 46 view .LVU559
 1795 00f4 5249     		ldr	r1, .L148+28
 288:Core/Src/bootloader.c ****             }
 1796              		.loc 1 288 46 view .LVU560
 1797 00f6 8854     		strb	r0, [r1, r2]
 286:Core/Src/bootloader.c ****             {
 1798              		.loc 1 286 41 is_stmt 1 discriminator 3 view .LVU561
 1799 00f8 0133     		adds	r3, r3, #1
 1800              	.LVL138:
 286:Core/Src/bootloader.c ****             {
 1801              		.loc 1 286 41 is_stmt 0 discriminator 3 view .LVU562
 1802 00fa DBB2     		uxtb	r3, r3
 1803              	.LVL139:
 1804              	.L131:
 286:Core/Src/bootloader.c ****             {
 1805              		.loc 1 286 35 is_stmt 1 discriminator 1 view .LVU563
 1806 00fc 032B     		cmp	r3, #3
 1807 00fe F0D9     		bls	.L132
 1808              	.LBE11:
 292:Core/Src/bootloader.c ****             {
 1809              		.loc 1 292 13 view .LVU564
 292:Core/Src/bootloader.c ****             {
 1810              		.loc 1 292 30 is_stmt 0 view .LVU565
 1811 0100 4E4B     		ldr	r3, .L148+24
 1812              	.LVL140:
 292:Core/Src/bootloader.c ****             {
 1813              		.loc 1 292 30 view .LVU566
 1814 0102 1B88     		ldrh	r3, [r3]
 292:Core/Src/bootloader.c ****             {
 1815              		.loc 1 292 16 view .LVU567
 1816 0104 072B     		cmp	r3, #7
 1817 0106 19D9     		bls	.L133
 294:Core/Src/bootloader.c ****                                                flash_buffer, 8);
 1818              		.loc 1 294 17 is_stmt 1 view .LVU568
 294:Core/Src/bootloader.c ****                                                flash_buffer, 8);
 1819              		.loc 1 294 26 is_stmt 0 view .LVU569
 1820 0108 0822     		movs	r2, #8
 1821 010a 4D49     		ldr	r1, .L148+28
 1822 010c 494B     		ldr	r3, .L148+16
 1823 010e 5868     		ldr	r0, [r3, #4]
 1824 0110 FFF7FEFF 		bl	Bootloader_WriteFlash
 1825              	.LVL141:
 296:Core/Src/bootloader.c ****                 {
 1826              		.loc 1 296 17 is_stmt 1 view .LVU570
 296:Core/Src/bootloader.c ****                 {
 1827              		.loc 1 296 20 is_stmt 0 view .LVU571
 1828 0114 60B9     		cbnz	r0, .L134
 298:Core/Src/bootloader.c ****                     bootloader_status.bytes_written += 8;
 1829              		.loc 1 298 21 is_stmt 1 view .LVU572
 298:Core/Src/bootloader.c ****                     bootloader_status.bytes_written += 8;
ARM GAS  C:\Users\Ali\AppData\Local\Temp\cc6fRbWg.s 			page 62


 1830              		.loc 1 298 38 is_stmt 0 view .LVU573
 1831 0116 474B     		ldr	r3, .L148+16
 1832 0118 5A68     		ldr	r2, [r3, #4]
 298:Core/Src/bootloader.c ****                     bootloader_status.bytes_written += 8;
 1833              		.loc 1 298 55 view .LVU574
 1834 011a 0832     		adds	r2, r2, #8
 1835 011c 5A60     		str	r2, [r3, #4]
 299:Core/Src/bootloader.c ****                     buffer_index = 0;
 1836              		.loc 1 299 21 is_stmt 1 view .LVU575
 299:Core/Src/bootloader.c ****                     buffer_index = 0;
 1837              		.loc 1 299 38 is_stmt 0 view .LVU576
 1838 011e 9A68     		ldr	r2, [r3, #8]
 299:Core/Src/bootloader.c ****                     buffer_index = 0;
 1839              		.loc 1 299 53 view .LVU577
 1840 0120 0832     		adds	r2, r2, #8
 1841 0122 9A60     		str	r2, [r3, #8]
 300:Core/Src/bootloader.c ****                     Bootloader_SendACK();
 1842              		.loc 1 300 21 is_stmt 1 view .LVU578
 300:Core/Src/bootloader.c ****                     Bootloader_SendACK();
 1843              		.loc 1 300 34 is_stmt 0 view .LVU579
 1844 0124 454B     		ldr	r3, .L148+24
 1845 0126 0022     		movs	r2, #0
 1846 0128 1A80     		strh	r2, [r3]	@ movhi
 301:Core/Src/bootloader.c ****                 }
 1847              		.loc 1 301 21 is_stmt 1 view .LVU580
 1848 012a FFF7FEFF 		bl	Bootloader_SendACK
 1849              	.LVL142:
 301:Core/Src/bootloader.c ****                 }
 1850              		.loc 1 301 21 is_stmt 0 view .LVU581
 1851 012e 07E0     		b	.L135
 1852              	.LVL143:
 1853              	.L134:
 305:Core/Src/bootloader.c ****                     Bootloader_SendNACK(result);
 1854              		.loc 1 305 21 is_stmt 1 view .LVU582
 305:Core/Src/bootloader.c ****                     Bootloader_SendNACK(result);
 1855              		.loc 1 305 34 is_stmt 0 view .LVU583
 1856 0130 424A     		ldr	r2, .L148+24
 1857 0132 0021     		movs	r1, #0
 1858 0134 1180     		strh	r1, [r2]	@ movhi
 306:Core/Src/bootloader.c ****                 }
 1859              		.loc 1 306 21 is_stmt 1 view .LVU584
 1860 0136 FFF7FEFF 		bl	Bootloader_SendNACK
 1861              	.LVL144:
 306:Core/Src/bootloader.c ****                 }
 1862              		.loc 1 306 21 is_stmt 0 view .LVU585
 1863 013a 01E0     		b	.L135
 1864              	.LVL145:
 1865              	.L133:
 311:Core/Src/bootloader.c ****             }
 1866              		.loc 1 311 17 is_stmt 1 view .LVU586
 1867 013c FFF7FEFF 		bl	Bootloader_SendACK
 1868              	.LVL146:
 1869              	.L135:
 314:Core/Src/bootloader.c ****             break;
 1870              		.loc 1 314 13 view .LVU587
 314:Core/Src/bootloader.c ****             break;
 1871              		.loc 1 314 37 is_stmt 0 view .LVU588
ARM GAS  C:\Users\Ali\AppData\Local\Temp\cc6fRbWg.s 			page 63


 1872 0140 3C4B     		ldr	r3, .L148+16
 1873 0142 0022     		movs	r2, #0
 1874 0144 1A70     		strb	r2, [r3]
 315:Core/Src/bootloader.c ****             
 1875              		.loc 1 315 13 is_stmt 1 view .LVU589
 1876 0146 85E7     		b	.L117
 1877              	.LVL147:
 1878              	.L125:
 319:Core/Src/bootloader.c ****                      (rx_data[3] << 8) | rx_data[4];
 1879              		.loc 1 319 13 view .LVU590
 319:Core/Src/bootloader.c ****                      (rx_data[3] << 8) | rx_data[4];
 1880              		.loc 1 319 31 is_stmt 0 view .LVU591
 1881 0148 384B     		ldr	r3, .L148+8
 319:Core/Src/bootloader.c ****                      (rx_data[3] << 8) | rx_data[4];
 1882              		.loc 1 319 31 view .LVU592
 1883 014a 5A78     		ldrb	r2, [r3, #1]	@ zero_extendqisi2
 319:Core/Src/bootloader.c ****                      (rx_data[3] << 8) | rx_data[4];
 1884              		.loc 1 319 52 view .LVU593
 1885 014c 9878     		ldrb	r0, [r3, #2]	@ zero_extendqisi2
 319:Core/Src/bootloader.c ****                      (rx_data[3] << 8) | rx_data[4];
 1886              		.loc 1 319 56 view .LVU594
 1887 014e 0004     		lsls	r0, r0, #16
 319:Core/Src/bootloader.c ****                      (rx_data[3] << 8) | rx_data[4];
 1888              		.loc 1 319 42 view .LVU595
 1889 0150 40EA0260 		orr	r0, r0, r2, lsl #24
 320:Core/Src/bootloader.c ****             length = rx_data[5];
 1890              		.loc 1 320 30 view .LVU596
 1891 0154 DA78     		ldrb	r2, [r3, #3]	@ zero_extendqisi2
 319:Core/Src/bootloader.c ****                      (rx_data[3] << 8) | rx_data[4];
 1892              		.loc 1 319 63 view .LVU597
 1893 0156 40EA0220 		orr	r0, r0, r2, lsl #8
 320:Core/Src/bootloader.c ****             length = rx_data[5];
 1894              		.loc 1 320 49 view .LVU598
 1895 015a 1A79     		ldrb	r2, [r3, #4]	@ zero_extendqisi2
 320:Core/Src/bootloader.c ****             length = rx_data[5];
 1896              		.loc 1 320 40 view .LVU599
 1897 015c 1043     		orrs	r0, r0, r2
 1898              	.LVL148:
 321:Core/Src/bootloader.c **** 
 1899              		.loc 1 321 13 is_stmt 1 view .LVU600
 321:Core/Src/bootloader.c **** 
 1900              		.loc 1 321 29 is_stmt 0 view .LVU601
 1901 015e 5A79     		ldrb	r2, [r3, #5]	@ zero_extendqisi2
 1902              	.LVL149:
 324:Core/Src/bootloader.c ****             {
 1903              		.loc 1 324 13 is_stmt 1 view .LVU602
 324:Core/Src/bootloader.c ****             {
 1904              		.loc 1 324 48 is_stmt 0 view .LVU603
 1905 0160 00F17843 		add	r3, r0, #-134217728
 324:Core/Src/bootloader.c ****             {
 1906              		.loc 1 324 48 view .LVU604
 1907 0164 A3F50043 		sub	r3, r3, #32768
 324:Core/Src/bootloader.c ****             {
 1908              		.loc 1 324 16 view .LVU605
 1909 0168 B3F5503F 		cmp	r3, #212992
 1910 016c 0FD2     		bcs	.L136
 326:Core/Src/bootloader.c ****                 result = Bootloader_WriteFlash(address, &rx_data[6], length);
ARM GAS  C:\Users\Ali\AppData\Local\Temp\cc6fRbWg.s 			page 64


 1911              		.loc 1 326 17 is_stmt 1 view .LVU606
 326:Core/Src/bootloader.c ****                 result = Bootloader_WriteFlash(address, &rx_data[6], length);
 1912              		.loc 1 326 41 is_stmt 0 view .LVU607
 1913 016e 314B     		ldr	r3, .L148+16
 1914 0170 0221     		movs	r1, #2
 1915 0172 1970     		strb	r1, [r3]
 327:Core/Src/bootloader.c ****                 if (result == ERR_NONE)
 1916              		.loc 1 327 17 is_stmt 1 view .LVU608
 327:Core/Src/bootloader.c ****                 if (result == ERR_NONE)
 1917              		.loc 1 327 26 is_stmt 0 view .LVU609
 1918 0174 3349     		ldr	r1, .L148+32
 1919 0176 FFF7FEFF 		bl	Bootloader_WriteFlash
 1920              	.LVL150:
 328:Core/Src/bootloader.c ****                 {
 1921              		.loc 1 328 17 is_stmt 1 view .LVU610
 328:Core/Src/bootloader.c ****                 {
 1922              		.loc 1 328 20 is_stmt 0 view .LVU611
 1923 017a 28B9     		cbnz	r0, .L137
 330:Core/Src/bootloader.c ****                 }
 1924              		.loc 1 330 21 is_stmt 1 view .LVU612
 1925 017c FFF7FEFF 		bl	Bootloader_SendACK
 1926              	.LVL151:
 1927              	.L138:
 336:Core/Src/bootloader.c ****             }
 1928              		.loc 1 336 17 view .LVU613
 336:Core/Src/bootloader.c ****             }
 1929              		.loc 1 336 41 is_stmt 0 view .LVU614
 1930 0180 2C4B     		ldr	r3, .L148+16
 1931 0182 0022     		movs	r2, #0
 1932 0184 1A70     		strb	r2, [r3]
 1933 0186 65E7     		b	.L117
 1934              	.LVL152:
 1935              	.L137:
 334:Core/Src/bootloader.c ****                 }
 1936              		.loc 1 334 21 is_stmt 1 view .LVU615
 1937 0188 FFF7FEFF 		bl	Bootloader_SendNACK
 1938              	.LVL153:
 334:Core/Src/bootloader.c ****                 }
 1939              		.loc 1 334 21 is_stmt 0 view .LVU616
 1940 018c F8E7     		b	.L138
 1941              	.LVL154:
 1942              	.L136:
 340:Core/Src/bootloader.c ****             }
 1943              		.loc 1 340 17 is_stmt 1 view .LVU617
 1944 018e 0220     		movs	r0, #2
 1945              	.LVL155:
 340:Core/Src/bootloader.c ****             }
 1946              		.loc 1 340 17 is_stmt 0 view .LVU618
 1947 0190 FFF7FEFF 		bl	Bootloader_SendNACK
 1948              	.LVL156:
 340:Core/Src/bootloader.c ****             }
 1949              		.loc 1 340 17 view .LVU619
 1950 0194 5EE7     		b	.L117
 1951              	.LVL157:
 1952              	.L124:
 346:Core/Src/bootloader.c ****                      (rx_data[3] << 8) | rx_data[4];
 1953              		.loc 1 346 13 is_stmt 1 view .LVU620
ARM GAS  C:\Users\Ali\AppData\Local\Temp\cc6fRbWg.s 			page 65


 346:Core/Src/bootloader.c ****                      (rx_data[3] << 8) | rx_data[4];
 1954              		.loc 1 346 31 is_stmt 0 view .LVU621
 1955 0196 254B     		ldr	r3, .L148+8
 346:Core/Src/bootloader.c ****                      (rx_data[3] << 8) | rx_data[4];
 1956              		.loc 1 346 31 view .LVU622
 1957 0198 5A78     		ldrb	r2, [r3, #1]	@ zero_extendqisi2
 346:Core/Src/bootloader.c ****                      (rx_data[3] << 8) | rx_data[4];
 1958              		.loc 1 346 52 view .LVU623
 1959 019a 9878     		ldrb	r0, [r3, #2]	@ zero_extendqisi2
 346:Core/Src/bootloader.c ****                      (rx_data[3] << 8) | rx_data[4];
 1960              		.loc 1 346 56 view .LVU624
 1961 019c 0004     		lsls	r0, r0, #16
 346:Core/Src/bootloader.c ****                      (rx_data[3] << 8) | rx_data[4];
 1962              		.loc 1 346 42 view .LVU625
 1963 019e 40EA0260 		orr	r0, r0, r2, lsl #24
 347:Core/Src/bootloader.c ****             length = rx_data[5];
 1964              		.loc 1 347 30 view .LVU626
 1965 01a2 DA78     		ldrb	r2, [r3, #3]	@ zero_extendqisi2
 346:Core/Src/bootloader.c ****                      (rx_data[3] << 8) | rx_data[4];
 1966              		.loc 1 346 63 view .LVU627
 1967 01a4 40EA0220 		orr	r0, r0, r2, lsl #8
 347:Core/Src/bootloader.c ****             length = rx_data[5];
 1968              		.loc 1 347 49 view .LVU628
 1969 01a8 1A79     		ldrb	r2, [r3, #4]	@ zero_extendqisi2
 347:Core/Src/bootloader.c ****             length = rx_data[5];
 1970              		.loc 1 347 40 view .LVU629
 1971 01aa 1043     		orrs	r0, r0, r2
 1972              	.LVL158:
 348:Core/Src/bootloader.c **** 
 1973              		.loc 1 348 13 is_stmt 1 view .LVU630
 348:Core/Src/bootloader.c **** 
 1974              		.loc 1 348 29 is_stmt 0 view .LVU631
 1975 01ac 5C79     		ldrb	r4, [r3, #5]	@ zero_extendqisi2
 1976              	.LVL159:
 351:Core/Src/bootloader.c ****             {
 1977              		.loc 1 351 13 is_stmt 1 view .LVU632
 351:Core/Src/bootloader.c ****             {
 1978              		.loc 1 351 48 is_stmt 0 view .LVU633
 1979 01ae 00F17843 		add	r3, r0, #-134217728
 351:Core/Src/bootloader.c ****             {
 1980              		.loc 1 351 48 view .LVU634
 1981 01b2 A3F50043 		sub	r3, r3, #32768
 351:Core/Src/bootloader.c ****             {
 1982              		.loc 1 351 16 view .LVU635
 1983 01b6 B3F5503F 		cmp	r3, #212992
 1984 01ba 01D2     		bcs	.L139
 351:Core/Src/bootloader.c ****             {
 1985              		.loc 1 351 86 discriminator 1 view .LVU636
 1986 01bc 072C     		cmp	r4, #7
 1987 01be 03D9     		bls	.L147
 1988              	.L139:
 368:Core/Src/bootloader.c ****             }
 1989              		.loc 1 368 17 is_stmt 1 view .LVU637
 1990 01c0 0220     		movs	r0, #2
 1991              	.LVL160:
 368:Core/Src/bootloader.c ****             }
 1992              		.loc 1 368 17 is_stmt 0 view .LVU638
ARM GAS  C:\Users\Ali\AppData\Local\Temp\cc6fRbWg.s 			page 66


 1993 01c2 FFF7FEFF 		bl	Bootloader_SendNACK
 1994              	.LVL161:
 368:Core/Src/bootloader.c ****             }
 1995              		.loc 1 368 17 view .LVU639
 1996 01c6 45E7     		b	.L117
 1997              	.LVL162:
 1998              	.L147:
 353:Core/Src/bootloader.c ****                 tx_data[0] = RESP_DATA;
 1999              		.loc 1 353 17 is_stmt 1 view .LVU640
 353:Core/Src/bootloader.c ****                 tx_data[0] = RESP_DATA;
 2000              		.loc 1 353 41 is_stmt 0 view .LVU641
 2001 01c8 1A4B     		ldr	r3, .L148+16
 2002 01ca 0322     		movs	r2, #3
 2003 01cc 1A70     		strb	r2, [r3]
 354:Core/Src/bootloader.c ****                 result = Bootloader_ReadFlash(address, &tx_data[1], length);
 2004              		.loc 1 354 17 is_stmt 1 view .LVU642
 354:Core/Src/bootloader.c ****                 result = Bootloader_ReadFlash(address, &tx_data[1], length);
 2005              		.loc 1 354 28 is_stmt 0 view .LVU643
 2006 01ce 1849     		ldr	r1, .L148+12
 2007 01d0 1523     		movs	r3, #21
 2008 01d2 01F8013B 		strb	r3, [r1], #1
 355:Core/Src/bootloader.c ****                 if (result == ERR_NONE)
 2009              		.loc 1 355 17 is_stmt 1 view .LVU644
 355:Core/Src/bootloader.c ****                 if (result == ERR_NONE)
 2010              		.loc 1 355 26 is_stmt 0 view .LVU645
 2011 01d6 2246     		mov	r2, r4
 2012 01d8 FFF7FEFF 		bl	Bootloader_ReadFlash
 2013              	.LVL163:
 356:Core/Src/bootloader.c ****                 {
 2014              		.loc 1 356 17 is_stmt 1 view .LVU646
 356:Core/Src/bootloader.c ****                 {
 2015              		.loc 1 356 20 is_stmt 0 view .LVU647
 2016 01dc 48B9     		cbnz	r0, .L140
 358:Core/Src/bootloader.c ****                 }
 2017              		.loc 1 358 21 is_stmt 1 view .LVU648
 2018 01de 621C     		adds	r2, r4, #1
 2019 01e0 D2B2     		uxtb	r2, r2
 2020 01e2 1349     		ldr	r1, .L148+12
 2021 01e4 1520     		movs	r0, #21
 2022              	.LVL164:
 358:Core/Src/bootloader.c ****                 }
 2023              		.loc 1 358 21 is_stmt 0 view .LVU649
 2024 01e6 FFF7FEFF 		bl	Bootloader_SendCANMessage
 2025              	.LVL165:
 2026              	.L141:
 364:Core/Src/bootloader.c ****             }
 2027              		.loc 1 364 17 is_stmt 1 view .LVU650
 364:Core/Src/bootloader.c ****             }
 2028              		.loc 1 364 41 is_stmt 0 view .LVU651
 2029 01ea 124B     		ldr	r3, .L148+16
 2030 01ec 0022     		movs	r2, #0
 2031 01ee 1A70     		strb	r2, [r3]
 2032 01f0 30E7     		b	.L117
 2033              	.LVL166:
 2034              	.L140:
 362:Core/Src/bootloader.c ****                 }
 2035              		.loc 1 362 21 is_stmt 1 view .LVU652
ARM GAS  C:\Users\Ali\AppData\Local\Temp\cc6fRbWg.s 			page 67


 2036 01f2 FFF7FEFF 		bl	Bootloader_SendNACK
 2037              	.LVL167:
 362:Core/Src/bootloader.c ****                 }
 2038              		.loc 1 362 21 is_stmt 0 view .LVU653
 2039 01f6 F8E7     		b	.L141
 2040              	.LVL168:
 2041              	.L123:
 374:Core/Src/bootloader.c ****             {
 2042              		.loc 1 374 13 is_stmt 1 view .LVU654
 374:Core/Src/bootloader.c ****             {
 2043              		.loc 1 374 17 is_stmt 0 view .LVU655
 2044 01f8 FFF7FEFF 		bl	Bootloader_CheckValidApplication
 2045              	.LVL169:
 374:Core/Src/bootloader.c ****             {
 2046              		.loc 1 374 16 discriminator 1 view .LVU656
 2047 01fc 50B1     		cbz	r0, .L142
 377:Core/Src/bootloader.c ****                 if (result != ERR_NONE)
 2048              		.loc 1 377 17 is_stmt 1 view .LVU657
 377:Core/Src/bootloader.c ****                 if (result != ERR_NONE)
 2049              		.loc 1 377 26 is_stmt 0 view .LVU658
 2050 01fe FFF7FEFF 		bl	Bootloader_SetApplicationValidFlag
 2051              	.LVL170:
 378:Core/Src/bootloader.c ****                 {
 2052              		.loc 1 378 17 is_stmt 1 view .LVU659
 378:Core/Src/bootloader.c ****                 {
 2053              		.loc 1 378 20 is_stmt 0 view .LVU660
 2054 0202 08B1     		cbz	r0, .L143
 381:Core/Src/bootloader.c ****                 }
 2055              		.loc 1 381 21 is_stmt 1 view .LVU661
 381:Core/Src/bootloader.c ****                 }
 2056              		.loc 1 381 50 is_stmt 0 view .LVU662
 2057 0204 0B4A     		ldr	r2, .L148+16
 2058 0206 1074     		strb	r0, [r2, #16]
 2059              	.L143:
 384:Core/Src/bootloader.c ****                 jump_to_app_flag = 1;  /* Set flag to trigger jump from main loop */
 2060              		.loc 1 384 17 is_stmt 1 view .LVU663
 2061 0208 FFF7FEFF 		bl	Bootloader_SendACK
 2062              	.LVL171:
 385:Core/Src/bootloader.c ****             }
 2063              		.loc 1 385 17 view .LVU664
 385:Core/Src/bootloader.c ****             }
 2064              		.loc 1 385 34 is_stmt 0 view .LVU665
 2065 020c 0E4B     		ldr	r3, .L148+36
 2066 020e 0122     		movs	r2, #1
 2067 0210 1A70     		strb	r2, [r3]
 2068 0212 1FE7     		b	.L117
 2069              	.LVL172:
 2070              	.L142:
 389:Core/Src/bootloader.c ****             }
 2071              		.loc 1 389 17 is_stmt 1 view .LVU666
 2072 0214 0620     		movs	r0, #6
 2073 0216 FFF7FEFF 		bl	Bootloader_SendNACK
 2074              	.LVL173:
 2075 021a 1BE7     		b	.L117
 2076              	.LVL174:
 2077              	.L118:
 395:Core/Src/bootloader.c ****             break;
ARM GAS  C:\Users\Ali\AppData\Local\Temp\cc6fRbWg.s 			page 68


 2078              		.loc 1 395 13 view .LVU667
 2079 021c 0120     		movs	r0, #1
 2080 021e FFF7FEFF 		bl	Bootloader_SendNACK
 2081              	.LVL175:
 396:Core/Src/bootloader.c ****     }
 2082              		.loc 1 396 13 view .LVU668
 398:Core/Src/bootloader.c **** 
 2083              		.loc 1 398 1 is_stmt 0 view .LVU669
 2084 0222 17E7     		b	.L117
 2085              	.L149:
 2086              		.align	2
 2087              	.L148:
 2088 0224 00000000 		.word	can_command_received
 2089 0228 00000000 		.word	last_heartbeat_time
 2090 022c 00000000 		.word	rx_data
 2091 0230 00000000 		.word	tx_data
 2092 0234 00000000 		.word	bootloader_status
 2093 0238 00800008 		.word	134250496
 2094 023c 00000000 		.word	buffer_index
 2095 0240 00000000 		.word	flash_buffer
 2096 0244 06000000 		.word	rx_data+6
 2097 0248 00000000 		.word	jump_to_app_flag
 2098              		.cfi_endproc
 2099              	.LFE135:
 2101              		.section	.text.HAL_CAN_RxFifo0MsgPendingCallback,"ax",%progbits
 2102              		.align	1
 2103              		.global	HAL_CAN_RxFifo0MsgPendingCallback
 2104              		.syntax unified
 2105              		.thumb
 2106              		.thumb_func
 2108              	HAL_CAN_RxFifo0MsgPendingCallback:
 2109              	.LVL176:
 2110              	.LFB149:
 810:Core/Src/bootloader.c **** 
 811:Core/Src/bootloader.c **** /**
 812:Core/Src/bootloader.c ****   * @brief  CAN RX FIFO 0 message pending callback
 813:Core/Src/bootloader.c ****   * @param  hcan: pointer to CAN Handle
 814:Core/Src/bootloader.c ****   * @retval None
 815:Core/Src/bootloader.c ****   */
 816:Core/Src/bootloader.c **** void HAL_CAN_RxFifo0MsgPendingCallback(CAN_HandleTypeDef *hcan)
 817:Core/Src/bootloader.c **** {
 2111              		.loc 1 817 1 is_stmt 1 view -0
 2112              		.cfi_startproc
 2113              		@ args = 0, pretend = 0, frame = 0
 2114              		@ frame_needed = 0, uses_anonymous_args = 0
 2115              		.loc 1 817 1 is_stmt 0 view .LVU671
 2116 0000 08B5     		push	{r3, lr}
 2117              		.cfi_def_cfa_offset 8
 2118              		.cfi_offset 3, -8
 2119              		.cfi_offset 14, -4
 818:Core/Src/bootloader.c ****     if (hcan == hcan_bootloader)
 2120              		.loc 1 818 5 is_stmt 1 view .LVU672
 2121              		.loc 1 818 14 is_stmt 0 view .LVU673
 2122 0002 0C4B     		ldr	r3, .L154
 2123 0004 1B68     		ldr	r3, [r3]
 2124              		.loc 1 818 8 view .LVU674
 2125 0006 8342     		cmp	r3, r0
ARM GAS  C:\Users\Ali\AppData\Local\Temp\cc6fRbWg.s 			page 69


 2126 0008 00D0     		beq	.L153
 2127              	.LVL177:
 2128              	.L150:
 819:Core/Src/bootloader.c ****     {
 820:Core/Src/bootloader.c ****         /* Get message from FIFO */
 821:Core/Src/bootloader.c ****         if (HAL_CAN_GetRxMessage(hcan, CAN_RX_FIFO0, &rx_header, rx_data) == HAL_OK)
 822:Core/Src/bootloader.c ****         {
 823:Core/Src/bootloader.c ****             /* Check if message is for bootloader (using ExtId for 29-bit extended ID) */
 824:Core/Src/bootloader.c ****             if (rx_header.ExtId == CAN_HOST_ID && rx_header.IDE == CAN_ID_EXT)
 825:Core/Src/bootloader.c ****             {
 826:Core/Src/bootloader.c ****                 /* Process the message */
 827:Core/Src/bootloader.c ****                 Bootloader_ProcessCANMessage();
 828:Core/Src/bootloader.c ****             }
 829:Core/Src/bootloader.c ****         }
 830:Core/Src/bootloader.c ****     }
 831:Core/Src/bootloader.c **** }
 2129              		.loc 1 831 1 view .LVU675
 2130 000a 08BD     		pop	{r3, pc}
 2131              	.LVL178:
 2132              	.L153:
 821:Core/Src/bootloader.c ****         {
 2133              		.loc 1 821 9 is_stmt 1 view .LVU676
 821:Core/Src/bootloader.c ****         {
 2134              		.loc 1 821 13 is_stmt 0 view .LVU677
 2135 000c 0A4B     		ldr	r3, .L154+4
 2136 000e 0B4A     		ldr	r2, .L154+8
 2137 0010 0021     		movs	r1, #0
 2138 0012 FFF7FEFF 		bl	HAL_CAN_GetRxMessage
 2139              	.LVL179:
 821:Core/Src/bootloader.c ****         {
 2140              		.loc 1 821 12 discriminator 1 view .LVU678
 2141 0016 0028     		cmp	r0, #0
 2142 0018 F7D1     		bne	.L150
 824:Core/Src/bootloader.c ****             {
 2143              		.loc 1 824 13 is_stmt 1 view .LVU679
 824:Core/Src/bootloader.c ****             {
 2144              		.loc 1 824 26 is_stmt 0 view .LVU680
 2145 001a 084B     		ldr	r3, .L154+8
 2146 001c 5A68     		ldr	r2, [r3, #4]
 824:Core/Src/bootloader.c ****             {
 2147              		.loc 1 824 16 view .LVU681
 2148 001e 084B     		ldr	r3, .L154+12
 2149 0020 9A42     		cmp	r2, r3
 2150 0022 F2D1     		bne	.L150
 824:Core/Src/bootloader.c ****             {
 2151              		.loc 1 824 60 discriminator 1 view .LVU682
 2152 0024 054B     		ldr	r3, .L154+8
 2153 0026 9B68     		ldr	r3, [r3, #8]
 824:Core/Src/bootloader.c ****             {
 2154              		.loc 1 824 48 discriminator 1 view .LVU683
 2155 0028 042B     		cmp	r3, #4
 2156 002a EED1     		bne	.L150
 827:Core/Src/bootloader.c ****             }
 2157              		.loc 1 827 17 is_stmt 1 view .LVU684
 2158 002c FFF7FEFF 		bl	Bootloader_ProcessCANMessage
 2159              	.LVL180:
 2160              		.loc 1 831 1 is_stmt 0 view .LVU685
ARM GAS  C:\Users\Ali\AppData\Local\Temp\cc6fRbWg.s 			page 70


 2161 0030 EBE7     		b	.L150
 2162              	.L155:
 2163 0032 00BF     		.align	2
 2164              	.L154:
 2165 0034 00000000 		.word	hcan_bootloader
 2166 0038 00000000 		.word	rx_data
 2167 003c 00000000 		.word	rx_header
 2168 0040 01070018 		.word	402654977
 2169              		.cfi_endproc
 2170              	.LFE149:
 2172              		.section	.bss.last_heartbeat_time,"aw",%nobits
 2173              		.align	2
 2176              	last_heartbeat_time:
 2177 0000 00000000 		.space	4
 2178              		.section	.bss.can_command_received,"aw",%nobits
 2181              	can_command_received:
 2182 0000 00       		.space	1
 2183              		.section	.bss.jump_to_app_flag,"aw",%nobits
 2186              	jump_to_app_flag:
 2187 0000 00       		.space	1
 2188              		.section	.bss.buffer_index,"aw",%nobits
 2189              		.align	1
 2192              	buffer_index:
 2193 0000 0000     		.space	2
 2194              		.section	.bss.flash_buffer,"aw",%nobits
 2195              		.align	2
 2198              	flash_buffer:
 2199 0000 00000000 		.space	8
 2199      00000000 
 2200              		.section	.bss.tx_mailbox,"aw",%nobits
 2201              		.align	2
 2204              	tx_mailbox:
 2205 0000 00000000 		.space	4
 2206              		.section	.bss.tx_header,"aw",%nobits
 2207              		.align	2
 2210              	tx_header:
 2211 0000 00000000 		.space	24
 2211      00000000 
 2211      00000000 
 2211      00000000 
 2211      00000000 
 2212              		.section	.bss.tx_data,"aw",%nobits
 2213              		.align	2
 2216              	tx_data:
 2217 0000 00000000 		.space	8
 2217      00000000 
 2218              		.section	.bss.rx_data,"aw",%nobits
 2219              		.align	2
 2222              	rx_data:
 2223 0000 00000000 		.space	8
 2223      00000000 
 2224              		.section	.bss.rx_header,"aw",%nobits
 2225              		.align	2
 2228              	rx_header:
 2229 0000 00000000 		.space	28
 2229      00000000 
 2229      00000000 
ARM GAS  C:\Users\Ali\AppData\Local\Temp\cc6fRbWg.s 			page 71


 2229      00000000 
 2229      00000000 
 2230              		.section	.bss.bootloader_status,"aw",%nobits
 2231              		.align	2
 2234              	bootloader_status:
 2235 0000 00000000 		.space	20
 2235      00000000 
 2235      00000000 
 2235      00000000 
 2235      00000000 
 2236              		.section	.bss.hcan_bootloader,"aw",%nobits
 2237              		.align	2
 2240              	hcan_bootloader:
 2241 0000 00000000 		.space	4
 2242              		.text
 2243              	.Letext0:
 2244              		.file 3 "C:/Users/Ali/AppData/Roaming/Code/User/globalStorage/bmd.stm32-for-vscode/@xpack-dev-tool
 2245              		.file 4 "C:/Users/Ali/AppData/Roaming/Code/User/globalStorage/bmd.stm32-for-vscode/@xpack-dev-tool
 2246              		.file 5 "Drivers/CMSIS/Include/core_cm4.h"
 2247              		.file 6 "Drivers/CMSIS/Device/ST/STM32L4xx/Include/stm32l432xx.h"
 2248              		.file 7 "Drivers/CMSIS/Device/ST/STM32L4xx/Include/stm32l4xx.h"
 2249              		.file 8 "Drivers/STM32L4xx_HAL_Driver/Inc/stm32l4xx_hal_def.h"
 2250              		.file 9 "Drivers/STM32L4xx_HAL_Driver/Inc/stm32l4xx_hal_can.h"
 2251              		.file 10 "Drivers/STM32L4xx_HAL_Driver/Inc/stm32l4xx_hal_flash.h"
 2252              		.file 11 "Core/Inc/bootloader.h"
 2253              		.file 12 "Drivers/STM32L4xx_HAL_Driver/Inc/stm32l4xx_hal_flash_ex.h"
 2254              		.file 13 "Drivers/STM32L4xx_HAL_Driver/Inc/stm32l4xx_hal.h"
 2255              		.file 14 "C:/Users/Ali/AppData/Roaming/Code/User/globalStorage/bmd.stm32-for-vscode/@xpack-dev-too
 2256              		.file 15 "Core/Inc/main.h"
ARM GAS  C:\Users\Ali\AppData\Local\Temp\cc6fRbWg.s 			page 72


DEFINED SYMBOLS
                            *ABS*:00000000 bootloader.c
C:\Users\Ali\AppData\Local\Temp\cc6fRbWg.s:21     .text.Bootloader_ReadFlash:00000000 $t
C:\Users\Ali\AppData\Local\Temp\cc6fRbWg.s:26     .text.Bootloader_ReadFlash:00000000 Bootloader_ReadFlash
C:\Users\Ali\AppData\Local\Temp\cc6fRbWg.s:104    .text.Bootloader_ReadFlash:00000040 $d
C:\Users\Ali\AppData\Local\Temp\cc6fRbWg.s:109    .text.Bootloader_ConfigureCANFilter:00000000 $t
C:\Users\Ali\AppData\Local\Temp\cc6fRbWg.s:114    .text.Bootloader_ConfigureCANFilter:00000000 Bootloader_ConfigureCANFilter
C:\Users\Ali\AppData\Local\Temp\cc6fRbWg.s:189    .text.Bootloader_ConfigureCANFilter:00000048 $d
C:\Users\Ali\AppData\Local\Temp\cc6fRbWg.s:2240   .bss.hcan_bootloader:00000000 hcan_bootloader
C:\Users\Ali\AppData\Local\Temp\cc6fRbWg.s:194    .text.Bootloader_WaitForCANTransmission:00000000 $t
C:\Users\Ali\AppData\Local\Temp\cc6fRbWg.s:199    .text.Bootloader_WaitForCANTransmission:00000000 Bootloader_WaitForCANTransmission
C:\Users\Ali\AppData\Local\Temp\cc6fRbWg.s:247    .text.Bootloader_WaitForCANTransmission:00000024 $d
C:\Users\Ali\AppData\Local\Temp\cc6fRbWg.s:253    .text.Bootloader_EraseApplicationFlash:00000000 $t
C:\Users\Ali\AppData\Local\Temp\cc6fRbWg.s:258    .text.Bootloader_EraseApplicationFlash:00000000 Bootloader_EraseApplicationFlash
C:\Users\Ali\AppData\Local\Temp\cc6fRbWg.s:352    .text.Bootloader_EraseApplicationFlash:0000004c $d
C:\Users\Ali\AppData\Local\Temp\cc6fRbWg.s:2234   .bss.bootloader_status:00000000 bootloader_status
C:\Users\Ali\AppData\Local\Temp\cc6fRbWg.s:358    .text.Bootloader_WriteFlash:00000000 $t
C:\Users\Ali\AppData\Local\Temp\cc6fRbWg.s:363    .text.Bootloader_WriteFlash:00000000 Bootloader_WriteFlash
C:\Users\Ali\AppData\Local\Temp\cc6fRbWg.s:546    .text.Bootloader_WriteFlash:000000d4 $d
C:\Users\Ali\AppData\Local\Temp\cc6fRbWg.s:553    .text.Bootloader_DeInit:00000000 $t
C:\Users\Ali\AppData\Local\Temp\cc6fRbWg.s:558    .text.Bootloader_DeInit:00000000 Bootloader_DeInit
C:\Users\Ali\AppData\Local\Temp\cc6fRbWg.s:623    .text.Bootloader_DeInit:00000040 $d
C:\Users\Ali\AppData\Local\Temp\cc6fRbWg.s:628    .text.Bootloader_Init:00000000 $t
C:\Users\Ali\AppData\Local\Temp\cc6fRbWg.s:634    .text.Bootloader_Init:00000000 Bootloader_Init
C:\Users\Ali\AppData\Local\Temp\cc6fRbWg.s:722    .text.Bootloader_Init:00000054 $d
C:\Users\Ali\AppData\Local\Temp\cc6fRbWg.s:2210   .bss.tx_header:00000000 tx_header
C:\Users\Ali\AppData\Local\Temp\cc6fRbWg.s:731    .text.Bootloader_CheckValidApplication:00000000 $t
C:\Users\Ali\AppData\Local\Temp\cc6fRbWg.s:737    .text.Bootloader_CheckValidApplication:00000000 Bootloader_CheckValidApplication
C:\Users\Ali\AppData\Local\Temp\cc6fRbWg.s:785    .text.Bootloader_CheckValidApplication:00000028 $d
C:\Users\Ali\AppData\Local\Temp\cc6fRbWg.s:791    .text.Bootloader_SendCANMessage:00000000 $t
C:\Users\Ali\AppData\Local\Temp\cc6fRbWg.s:797    .text.Bootloader_SendCANMessage:00000000 Bootloader_SendCANMessage
C:\Users\Ali\AppData\Local\Temp\cc6fRbWg.s:868    .text.Bootloader_SendCANMessage:0000003c $d
C:\Users\Ali\AppData\Local\Temp\cc6fRbWg.s:2204   .bss.tx_mailbox:00000000 tx_mailbox
C:\Users\Ali\AppData\Local\Temp\cc6fRbWg.s:875    .text.Bootloader_SendACK:00000000 $t
C:\Users\Ali\AppData\Local\Temp\cc6fRbWg.s:880    .text.Bootloader_SendACK:00000000 Bootloader_SendACK
C:\Users\Ali\AppData\Local\Temp\cc6fRbWg.s:910    .text.Bootloader_SendACK:00000018 $d
C:\Users\Ali\AppData\Local\Temp\cc6fRbWg.s:2216   .bss.tx_data:00000000 tx_data
C:\Users\Ali\AppData\Local\Temp\cc6fRbWg.s:916    .text.Bootloader_SendNACK:00000000 $t
C:\Users\Ali\AppData\Local\Temp\cc6fRbWg.s:921    .text.Bootloader_SendNACK:00000000 Bootloader_SendNACK
C:\Users\Ali\AppData\Local\Temp\cc6fRbWg.s:958    .text.Bootloader_SendNACK:00000018 $d
C:\Users\Ali\AppData\Local\Temp\cc6fRbWg.s:964    .text.Bootloader_JumpToApplication:00000000 $t
C:\Users\Ali\AppData\Local\Temp\cc6fRbWg.s:970    .text.Bootloader_JumpToApplication:00000000 Bootloader_JumpToApplication
C:\Users\Ali\AppData\Local\Temp\cc6fRbWg.s:1098   .text.Bootloader_JumpToApplication:00000068 $d
C:\Users\Ali\AppData\Local\Temp\cc6fRbWg.s:1105   .text.Bootloader_SetApplicationValidFlag:00000000 $t
C:\Users\Ali\AppData\Local\Temp\cc6fRbWg.s:1111   .text.Bootloader_SetApplicationValidFlag:00000000 Bootloader_SetApplicationValidFlag
C:\Users\Ali\AppData\Local\Temp\cc6fRbWg.s:1210   .text.Bootloader_SetApplicationValidFlag:00000058 $d
C:\Users\Ali\AppData\Local\Temp\cc6fRbWg.s:1219   .text.Bootloader_CheckApplicationValidFlag:00000000 $t
C:\Users\Ali\AppData\Local\Temp\cc6fRbWg.s:1225   .text.Bootloader_CheckApplicationValidFlag:00000000 Bootloader_CheckApplicationValidFlag
C:\Users\Ali\AppData\Local\Temp\cc6fRbWg.s:1264   .text.Bootloader_CheckApplicationValidFlag:00000024 $d
C:\Users\Ali\AppData\Local\Temp\cc6fRbWg.s:1271   .text.Bootloader_Main:00000000 $t
C:\Users\Ali\AppData\Local\Temp\cc6fRbWg.s:1277   .text.Bootloader_Main:00000000 Bootloader_Main
C:\Users\Ali\AppData\Local\Temp\cc6fRbWg.s:1484   .text.Bootloader_Main:000000d4 $d
C:\Users\Ali\AppData\Local\Temp\cc6fRbWg.s:2176   .bss.last_heartbeat_time:00000000 last_heartbeat_time
C:\Users\Ali\AppData\Local\Temp\cc6fRbWg.s:2186   .bss.jump_to_app_flag:00000000 jump_to_app_flag
C:\Users\Ali\AppData\Local\Temp\cc6fRbWg.s:2181   .bss.can_command_received:00000000 can_command_received
C:\Users\Ali\AppData\Local\Temp\cc6fRbWg.s:1493   .text.Bootloader_ClearApplicationValidFlag:00000000 $t
C:\Users\Ali\AppData\Local\Temp\cc6fRbWg.s:1499   .text.Bootloader_ClearApplicationValidFlag:00000000 Bootloader_ClearApplicationValidFlag
ARM GAS  C:\Users\Ali\AppData\Local\Temp\cc6fRbWg.s 			page 73


C:\Users\Ali\AppData\Local\Temp\cc6fRbWg.s:1546   .text.Bootloader_ProcessCANMessage:00000000 $t
C:\Users\Ali\AppData\Local\Temp\cc6fRbWg.s:1552   .text.Bootloader_ProcessCANMessage:00000000 Bootloader_ProcessCANMessage
C:\Users\Ali\AppData\Local\Temp\cc6fRbWg.s:1590   .text.Bootloader_ProcessCANMessage:00000020 $d
C:\Users\Ali\AppData\Local\Temp\cc6fRbWg.s:1597   .text.Bootloader_ProcessCANMessage:0000002e $t
C:\Users\Ali\AppData\Local\Temp\cc6fRbWg.s:2088   .text.Bootloader_ProcessCANMessage:00000224 $d
C:\Users\Ali\AppData\Local\Temp\cc6fRbWg.s:2222   .bss.rx_data:00000000 rx_data
C:\Users\Ali\AppData\Local\Temp\cc6fRbWg.s:2192   .bss.buffer_index:00000000 buffer_index
C:\Users\Ali\AppData\Local\Temp\cc6fRbWg.s:2198   .bss.flash_buffer:00000000 flash_buffer
C:\Users\Ali\AppData\Local\Temp\cc6fRbWg.s:2102   .text.HAL_CAN_RxFifo0MsgPendingCallback:00000000 $t
C:\Users\Ali\AppData\Local\Temp\cc6fRbWg.s:2108   .text.HAL_CAN_RxFifo0MsgPendingCallback:00000000 HAL_CAN_RxFifo0MsgPendingCallback
C:\Users\Ali\AppData\Local\Temp\cc6fRbWg.s:2165   .text.HAL_CAN_RxFifo0MsgPendingCallback:00000034 $d
C:\Users\Ali\AppData\Local\Temp\cc6fRbWg.s:2228   .bss.rx_header:00000000 rx_header
C:\Users\Ali\AppData\Local\Temp\cc6fRbWg.s:2173   .bss.last_heartbeat_time:00000000 $d
C:\Users\Ali\AppData\Local\Temp\cc6fRbWg.s:2182   .bss.can_command_received:00000000 $d
C:\Users\Ali\AppData\Local\Temp\cc6fRbWg.s:2187   .bss.jump_to_app_flag:00000000 $d
C:\Users\Ali\AppData\Local\Temp\cc6fRbWg.s:2189   .bss.buffer_index:00000000 $d
C:\Users\Ali\AppData\Local\Temp\cc6fRbWg.s:2195   .bss.flash_buffer:00000000 $d
C:\Users\Ali\AppData\Local\Temp\cc6fRbWg.s:2201   .bss.tx_mailbox:00000000 $d
C:\Users\Ali\AppData\Local\Temp\cc6fRbWg.s:2207   .bss.tx_header:00000000 $d
C:\Users\Ali\AppData\Local\Temp\cc6fRbWg.s:2213   .bss.tx_data:00000000 $d
C:\Users\Ali\AppData\Local\Temp\cc6fRbWg.s:2219   .bss.rx_data:00000000 $d
C:\Users\Ali\AppData\Local\Temp\cc6fRbWg.s:2225   .bss.rx_header:00000000 $d
C:\Users\Ali\AppData\Local\Temp\cc6fRbWg.s:2231   .bss.bootloader_status:00000000 $d
C:\Users\Ali\AppData\Local\Temp\cc6fRbWg.s:2237   .bss.hcan_bootloader:00000000 $d

UNDEFINED SYMBOLS
HAL_CAN_ConfigFilter
Error_Handler
HAL_CAN_GetTxMailboxesFreeLevel
HAL_Delay
HAL_FLASH_Unlock
HAL_FLASHEx_Erase
HAL_FLASH_Lock
HAL_FLASH_Program
HAL_CAN_DeactivateNotification
HAL_CAN_Stop
HAL_CAN_MspDeInit
HAL_CAN_Start
HAL_CAN_ActivateNotification
HAL_CAN_AddTxMessage
HAL_GetTick
HAL_CAN_GetRxMessage
