ARM GAS  C:\Users\Ali\AppData\Local\Temp\cc5FscdA.s 			page 1


   1              		.cpu cortex-m4
   2              		.arch armv7e-m
   3              		.fpu fpv4-sp-d16
   4              		.eabi_attribute 27, 1
   5              		.eabi_attribute 28, 1
   6              		.eabi_attribute 20, 1
   7              		.eabi_attribute 21, 1
   8              		.eabi_attribute 23, 3
   9              		.eabi_attribute 24, 1
  10              		.eabi_attribute 25, 1
  11              		.eabi_attribute 26, 1
  12              		.eabi_attribute 30, 1
  13              		.eabi_attribute 34, 1
  14              		.eabi_attribute 18, 4
  15              		.file	"bootloader.c"
  16              		.text
  17              	.Ltext0:
  18              		.cfi_sections	.debug_frame
  19              		.file 1 "Core/Src/bootloader.c"
  20              		.section	.text.Bootloader_ReadFlash,"ax",%progbits
  21              		.align	1
  22              		.syntax unified
  23              		.thumb
  24              		.thumb_func
  26              	Bootloader_ReadFlash:
  27              	.LVL0:
  28              	.LFB138:
   1:Core/Src/bootloader.c **** /* USER CODE BEGIN Header */
   2:Core/Src/bootloader.c **** /**
   3:Core/Src/bootloader.c ****   ******************************************************************************
   4:Core/Src/bootloader.c ****   * @file           : bootloader.c
   5:Core/Src/bootloader.c ****   * @brief          : CAN Bootloader implementation for STM32L432
   6:Core/Src/bootloader.c ****   ******************************************************************************
   7:Core/Src/bootloader.c ****   * @attention
   8:Core/Src/bootloader.c ****   *
   9:Core/Src/bootloader.c ****   * This bootloader implements a CAN-based firmware update mechanism.
  10:Core/Src/bootloader.c ****   * It allows flashing new application firmware via CAN bus messages.
  11:Core/Src/bootloader.c ****   *
  12:Core/Src/bootloader.c ****   ******************************************************************************
  13:Core/Src/bootloader.c ****   */
  14:Core/Src/bootloader.c **** /* USER CODE END Header */
  15:Core/Src/bootloader.c **** 
  16:Core/Src/bootloader.c **** /* Includes ------------------------------------------------------------------*/
  17:Core/Src/bootloader.c **** #include "bootloader.h"
  18:Core/Src/bootloader.c **** #include <string.h>
  19:Core/Src/bootloader.c **** 
  20:Core/Src/bootloader.c **** /* Private variables ---------------------------------------------------------*/
  21:Core/Src/bootloader.c **** static CAN_HandleTypeDef *hcan_bootloader;
  22:Core/Src/bootloader.c **** static BootloaderStatus_t bootloader_status;
  23:Core/Src/bootloader.c **** static CAN_RxHeaderTypeDef rx_header;
  24:Core/Src/bootloader.c **** static uint8_t rx_data[8];
  25:Core/Src/bootloader.c **** static uint8_t tx_data[8];
  26:Core/Src/bootloader.c **** static CAN_TxHeaderTypeDef tx_header;
  27:Core/Src/bootloader.c **** static uint32_t tx_mailbox;
  28:Core/Src/bootloader.c **** static uint8_t flash_buffer[8];     /* Buffer for 8-byte flash writes (two 4-byte chunks) */
  29:Core/Src/bootloader.c **** static uint16_t buffer_index = 0;   /* Current position in flash_buffer */
  30:Core/Src/bootloader.c **** static volatile uint8_t jump_to_app_flag = 0;  /* Flag to trigger jump from main loop */
ARM GAS  C:\Users\Ali\AppData\Local\Temp\cc5FscdA.s 			page 2


  31:Core/Src/bootloader.c **** 
  32:Core/Src/bootloader.c **** /* Private function prototypes -----------------------------------------------*/
  33:Core/Src/bootloader.c **** static void Bootloader_ConfigureCANFilter(void);
  34:Core/Src/bootloader.c **** static uint8_t Bootloader_EraseApplicationFlash(void);
  35:Core/Src/bootloader.c **** static uint8_t Bootloader_WriteFlash(uint32_t address, uint8_t *data, uint16_t length);
  36:Core/Src/bootloader.c **** static uint8_t Bootloader_ReadFlash(uint32_t address, uint8_t *data, uint16_t length);
  37:Core/Src/bootloader.c **** static void Bootloader_DeInit(void);
  38:Core/Src/bootloader.c **** static void Bootloader_SendACK(void);
  39:Core/Src/bootloader.c **** static void Bootloader_SendNACK(uint8_t error_code);
  40:Core/Src/bootloader.c **** static void Bootloader_WaitForCANTransmission(void);
  41:Core/Src/bootloader.c **** 
  42:Core/Src/bootloader.c **** /**
  43:Core/Src/bootloader.c ****   * @brief  Initialize the bootloader
  44:Core/Src/bootloader.c ****   * @param  hcan: pointer to CAN handle
  45:Core/Src/bootloader.c ****   * @retval None
  46:Core/Src/bootloader.c ****   */
  47:Core/Src/bootloader.c **** void Bootloader_Init(CAN_HandleTypeDef *hcan)
  48:Core/Src/bootloader.c **** {
  49:Core/Src/bootloader.c ****     hcan_bootloader = hcan;
  50:Core/Src/bootloader.c ****     
  51:Core/Src/bootloader.c ****     /* Initialize bootloader status */
  52:Core/Src/bootloader.c ****     memset(&bootloader_status, 0, sizeof(BootloaderStatus_t));
  53:Core/Src/bootloader.c ****     bootloader_status.state = BL_STATE_IDLE;
  54:Core/Src/bootloader.c ****     bootloader_status.current_address = APPLICATION_ADDRESS;
  55:Core/Src/bootloader.c ****     
  56:Core/Src/bootloader.c ****     /* Configure CAN filter */
  57:Core/Src/bootloader.c ****     Bootloader_ConfigureCANFilter();
  58:Core/Src/bootloader.c ****     
  59:Core/Src/bootloader.c ****     /* Start CAN peripheral */
  60:Core/Src/bootloader.c ****     if (HAL_CAN_Start(hcan_bootloader) != HAL_OK)
  61:Core/Src/bootloader.c ****     {
  62:Core/Src/bootloader.c ****         Error_Handler();
  63:Core/Src/bootloader.c ****     }
  64:Core/Src/bootloader.c ****     
  65:Core/Src/bootloader.c ****     /* Activate CAN RX notification */
  66:Core/Src/bootloader.c ****     if (HAL_CAN_ActivateNotification(hcan_bootloader, CAN_IT_RX_FIFO0_MSG_PENDING) != HAL_OK)
  67:Core/Src/bootloader.c ****     {
  68:Core/Src/bootloader.c ****         Error_Handler();
  69:Core/Src/bootloader.c ****     }
  70:Core/Src/bootloader.c ****     
  71:Core/Src/bootloader.c ****     /* Configure TX header */
  72:Core/Src/bootloader.c ****     tx_header.StdId = CAN_BOOTLOADER_ID;
  73:Core/Src/bootloader.c ****     tx_header.ExtId = 0;
  74:Core/Src/bootloader.c ****     tx_header.IDE = CAN_ID_STD;
  75:Core/Src/bootloader.c ****     tx_header.RTR = CAN_RTR_DATA;
  76:Core/Src/bootloader.c ****     tx_header.DLC = 8;
  77:Core/Src/bootloader.c ****     tx_header.TransmitGlobalTime = DISABLE;
  78:Core/Src/bootloader.c **** }
  79:Core/Src/bootloader.c **** 
  80:Core/Src/bootloader.c **** /**
  81:Core/Src/bootloader.c ****   * @brief  Configure CAN filter to accept bootloader messages
  82:Core/Src/bootloader.c ****   * @retval None
  83:Core/Src/bootloader.c ****   */
  84:Core/Src/bootloader.c **** static void Bootloader_ConfigureCANFilter(void)
  85:Core/Src/bootloader.c **** {
  86:Core/Src/bootloader.c ****     CAN_FilterTypeDef can_filter;
  87:Core/Src/bootloader.c ****     
ARM GAS  C:\Users\Ali\AppData\Local\Temp\cc5FscdA.s 			page 3


  88:Core/Src/bootloader.c ****     can_filter.FilterBank = 0;
  89:Core/Src/bootloader.c ****     can_filter.FilterMode = CAN_FILTERMODE_IDMASK;
  90:Core/Src/bootloader.c ****     can_filter.FilterScale = CAN_FILTERSCALE_32BIT;
  91:Core/Src/bootloader.c ****     can_filter.FilterIdHigh = CAN_HOST_ID << 5;
  92:Core/Src/bootloader.c ****     can_filter.FilterIdLow = 0;
  93:Core/Src/bootloader.c ****     can_filter.FilterMaskIdHigh = 0xFFE0;  /* Match exact ID */
  94:Core/Src/bootloader.c ****     can_filter.FilterMaskIdLow = 0;
  95:Core/Src/bootloader.c ****     can_filter.FilterFIFOAssignment = CAN_RX_FIFO0;
  96:Core/Src/bootloader.c ****     can_filter.FilterActivation = ENABLE;
  97:Core/Src/bootloader.c ****     can_filter.SlaveStartFilterBank = 14;
  98:Core/Src/bootloader.c ****     
  99:Core/Src/bootloader.c ****     if (HAL_CAN_ConfigFilter(hcan_bootloader, &can_filter) != HAL_OK)
 100:Core/Src/bootloader.c ****     {
 101:Core/Src/bootloader.c ****         Error_Handler();
 102:Core/Src/bootloader.c ****     }
 103:Core/Src/bootloader.c **** }
 104:Core/Src/bootloader.c **** 
 105:Core/Src/bootloader.c **** /**
 106:Core/Src/bootloader.c ****   * @brief  Main bootloader loop
 107:Core/Src/bootloader.c ****   * @retval None
 108:Core/Src/bootloader.c ****   */
 109:Core/Src/bootloader.c **** void Bootloader_Main(void)
 110:Core/Src/bootloader.c **** {
 111:Core/Src/bootloader.c ****     uint32_t timeout_start = HAL_GetTick();
 112:Core/Src/bootloader.c ****     uint8_t timeout_expired = 0;
 113:Core/Src/bootloader.c ****     
 114:Core/Src/bootloader.c ****     /* Send ready message */
 115:Core/Src/bootloader.c ****     tx_data[0] = RESP_READY;
 116:Core/Src/bootloader.c ****     tx_data[1] = 0x01;  /* Bootloader version */
 117:Core/Src/bootloader.c ****     tx_data[2] = 0x00;  /* Bootloader subversion */
 118:Core/Src/bootloader.c ****     Bootloader_SendCANMessage(RESP_READY, tx_data, 3);
 119:Core/Src/bootloader.c ****     
 120:Core/Src/bootloader.c ****     /* Main bootloader loop with timeout */
 121:Core/Src/bootloader.c ****     while (1)
 122:Core/Src/bootloader.c ****     {
 123:Core/Src/bootloader.c ****         /* Check for 5-second timeout to auto-jump to application */
 124:Core/Src/bootloader.c ****         if (!timeout_expired && (HAL_GetTick() - timeout_start >= BOOTLOADER_TIMEOUT_MS))
 125:Core/Src/bootloader.c ****         {
 126:Core/Src/bootloader.c ****             timeout_expired = 1;
 127:Core/Src/bootloader.c ****             
 128:Core/Src/bootloader.c ****             /* Only jump if we have a valid application flag set */
 129:Core/Src/bootloader.c ****             if (Bootloader_CheckApplicationValidFlag())
 130:Core/Src/bootloader.c ****             {
 131:Core/Src/bootloader.c ****                 /* Send timeout jump message */
 132:Core/Src/bootloader.c ****                 tx_data[0] = RESP_READY;
 133:Core/Src/bootloader.c ****                 tx_data[1] = 0xAA;  /* Special: Timeout auto-jump */
 134:Core/Src/bootloader.c ****                 tx_data[2] = 0x55;
 135:Core/Src/bootloader.c ****                 Bootloader_SendCANMessage(RESP_READY, tx_data, 3);
 136:Core/Src/bootloader.c ****                 
 137:Core/Src/bootloader.c ****                 /* Wait for message to send */
 138:Core/Src/bootloader.c ****                 Bootloader_WaitForCANTransmission();
 139:Core/Src/bootloader.c ****                 HAL_Delay(10);
 140:Core/Src/bootloader.c ****                 
 141:Core/Src/bootloader.c ****                 /* Jump to application */
 142:Core/Src/bootloader.c ****                 Bootloader_JumpToApplication();
 143:Core/Src/bootloader.c ****             }
 144:Core/Src/bootloader.c ****             /* If no valid app, stay in bootloader mode indefinitely */
ARM GAS  C:\Users\Ali\AppData\Local\Temp\cc5FscdA.s 			page 4


 145:Core/Src/bootloader.c ****         }
 146:Core/Src/bootloader.c ****         
 147:Core/Src/bootloader.c ****         /* Check if we should jump to application (from CAN command) */
 148:Core/Src/bootloader.c ****         if (jump_to_app_flag)
 149:Core/Src/bootloader.c ****         {
 150:Core/Src/bootloader.c ****             /* Send a pre-jump indicator message (using READY with special code) */
 151:Core/Src/bootloader.c ****             tx_data[0] = RESP_READY;
 152:Core/Src/bootloader.c ****             tx_data[1] = 0xFF;  /* Special: About to jump */
 153:Core/Src/bootloader.c ****             tx_data[2] = 0xFF;
 154:Core/Src/bootloader.c ****             Bootloader_SendCANMessage(RESP_READY, tx_data, 3);
 155:Core/Src/bootloader.c ****             
 156:Core/Src/bootloader.c ****             /* Wait for this message to be sent */
 157:Core/Src/bootloader.c ****             Bootloader_WaitForCANTransmission();
 158:Core/Src/bootloader.c ****             
 159:Core/Src/bootloader.c ****             /* Jump to application (this function should not return) */
 160:Core/Src/bootloader.c ****             Bootloader_JumpToApplication();
 161:Core/Src/bootloader.c ****             
 162:Core/Src/bootloader.c ****             /* If we get here, jump failed - reset the flag */
 163:Core/Src/bootloader.c ****             jump_to_app_flag = 0;
 164:Core/Src/bootloader.c ****         }
 165:Core/Src/bootloader.c ****         
 166:Core/Src/bootloader.c ****         /* Process received CAN messages (handled in interrupt) */
 167:Core/Src/bootloader.c ****         HAL_Delay(1);
 168:Core/Src/bootloader.c ****     }
 169:Core/Src/bootloader.c **** }
 170:Core/Src/bootloader.c **** 
 171:Core/Src/bootloader.c **** /**
 172:Core/Src/bootloader.c ****   * @brief  Process received CAN message
 173:Core/Src/bootloader.c ****   * @retval None
 174:Core/Src/bootloader.c ****   */
 175:Core/Src/bootloader.c **** void Bootloader_ProcessCANMessage(void)
 176:Core/Src/bootloader.c **** {
 177:Core/Src/bootloader.c ****     uint8_t command;
 178:Core/Src/bootloader.c ****     uint32_t address;
 179:Core/Src/bootloader.c ****     uint16_t length;
 180:Core/Src/bootloader.c ****     uint8_t result;
 181:Core/Src/bootloader.c ****     
 182:Core/Src/bootloader.c ****     /* Get the command byte */
 183:Core/Src/bootloader.c ****     command = rx_data[0];
 184:Core/Src/bootloader.c ****     
 185:Core/Src/bootloader.c ****     switch (command)
 186:Core/Src/bootloader.c ****     {
 187:Core/Src/bootloader.c ****         case CMD_GET_STATUS:
 188:Core/Src/bootloader.c ****             /* Send status information */
 189:Core/Src/bootloader.c ****             tx_data[0] = RESP_DATA;
 190:Core/Src/bootloader.c ****             tx_data[1] = bootloader_status.state;
 191:Core/Src/bootloader.c ****             tx_data[2] = bootloader_status.last_error;
 192:Core/Src/bootloader.c ****             tx_data[3] = (bootloader_status.bytes_written >> 24) & 0xFF;
 193:Core/Src/bootloader.c ****             tx_data[4] = (bootloader_status.bytes_written >> 16) & 0xFF;
 194:Core/Src/bootloader.c ****             tx_data[5] = (bootloader_status.bytes_written >> 8) & 0xFF;
 195:Core/Src/bootloader.c ****             tx_data[6] = bootloader_status.bytes_written & 0xFF;
 196:Core/Src/bootloader.c ****             Bootloader_SendCANMessage(RESP_DATA, tx_data, 8);
 197:Core/Src/bootloader.c ****             break;
 198:Core/Src/bootloader.c ****             
 199:Core/Src/bootloader.c ****         case CMD_ERASE_FLASH:
 200:Core/Src/bootloader.c ****             /* Erase application flash area */
 201:Core/Src/bootloader.c ****             bootloader_status.state = BL_STATE_ERASING;
ARM GAS  C:\Users\Ali\AppData\Local\Temp\cc5FscdA.s 			page 5


 202:Core/Src/bootloader.c ****             
 203:Core/Src/bootloader.c ****             /* Clear the application valid flag first */
 204:Core/Src/bootloader.c ****             Bootloader_ClearApplicationValidFlag();
 205:Core/Src/bootloader.c ****             
 206:Core/Src/bootloader.c ****             result = Bootloader_EraseApplicationFlash();
 207:Core/Src/bootloader.c ****             if (result == ERR_NONE)
 208:Core/Src/bootloader.c ****             {
 209:Core/Src/bootloader.c ****                 bootloader_status.bytes_written = 0;
 210:Core/Src/bootloader.c ****                 bootloader_status.current_address = APPLICATION_ADDRESS;
 211:Core/Src/bootloader.c ****                 Bootloader_SendACK();
 212:Core/Src/bootloader.c ****             }
 213:Core/Src/bootloader.c ****             else
 214:Core/Src/bootloader.c ****             {
 215:Core/Src/bootloader.c ****                 Bootloader_SendNACK(result);
 216:Core/Src/bootloader.c ****             }
 217:Core/Src/bootloader.c ****             bootloader_status.state = BL_STATE_IDLE;
 218:Core/Src/bootloader.c ****             break;
 219:Core/Src/bootloader.c ****             
 220:Core/Src/bootloader.c ****         case CMD_SET_ADDRESS:
 221:Core/Src/bootloader.c ****             /* Set the current write address */
 222:Core/Src/bootloader.c ****             address = (rx_data[1] << 24) | (rx_data[2] << 16) | 
 223:Core/Src/bootloader.c ****                      (rx_data[3] << 8) | rx_data[4];
 224:Core/Src/bootloader.c ****             
 225:Core/Src/bootloader.c ****             /* Validate address is in application area */
 226:Core/Src/bootloader.c ****             if (address >= APPLICATION_ADDRESS && address <= FLASH_END_ADDRESS)
 227:Core/Src/bootloader.c ****             {
 228:Core/Src/bootloader.c ****                 bootloader_status.current_address = address;
 229:Core/Src/bootloader.c ****                 buffer_index = 0;  /* Reset buffer */
 230:Core/Src/bootloader.c ****                 Bootloader_SendACK();
 231:Core/Src/bootloader.c ****             }
 232:Core/Src/bootloader.c ****             else
 233:Core/Src/bootloader.c ****             {
 234:Core/Src/bootloader.c ****                 Bootloader_SendNACK(ERR_INVALID_ADDRESS);
 235:Core/Src/bootloader.c ****             }
 236:Core/Src/bootloader.c ****             break;
 237:Core/Src/bootloader.c ****             
 238:Core/Src/bootloader.c ****         case CMD_WRITE_DATA:
 239:Core/Src/bootloader.c ****             /* Write data to flash at current address */
 240:Core/Src/bootloader.c ****             /* Expected format: [CMD] [0x04] [byte0] [byte1] [byte2] [byte3] ... */
 241:Core/Src/bootloader.c ****             /* Receives 4 bytes per message, buffers two messages (8 bytes) before writing */
 242:Core/Src/bootloader.c ****             bootloader_status.state = BL_STATE_WRITING;
 243:Core/Src/bootloader.c ****             length = rx_data[1];  /* Data length - should always be 4 */
 244:Core/Src/bootloader.c ****             
 245:Core/Src/bootloader.c ****             if (length != 4)
 246:Core/Src/bootloader.c ****             {
 247:Core/Src/bootloader.c ****                 Bootloader_SendNACK(ERR_INVALID_DATA_LENGTH);
 248:Core/Src/bootloader.c ****                 bootloader_status.state = BL_STATE_IDLE;
 249:Core/Src/bootloader.c ****                 buffer_index = 0;  /* Reset buffer on error */
 250:Core/Src/bootloader.c ****                 break;
 251:Core/Src/bootloader.c ****             }
 252:Core/Src/bootloader.c ****             
 253:Core/Src/bootloader.c ****             /* Copy 4 bytes to buffer */
 254:Core/Src/bootloader.c ****             for (uint8_t i = 0; i < 4; i++)
 255:Core/Src/bootloader.c ****             {
 256:Core/Src/bootloader.c ****                 flash_buffer[buffer_index++] = rx_data[2 + i];
 257:Core/Src/bootloader.c ****             }
 258:Core/Src/bootloader.c ****             
ARM GAS  C:\Users\Ali\AppData\Local\Temp\cc5FscdA.s 			page 6


 259:Core/Src/bootloader.c ****             /* Write to flash when we have 8 bytes (two 4-byte chunks) */
 260:Core/Src/bootloader.c ****             if (buffer_index >= 8)
 261:Core/Src/bootloader.c ****             {
 262:Core/Src/bootloader.c ****                 result = Bootloader_WriteFlash(bootloader_status.current_address, 
 263:Core/Src/bootloader.c ****                                                flash_buffer, 8);
 264:Core/Src/bootloader.c ****                 if (result == ERR_NONE)
 265:Core/Src/bootloader.c ****                 {
 266:Core/Src/bootloader.c ****                     bootloader_status.current_address += 8;
 267:Core/Src/bootloader.c ****                     bootloader_status.bytes_written += 8;
 268:Core/Src/bootloader.c ****                     buffer_index = 0;
 269:Core/Src/bootloader.c ****                     Bootloader_SendACK();
 270:Core/Src/bootloader.c ****                 }
 271:Core/Src/bootloader.c ****                 else
 272:Core/Src/bootloader.c ****                 {
 273:Core/Src/bootloader.c ****                     buffer_index = 0;  /* Reset buffer on write failure */
 274:Core/Src/bootloader.c ****                     Bootloader_SendNACK(result);
 275:Core/Src/bootloader.c ****                 }
 276:Core/Src/bootloader.c ****             }
 277:Core/Src/bootloader.c ****             else
 278:Core/Src/bootloader.c ****             {
 279:Core/Src/bootloader.c ****                 Bootloader_SendACK();  /* Data buffered, waiting for more */
 280:Core/Src/bootloader.c ****             }
 281:Core/Src/bootloader.c ****             
 282:Core/Src/bootloader.c ****             bootloader_status.state = BL_STATE_IDLE;
 283:Core/Src/bootloader.c ****             break;
 284:Core/Src/bootloader.c ****             
 285:Core/Src/bootloader.c ****         case CMD_WRITE_FLASH:
 286:Core/Src/bootloader.c ****             /* Legacy write command - write address and data in one message */
 287:Core/Src/bootloader.c ****             address = (rx_data[1] << 24) | (rx_data[2] << 16) | 
 288:Core/Src/bootloader.c ****                      (rx_data[3] << 8) | rx_data[4];
 289:Core/Src/bootloader.c ****             length = rx_data[5];
 290:Core/Src/bootloader.c ****             
 291:Core/Src/bootloader.c ****             if (address >= APPLICATION_ADDRESS && address <= FLASH_END_ADDRESS)
 292:Core/Src/bootloader.c ****             {
 293:Core/Src/bootloader.c ****                 bootloader_status.state = BL_STATE_WRITING;
 294:Core/Src/bootloader.c ****                 result = Bootloader_WriteFlash(address, &rx_data[6], length);
 295:Core/Src/bootloader.c ****                 if (result == ERR_NONE)
 296:Core/Src/bootloader.c ****                 {
 297:Core/Src/bootloader.c ****                     Bootloader_SendACK();
 298:Core/Src/bootloader.c ****                 }
 299:Core/Src/bootloader.c ****                 else
 300:Core/Src/bootloader.c ****                 {
 301:Core/Src/bootloader.c ****                     Bootloader_SendNACK(result);
 302:Core/Src/bootloader.c ****                 }
 303:Core/Src/bootloader.c ****                 bootloader_status.state = BL_STATE_IDLE;
 304:Core/Src/bootloader.c ****             }
 305:Core/Src/bootloader.c ****             else
 306:Core/Src/bootloader.c ****             {
 307:Core/Src/bootloader.c ****                 Bootloader_SendNACK(ERR_INVALID_ADDRESS);
 308:Core/Src/bootloader.c ****             }
 309:Core/Src/bootloader.c ****             break;
 310:Core/Src/bootloader.c ****             
 311:Core/Src/bootloader.c ****         case CMD_READ_FLASH:
 312:Core/Src/bootloader.c ****             /* Read flash memory */
 313:Core/Src/bootloader.c ****             address = (rx_data[1] << 24) | (rx_data[2] << 16) | 
 314:Core/Src/bootloader.c ****                      (rx_data[3] << 8) | rx_data[4];
 315:Core/Src/bootloader.c ****             length = rx_data[5];
ARM GAS  C:\Users\Ali\AppData\Local\Temp\cc5FscdA.s 			page 7


 316:Core/Src/bootloader.c ****             
 317:Core/Src/bootloader.c ****             if (address >= APPLICATION_ADDRESS && address <= FLASH_END_ADDRESS && length <= 7)
 318:Core/Src/bootloader.c ****             {
 319:Core/Src/bootloader.c ****                 bootloader_status.state = BL_STATE_READING;
 320:Core/Src/bootloader.c ****                 tx_data[0] = RESP_DATA;
 321:Core/Src/bootloader.c ****                 result = Bootloader_ReadFlash(address, &tx_data[1], length);
 322:Core/Src/bootloader.c ****                 if (result == ERR_NONE)
 323:Core/Src/bootloader.c ****                 {
 324:Core/Src/bootloader.c ****                     Bootloader_SendCANMessage(RESP_DATA, tx_data, length + 1);
 325:Core/Src/bootloader.c ****                 }
 326:Core/Src/bootloader.c ****                 else
 327:Core/Src/bootloader.c ****                 {
 328:Core/Src/bootloader.c ****                     Bootloader_SendNACK(result);
 329:Core/Src/bootloader.c ****                 }
 330:Core/Src/bootloader.c ****                 bootloader_status.state = BL_STATE_IDLE;
 331:Core/Src/bootloader.c ****             }
 332:Core/Src/bootloader.c ****             else
 333:Core/Src/bootloader.c ****             {
 334:Core/Src/bootloader.c ****                 Bootloader_SendNACK(ERR_INVALID_ADDRESS);
 335:Core/Src/bootloader.c ****             }
 336:Core/Src/bootloader.c ****             break;
 337:Core/Src/bootloader.c ****             
 338:Core/Src/bootloader.c ****         case CMD_JUMP_TO_APP:
 339:Core/Src/bootloader.c ****             /* Jump to application - set flag to jump from main loop, not from interrupt */
 340:Core/Src/bootloader.c ****             if (Bootloader_CheckValidApplication())
 341:Core/Src/bootloader.c ****             {
 342:Core/Src/bootloader.c ****                 /* Set the valid application flag in flash for future auto-boots */
 343:Core/Src/bootloader.c ****                 result = Bootloader_SetApplicationValidFlag();
 344:Core/Src/bootloader.c ****                 if (result != ERR_NONE)
 345:Core/Src/bootloader.c ****                 {
 346:Core/Src/bootloader.c ****                     /* Log error but still try to jump - flag write failure shouldn't prevent immed
 347:Core/Src/bootloader.c ****                     bootloader_status.last_error = result;
 348:Core/Src/bootloader.c ****                 }
 349:Core/Src/bootloader.c ****                 
 350:Core/Src/bootloader.c ****                 Bootloader_SendACK();
 351:Core/Src/bootloader.c ****                 jump_to_app_flag = 1;  /* Set flag to trigger jump from main loop */
 352:Core/Src/bootloader.c ****             }
 353:Core/Src/bootloader.c ****             else
 354:Core/Src/bootloader.c ****             {
 355:Core/Src/bootloader.c ****                 Bootloader_SendNACK(ERR_NO_VALID_APP);
 356:Core/Src/bootloader.c ****             }
 357:Core/Src/bootloader.c ****             break;
 358:Core/Src/bootloader.c ****             
 359:Core/Src/bootloader.c ****         default:
 360:Core/Src/bootloader.c ****             /* Unknown command */
 361:Core/Src/bootloader.c ****             Bootloader_SendNACK(ERR_INVALID_COMMAND);
 362:Core/Src/bootloader.c ****             break;
 363:Core/Src/bootloader.c ****     }
 364:Core/Src/bootloader.c **** }
 365:Core/Src/bootloader.c **** 
 366:Core/Src/bootloader.c **** /**
 367:Core/Src/bootloader.c ****   * @brief  Erase application flash area
 368:Core/Src/bootloader.c ****   * @retval Error code
 369:Core/Src/bootloader.c ****   */
 370:Core/Src/bootloader.c **** static uint8_t Bootloader_EraseApplicationFlash(void)
 371:Core/Src/bootloader.c **** {
 372:Core/Src/bootloader.c ****     FLASH_EraseInitTypeDef erase_init;
ARM GAS  C:\Users\Ali\AppData\Local\Temp\cc5FscdA.s 			page 8


 373:Core/Src/bootloader.c ****     uint32_t page_error;
 374:Core/Src/bootloader.c ****     HAL_StatusTypeDef status;
 375:Core/Src/bootloader.c ****     
 376:Core/Src/bootloader.c ****     /* Calculate first and last pages for application */
 377:Core/Src/bootloader.c ****     uint32_t first_page = (APPLICATION_ADDRESS - 0x08000000) / FLASH_PAGE_SIZE;
 378:Core/Src/bootloader.c ****     uint32_t num_pages = APPLICATION_SIZE / FLASH_PAGE_SIZE;
 379:Core/Src/bootloader.c ****     
 380:Core/Src/bootloader.c ****     /* Unlock flash */
 381:Core/Src/bootloader.c ****     HAL_FLASH_Unlock();
 382:Core/Src/bootloader.c ****     
 383:Core/Src/bootloader.c ****     /* Clear all flash flags */
 384:Core/Src/bootloader.c ****     __HAL_FLASH_CLEAR_FLAG(FLASH_FLAG_ALL_ERRORS);
 385:Core/Src/bootloader.c ****     
 386:Core/Src/bootloader.c ****     /* Configure erase */
 387:Core/Src/bootloader.c ****     erase_init.TypeErase = FLASH_TYPEERASE_PAGES;
 388:Core/Src/bootloader.c ****     erase_init.Banks = FLASH_BANK_1;
 389:Core/Src/bootloader.c ****     erase_init.Page = first_page;
 390:Core/Src/bootloader.c ****     erase_init.NbPages = num_pages;
 391:Core/Src/bootloader.c ****     
 392:Core/Src/bootloader.c ****     /* Perform erase */
 393:Core/Src/bootloader.c ****     status = HAL_FLASHEx_Erase(&erase_init, &page_error);
 394:Core/Src/bootloader.c ****     
 395:Core/Src/bootloader.c ****     /* Lock flash */
 396:Core/Src/bootloader.c ****     HAL_FLASH_Lock();
 397:Core/Src/bootloader.c ****     
 398:Core/Src/bootloader.c ****     if (status != HAL_OK)
 399:Core/Src/bootloader.c ****     {
 400:Core/Src/bootloader.c ****         bootloader_status.last_error = ERR_FLASH_ERASE_FAILED;
 401:Core/Src/bootloader.c ****         return ERR_FLASH_ERASE_FAILED;
 402:Core/Src/bootloader.c ****     }
 403:Core/Src/bootloader.c ****     
 404:Core/Src/bootloader.c ****     bootloader_status.last_error = ERR_NONE;
 405:Core/Src/bootloader.c ****     return ERR_NONE;
 406:Core/Src/bootloader.c **** }
 407:Core/Src/bootloader.c **** 
 408:Core/Src/bootloader.c **** /**
 409:Core/Src/bootloader.c ****   * @brief  Write data to flash
 410:Core/Src/bootloader.c ****   * @param  address: Flash address to write
 411:Core/Src/bootloader.c ****   * @param  data: Pointer to data buffer
 412:Core/Src/bootloader.c ****   * @param  length: Number of bytes to write (must be multiple of 8)
 413:Core/Src/bootloader.c ****   * @retval Error code
 414:Core/Src/bootloader.c ****   */
 415:Core/Src/bootloader.c **** static uint8_t Bootloader_WriteFlash(uint32_t address, uint8_t *data, uint16_t length)
 416:Core/Src/bootloader.c **** {
 417:Core/Src/bootloader.c ****     HAL_StatusTypeDef status = HAL_OK;
 418:Core/Src/bootloader.c ****     uint32_t i;
 419:Core/Src/bootloader.c ****     uint64_t data64;
 420:Core/Src/bootloader.c ****     
 421:Core/Src/bootloader.c ****     /* Validate parameters */
 422:Core/Src/bootloader.c ****     if (address < APPLICATION_ADDRESS || address > FLASH_END_ADDRESS)
 423:Core/Src/bootloader.c ****     {
 424:Core/Src/bootloader.c ****         bootloader_status.last_error = ERR_INVALID_ADDRESS;
 425:Core/Src/bootloader.c ****         return ERR_INVALID_ADDRESS;
 426:Core/Src/bootloader.c ****     }
 427:Core/Src/bootloader.c ****     
 428:Core/Src/bootloader.c ****     /* Length must be multiple of 8 for double word programming */
 429:Core/Src/bootloader.c ****     if (length % 8 != 0)
ARM GAS  C:\Users\Ali\AppData\Local\Temp\cc5FscdA.s 			page 9


 430:Core/Src/bootloader.c ****     {
 431:Core/Src/bootloader.c ****         bootloader_status.last_error = ERR_INVALID_DATA_LENGTH;
 432:Core/Src/bootloader.c ****         return ERR_INVALID_DATA_LENGTH;
 433:Core/Src/bootloader.c ****     }
 434:Core/Src/bootloader.c ****     
 435:Core/Src/bootloader.c ****     /* Unlock flash */
 436:Core/Src/bootloader.c ****     HAL_FLASH_Unlock();
 437:Core/Src/bootloader.c ****     
 438:Core/Src/bootloader.c ****     /* Clear all flash flags */
 439:Core/Src/bootloader.c ****     __HAL_FLASH_CLEAR_FLAG(FLASH_FLAG_ALL_ERRORS);
 440:Core/Src/bootloader.c ****     
 441:Core/Src/bootloader.c ****     /* Write data in 64-bit chunks */
 442:Core/Src/bootloader.c ****     for (i = 0; i < length; i += 8)
 443:Core/Src/bootloader.c ****     {
 444:Core/Src/bootloader.c ****         /* Combine 8 bytes into 64-bit value */
 445:Core/Src/bootloader.c ****         data64 = ((uint64_t)data[i + 0] << 0)  |
 446:Core/Src/bootloader.c ****                  ((uint64_t)data[i + 1] << 8)  |
 447:Core/Src/bootloader.c ****                  ((uint64_t)data[i + 2] << 16) |
 448:Core/Src/bootloader.c ****                  ((uint64_t)data[i + 3] << 24) |
 449:Core/Src/bootloader.c ****                  ((uint64_t)data[i + 4] << 32) |
 450:Core/Src/bootloader.c ****                  ((uint64_t)data[i + 5] << 40) |
 451:Core/Src/bootloader.c ****                  ((uint64_t)data[i + 6] << 48) |
 452:Core/Src/bootloader.c ****                  ((uint64_t)data[i + 7] << 56);
 453:Core/Src/bootloader.c ****         
 454:Core/Src/bootloader.c ****         status = HAL_FLASH_Program(FLASH_TYPEPROGRAM_DOUBLEWORD, address + i, data64);
 455:Core/Src/bootloader.c ****         
 456:Core/Src/bootloader.c ****         if (status != HAL_OK)
 457:Core/Src/bootloader.c ****         {
 458:Core/Src/bootloader.c ****             break;
 459:Core/Src/bootloader.c ****         }
 460:Core/Src/bootloader.c ****     }
 461:Core/Src/bootloader.c ****     
 462:Core/Src/bootloader.c ****     /* Lock flash */
 463:Core/Src/bootloader.c ****     HAL_FLASH_Lock();
 464:Core/Src/bootloader.c ****     
 465:Core/Src/bootloader.c ****     if (status != HAL_OK)
 466:Core/Src/bootloader.c ****     {
 467:Core/Src/bootloader.c ****         bootloader_status.last_error = ERR_FLASH_WRITE_FAILED;
 468:Core/Src/bootloader.c ****         return ERR_FLASH_WRITE_FAILED;
 469:Core/Src/bootloader.c ****     }
 470:Core/Src/bootloader.c ****     
 471:Core/Src/bootloader.c ****     bootloader_status.last_error = ERR_NONE;
 472:Core/Src/bootloader.c ****     return ERR_NONE;
 473:Core/Src/bootloader.c **** }
 474:Core/Src/bootloader.c **** 
 475:Core/Src/bootloader.c **** /**
 476:Core/Src/bootloader.c ****   * @brief  Read data from flash
 477:Core/Src/bootloader.c ****   * @param  address: Flash address to read
 478:Core/Src/bootloader.c ****   * @param  data: Pointer to data buffer
 479:Core/Src/bootloader.c ****   * @param  length: Number of bytes to read
 480:Core/Src/bootloader.c ****   * @retval Error code
 481:Core/Src/bootloader.c ****   */
 482:Core/Src/bootloader.c **** static uint8_t Bootloader_ReadFlash(uint32_t address, uint8_t *data, uint16_t length)
 483:Core/Src/bootloader.c **** {
  29              		.loc 1 483 1 view -0
  30              		.cfi_startproc
  31              		@ args = 0, pretend = 0, frame = 0
ARM GAS  C:\Users\Ali\AppData\Local\Temp\cc5FscdA.s 			page 10


  32              		@ frame_needed = 0, uses_anonymous_args = 0
  33              		@ link register save eliminated.
 484:Core/Src/bootloader.c ****     uint16_t i;
  34              		.loc 1 484 5 view .LVU1
 485:Core/Src/bootloader.c ****     uint8_t *flash_ptr = (uint8_t *)address;
  35              		.loc 1 485 5 view .LVU2
 486:Core/Src/bootloader.c ****     
 487:Core/Src/bootloader.c ****     /* Validate address */
 488:Core/Src/bootloader.c ****     if (address < APPLICATION_ADDRESS || address > FLASH_END_ADDRESS)
  36              		.loc 1 488 5 view .LVU3
  37              		.loc 1 488 39 is_stmt 0 view .LVU4
  38 0000 00F17843 		add	r3, r0, #-134217728
  39 0004 A3F50043 		sub	r3, r3, #32768
  40              		.loc 1 488 8 view .LVU5
  41 0008 B3F5603F 		cmp	r3, #229376
  42 000c 0BD2     		bcs	.L5
 489:Core/Src/bootloader.c ****     {
 490:Core/Src/bootloader.c ****         return ERR_INVALID_ADDRESS;
 491:Core/Src/bootloader.c ****     }
 492:Core/Src/bootloader.c ****     
 493:Core/Src/bootloader.c ****     /* Read data */
 494:Core/Src/bootloader.c ****     for (i = 0; i < length; i++)
  43              		.loc 1 494 12 view .LVU6
  44 000e 0023     		movs	r3, #0
  45 0010 05E0     		b	.L3
  46              	.LVL1:
  47              	.L4:
 495:Core/Src/bootloader.c ****     {
 496:Core/Src/bootloader.c ****         data[i] = flash_ptr[i];
  48              		.loc 1 496 9 is_stmt 1 view .LVU7
  49              		.loc 1 496 28 is_stmt 0 view .LVU8
  50 0012 10F803C0 		ldrb	ip, [r0, r3]	@ zero_extendqisi2
  51              		.loc 1 496 17 view .LVU9
  52 0016 01F803C0 		strb	ip, [r1, r3]
 494:Core/Src/bootloader.c ****     {
  53              		.loc 1 494 30 is_stmt 1 discriminator 3 view .LVU10
  54 001a 0133     		adds	r3, r3, #1
  55              	.LVL2:
 494:Core/Src/bootloader.c ****     {
  56              		.loc 1 494 30 is_stmt 0 discriminator 3 view .LVU11
  57 001c 9BB2     		uxth	r3, r3
  58              	.LVL3:
  59              	.L3:
 494:Core/Src/bootloader.c ****     {
  60              		.loc 1 494 19 is_stmt 1 discriminator 1 view .LVU12
  61 001e 9342     		cmp	r3, r2
  62 0020 F7D3     		bcc	.L4
 497:Core/Src/bootloader.c ****     }
 498:Core/Src/bootloader.c ****     
 499:Core/Src/bootloader.c ****     return ERR_NONE;
  63              		.loc 1 499 12 is_stmt 0 view .LVU13
  64 0022 0020     		movs	r0, #0
  65              	.LVL4:
  66              		.loc 1 499 12 view .LVU14
  67 0024 7047     		bx	lr
  68              	.LVL5:
  69              	.L5:
ARM GAS  C:\Users\Ali\AppData\Local\Temp\cc5FscdA.s 			page 11


 490:Core/Src/bootloader.c ****     }
  70              		.loc 1 490 16 view .LVU15
  71 0026 0220     		movs	r0, #2
  72              	.LVL6:
 500:Core/Src/bootloader.c **** }
  73              		.loc 1 500 1 view .LVU16
  74 0028 7047     		bx	lr
  75              		.cfi_endproc
  76              	.LFE138:
  78              		.section	.text.Bootloader_ConfigureCANFilter,"ax",%progbits
  79              		.align	1
  80              		.syntax unified
  81              		.thumb
  82              		.thumb_func
  84              	Bootloader_ConfigureCANFilter:
  85              	.LFB133:
  85:Core/Src/bootloader.c ****     CAN_FilterTypeDef can_filter;
  86              		.loc 1 85 1 is_stmt 1 view -0
  87              		.cfi_startproc
  88              		@ args = 0, pretend = 0, frame = 40
  89              		@ frame_needed = 0, uses_anonymous_args = 0
  90 0000 00B5     		push	{lr}
  91              		.cfi_def_cfa_offset 4
  92              		.cfi_offset 14, -4
  93 0002 8BB0     		sub	sp, sp, #44
  94              		.cfi_def_cfa_offset 48
  86:Core/Src/bootloader.c ****     
  95              		.loc 1 86 5 view .LVU18
  88:Core/Src/bootloader.c ****     can_filter.FilterMode = CAN_FILTERMODE_IDMASK;
  96              		.loc 1 88 5 view .LVU19
  88:Core/Src/bootloader.c ****     can_filter.FilterMode = CAN_FILTERMODE_IDMASK;
  97              		.loc 1 88 27 is_stmt 0 view .LVU20
  98 0004 0023     		movs	r3, #0
  99 0006 0593     		str	r3, [sp, #20]
  89:Core/Src/bootloader.c ****     can_filter.FilterScale = CAN_FILTERSCALE_32BIT;
 100              		.loc 1 89 5 is_stmt 1 view .LVU21
  89:Core/Src/bootloader.c ****     can_filter.FilterScale = CAN_FILTERSCALE_32BIT;
 101              		.loc 1 89 27 is_stmt 0 view .LVU22
 102 0008 0693     		str	r3, [sp, #24]
  90:Core/Src/bootloader.c ****     can_filter.FilterIdHigh = CAN_HOST_ID << 5;
 103              		.loc 1 90 5 is_stmt 1 view .LVU23
  90:Core/Src/bootloader.c ****     can_filter.FilterIdHigh = CAN_HOST_ID << 5;
 104              		.loc 1 90 28 is_stmt 0 view .LVU24
 105 000a 0122     		movs	r2, #1
 106 000c 0792     		str	r2, [sp, #28]
  91:Core/Src/bootloader.c ****     can_filter.FilterIdLow = 0;
 107              		.loc 1 91 5 is_stmt 1 view .LVU25
  91:Core/Src/bootloader.c ****     can_filter.FilterIdLow = 0;
 108              		.loc 1 91 29 is_stmt 0 view .LVU26
 109 000e 4EF22001 		movw	r1, #57376
 110 0012 0091     		str	r1, [sp]
  92:Core/Src/bootloader.c ****     can_filter.FilterMaskIdHigh = 0xFFE0;  /* Match exact ID */
 111              		.loc 1 92 5 is_stmt 1 view .LVU27
  92:Core/Src/bootloader.c ****     can_filter.FilterMaskIdHigh = 0xFFE0;  /* Match exact ID */
 112              		.loc 1 92 28 is_stmt 0 view .LVU28
 113 0014 0193     		str	r3, [sp, #4]
  93:Core/Src/bootloader.c ****     can_filter.FilterMaskIdLow = 0;
ARM GAS  C:\Users\Ali\AppData\Local\Temp\cc5FscdA.s 			page 12


 114              		.loc 1 93 5 is_stmt 1 view .LVU29
  93:Core/Src/bootloader.c ****     can_filter.FilterMaskIdLow = 0;
 115              		.loc 1 93 33 is_stmt 0 view .LVU30
 116 0016 4FF6E071 		movw	r1, #65504
 117 001a 0291     		str	r1, [sp, #8]
  94:Core/Src/bootloader.c ****     can_filter.FilterFIFOAssignment = CAN_RX_FIFO0;
 118              		.loc 1 94 5 is_stmt 1 view .LVU31
  94:Core/Src/bootloader.c ****     can_filter.FilterFIFOAssignment = CAN_RX_FIFO0;
 119              		.loc 1 94 32 is_stmt 0 view .LVU32
 120 001c 0393     		str	r3, [sp, #12]
  95:Core/Src/bootloader.c ****     can_filter.FilterActivation = ENABLE;
 121              		.loc 1 95 5 is_stmt 1 view .LVU33
  95:Core/Src/bootloader.c ****     can_filter.FilterActivation = ENABLE;
 122              		.loc 1 95 37 is_stmt 0 view .LVU34
 123 001e 0493     		str	r3, [sp, #16]
  96:Core/Src/bootloader.c ****     can_filter.SlaveStartFilterBank = 14;
 124              		.loc 1 96 5 is_stmt 1 view .LVU35
  96:Core/Src/bootloader.c ****     can_filter.SlaveStartFilterBank = 14;
 125              		.loc 1 96 33 is_stmt 0 view .LVU36
 126 0020 0892     		str	r2, [sp, #32]
  97:Core/Src/bootloader.c ****     
 127              		.loc 1 97 5 is_stmt 1 view .LVU37
  97:Core/Src/bootloader.c ****     
 128              		.loc 1 97 37 is_stmt 0 view .LVU38
 129 0022 0E23     		movs	r3, #14
 130 0024 0993     		str	r3, [sp, #36]
  99:Core/Src/bootloader.c ****     {
 131              		.loc 1 99 5 is_stmt 1 view .LVU39
  99:Core/Src/bootloader.c ****     {
 132              		.loc 1 99 9 is_stmt 0 view .LVU40
 133 0026 6946     		mov	r1, sp
 134 0028 054B     		ldr	r3, .L10
 135 002a 1868     		ldr	r0, [r3]
 136 002c FFF7FEFF 		bl	HAL_CAN_ConfigFilter
 137              	.LVL7:
  99:Core/Src/bootloader.c ****     {
 138              		.loc 1 99 8 discriminator 1 view .LVU41
 139 0030 10B9     		cbnz	r0, .L9
 140              	.L6:
 103:Core/Src/bootloader.c **** 
 141              		.loc 1 103 1 view .LVU42
 142 0032 0BB0     		add	sp, sp, #44
 143              		.cfi_remember_state
 144              		.cfi_def_cfa_offset 4
 145              		@ sp needed
 146 0034 5DF804FB 		ldr	pc, [sp], #4
 147              	.L9:
 148              		.cfi_restore_state
 101:Core/Src/bootloader.c ****     }
 149              		.loc 1 101 9 is_stmt 1 view .LVU43
 150 0038 FFF7FEFF 		bl	Error_Handler
 151              	.LVL8:
 103:Core/Src/bootloader.c **** 
 152              		.loc 1 103 1 is_stmt 0 view .LVU44
 153 003c F9E7     		b	.L6
 154              	.L11:
 155 003e 00BF     		.align	2
ARM GAS  C:\Users\Ali\AppData\Local\Temp\cc5FscdA.s 			page 13


 156              	.L10:
 157 0040 00000000 		.word	hcan_bootloader
 158              		.cfi_endproc
 159              	.LFE133:
 161              		.section	.text.Bootloader_WaitForCANTransmission,"ax",%progbits
 162              		.align	1
 163              		.syntax unified
 164              		.thumb
 165              		.thumb_func
 167              	Bootloader_WaitForCANTransmission:
 168              	.LFB141:
 501:Core/Src/bootloader.c **** 
 502:Core/Src/bootloader.c **** /**
 503:Core/Src/bootloader.c ****   * @brief  Check if valid application exists
 504:Core/Src/bootloader.c ****   * @retval 1 if valid application, 0 otherwise
 505:Core/Src/bootloader.c ****   */
 506:Core/Src/bootloader.c **** uint8_t Bootloader_CheckValidApplication(void)
 507:Core/Src/bootloader.c **** {
 508:Core/Src/bootloader.c ****     uint32_t stack_pointer = *(__IO uint32_t *)APPLICATION_ADDRESS;
 509:Core/Src/bootloader.c ****     uint32_t reset_handler = *(__IO uint32_t *)(APPLICATION_ADDRESS + 4);
 510:Core/Src/bootloader.c ****     
 511:Core/Src/bootloader.c ****     /* Check if stack pointer is in valid RAM range */
 512:Core/Src/bootloader.c ****     if ((stack_pointer & 0xFFF00000) != 0x20000000)
 513:Core/Src/bootloader.c ****     {
 514:Core/Src/bootloader.c ****         return 0;
 515:Core/Src/bootloader.c ****     }
 516:Core/Src/bootloader.c ****     
 517:Core/Src/bootloader.c ****     /* Check if reset handler is in valid flash range (odd address for Thumb) */
 518:Core/Src/bootloader.c ****     if ((reset_handler & 0xFF000000) != 0x08000000 || (reset_handler & 0x01) == 0)
 519:Core/Src/bootloader.c ****     {
 520:Core/Src/bootloader.c ****         return 0;
 521:Core/Src/bootloader.c ****     }
 522:Core/Src/bootloader.c ****     
 523:Core/Src/bootloader.c ****     return 1;
 524:Core/Src/bootloader.c **** }
 525:Core/Src/bootloader.c **** 
 526:Core/Src/bootloader.c **** /**
 527:Core/Src/bootloader.c ****   * @brief  De-initialize peripherals before jumping to application
 528:Core/Src/bootloader.c ****   * @retval None
 529:Core/Src/bootloader.c ****   */
 530:Core/Src/bootloader.c **** static void Bootloader_DeInit(void)
 531:Core/Src/bootloader.c **** {
 532:Core/Src/bootloader.c ****     /* Disable CAN */
 533:Core/Src/bootloader.c ****     HAL_CAN_DeactivateNotification(hcan_bootloader, CAN_IT_RX_FIFO0_MSG_PENDING);
 534:Core/Src/bootloader.c ****     HAL_CAN_Stop(hcan_bootloader);
 535:Core/Src/bootloader.c ****     HAL_CAN_MspDeInit(hcan_bootloader);
 536:Core/Src/bootloader.c ****     
 537:Core/Src/bootloader.c ****     /* Disable SysTick */
 538:Core/Src/bootloader.c ****     SysTick->CTRL = 0;
 539:Core/Src/bootloader.c ****     SysTick->LOAD = 0;
 540:Core/Src/bootloader.c ****     SysTick->VAL = 0;
 541:Core/Src/bootloader.c ****     
 542:Core/Src/bootloader.c ****     /* Disable all interrupts */
 543:Core/Src/bootloader.c ****     __disable_irq();
 544:Core/Src/bootloader.c ****     
 545:Core/Src/bootloader.c ****     /* Disable all peripheral clocks */
 546:Core/Src/bootloader.c ****     __HAL_RCC_GPIOA_CLK_DISABLE();
ARM GAS  C:\Users\Ali\AppData\Local\Temp\cc5FscdA.s 			page 14


 547:Core/Src/bootloader.c ****     __HAL_RCC_CAN1_CLK_DISABLE();
 548:Core/Src/bootloader.c **** }
 549:Core/Src/bootloader.c **** 
 550:Core/Src/bootloader.c **** /**
 551:Core/Src/bootloader.c ****   * @brief  Wait for all CAN transmissions to complete
 552:Core/Src/bootloader.c ****   * @retval None
 553:Core/Src/bootloader.c ****   */
 554:Core/Src/bootloader.c **** static void Bootloader_WaitForCANTransmission(void)
 555:Core/Src/bootloader.c **** {
 169              		.loc 1 555 1 is_stmt 1 view -0
 170              		.cfi_startproc
 171              		@ args = 0, pretend = 0, frame = 0
 172              		@ frame_needed = 0, uses_anonymous_args = 0
 173 0000 10B5     		push	{r4, lr}
 174              		.cfi_def_cfa_offset 8
 175              		.cfi_offset 4, -8
 176              		.cfi_offset 14, -4
 556:Core/Src/bootloader.c ****     uint32_t timeout = 0;
 177              		.loc 1 556 5 view .LVU46
 178              	.LVL9:
 557:Core/Src/bootloader.c ****     
 558:Core/Src/bootloader.c ****     /* Wait until all 3 TX mailboxes are free (all transmissions complete) */
 559:Core/Src/bootloader.c ****     while (HAL_CAN_GetTxMailboxesFreeLevel(hcan_bootloader) != 3 && timeout < 1000000)
 179              		.loc 1 559 5 view .LVU47
 556:Core/Src/bootloader.c ****     uint32_t timeout = 0;
 180              		.loc 1 556 14 is_stmt 0 view .LVU48
 181 0002 0024     		movs	r4, #0
 182              	.LVL10:
 183              	.L13:
 184              		.loc 1 559 66 is_stmt 1 view .LVU49
 185              		.loc 1 559 12 is_stmt 0 view .LVU50
 186 0004 074B     		ldr	r3, .L17
 187 0006 1868     		ldr	r0, [r3]
 188 0008 FFF7FEFF 		bl	HAL_CAN_GetTxMailboxesFreeLevel
 189              	.LVL11:
 190              		.loc 1 559 66 discriminator 1 view .LVU51
 191 000c 0328     		cmp	r0, #3
 192 000e 04D0     		beq	.L14
 193 0010 054B     		ldr	r3, .L17+4
 194 0012 9C42     		cmp	r4, r3
 195 0014 01D8     		bhi	.L14
 560:Core/Src/bootloader.c ****     {
 561:Core/Src/bootloader.c ****         timeout++;
 196              		.loc 1 561 9 is_stmt 1 view .LVU52
 197              		.loc 1 561 16 is_stmt 0 view .LVU53
 198 0016 0134     		adds	r4, r4, #1
 199              	.LVL12:
 200              		.loc 1 561 16 view .LVU54
 201 0018 F4E7     		b	.L13
 202              	.LVL13:
 203              	.L14:
 562:Core/Src/bootloader.c ****     }
 563:Core/Src/bootloader.c ****     
 564:Core/Src/bootloader.c ****     /* Additional delay to ensure message physically leaves the CAN controller */
 565:Core/Src/bootloader.c ****     HAL_Delay(10);
 204              		.loc 1 565 5 is_stmt 1 view .LVU55
 205 001a 0A20     		movs	r0, #10
ARM GAS  C:\Users\Ali\AppData\Local\Temp\cc5FscdA.s 			page 15


 206 001c FFF7FEFF 		bl	HAL_Delay
 207              	.LVL14:
 566:Core/Src/bootloader.c **** }
 208              		.loc 1 566 1 is_stmt 0 view .LVU56
 209 0020 10BD     		pop	{r4, pc}
 210              	.LVL15:
 211              	.L18:
 212              		.loc 1 566 1 view .LVU57
 213 0022 00BF     		.align	2
 214              	.L17:
 215 0024 00000000 		.word	hcan_bootloader
 216 0028 3F420F00 		.word	999999
 217              		.cfi_endproc
 218              	.LFE141:
 220              		.section	.text.Bootloader_EraseApplicationFlash,"ax",%progbits
 221              		.align	1
 222              		.syntax unified
 223              		.thumb
 224              		.thumb_func
 226              	Bootloader_EraseApplicationFlash:
 227              	.LFB136:
 371:Core/Src/bootloader.c ****     FLASH_EraseInitTypeDef erase_init;
 228              		.loc 1 371 1 is_stmt 1 view -0
 229              		.cfi_startproc
 230              		@ args = 0, pretend = 0, frame = 24
 231              		@ frame_needed = 0, uses_anonymous_args = 0
 232 0000 10B5     		push	{r4, lr}
 233              		.cfi_def_cfa_offset 8
 234              		.cfi_offset 4, -8
 235              		.cfi_offset 14, -4
 236 0002 86B0     		sub	sp, sp, #24
 237              		.cfi_def_cfa_offset 32
 372:Core/Src/bootloader.c ****     uint32_t page_error;
 238              		.loc 1 372 5 view .LVU59
 373:Core/Src/bootloader.c ****     HAL_StatusTypeDef status;
 239              		.loc 1 373 5 view .LVU60
 374:Core/Src/bootloader.c ****     
 240              		.loc 1 374 5 view .LVU61
 377:Core/Src/bootloader.c ****     uint32_t num_pages = APPLICATION_SIZE / FLASH_PAGE_SIZE;
 241              		.loc 1 377 5 view .LVU62
 242              	.LVL16:
 378:Core/Src/bootloader.c ****     
 243              		.loc 1 378 5 view .LVU63
 381:Core/Src/bootloader.c ****     
 244              		.loc 1 381 5 view .LVU64
 245 0004 FFF7FEFF 		bl	HAL_FLASH_Unlock
 246              	.LVL17:
 384:Core/Src/bootloader.c ****     
 247              		.loc 1 384 5 view .LVU65
 384:Core/Src/bootloader.c ****     
 248              		.loc 1 384 5 view .LVU66
 384:Core/Src/bootloader.c ****     
 249              		.loc 1 384 5 discriminator 1 view .LVU67
 250 0008 104B     		ldr	r3, .L24
 251 000a 9A69     		ldr	r2, [r3, #24]
 252 000c 42F04042 		orr	r2, r2, #-1073741824
 253 0010 9A61     		str	r2, [r3, #24]
ARM GAS  C:\Users\Ali\AppData\Local\Temp\cc5FscdA.s 			page 16


 384:Core/Src/bootloader.c ****     
 254              		.loc 1 384 5 discriminator 3 view .LVU68
 384:Core/Src/bootloader.c ****     
 255              		.loc 1 384 5 discriminator 4 view .LVU69
 256 0012 4CF2FA32 		movw	r2, #50170
 257 0016 1A61     		str	r2, [r3, #16]
 384:Core/Src/bootloader.c ****     
 258              		.loc 1 384 5 discriminator 6 view .LVU70
 387:Core/Src/bootloader.c ****     erase_init.Banks = FLASH_BANK_1;
 259              		.loc 1 387 5 view .LVU71
 387:Core/Src/bootloader.c ****     erase_init.Banks = FLASH_BANK_1;
 260              		.loc 1 387 26 is_stmt 0 view .LVU72
 261 0018 0023     		movs	r3, #0
 262 001a 0293     		str	r3, [sp, #8]
 388:Core/Src/bootloader.c ****     erase_init.Page = first_page;
 263              		.loc 1 388 5 is_stmt 1 view .LVU73
 388:Core/Src/bootloader.c ****     erase_init.Page = first_page;
 264              		.loc 1 388 22 is_stmt 0 view .LVU74
 265 001c 0123     		movs	r3, #1
 266 001e 0393     		str	r3, [sp, #12]
 389:Core/Src/bootloader.c ****     erase_init.NbPages = num_pages;
 267              		.loc 1 389 5 is_stmt 1 view .LVU75
 389:Core/Src/bootloader.c ****     erase_init.NbPages = num_pages;
 268              		.loc 1 389 21 is_stmt 0 view .LVU76
 269 0020 1023     		movs	r3, #16
 270 0022 0493     		str	r3, [sp, #16]
 390:Core/Src/bootloader.c ****     
 271              		.loc 1 390 5 is_stmt 1 view .LVU77
 390:Core/Src/bootloader.c ****     
 272              		.loc 1 390 24 is_stmt 0 view .LVU78
 273 0024 7023     		movs	r3, #112
 274 0026 0593     		str	r3, [sp, #20]
 393:Core/Src/bootloader.c ****     
 275              		.loc 1 393 5 is_stmt 1 view .LVU79
 393:Core/Src/bootloader.c ****     
 276              		.loc 1 393 14 is_stmt 0 view .LVU80
 277 0028 01A9     		add	r1, sp, #4
 278 002a 02A8     		add	r0, sp, #8
 279 002c FFF7FEFF 		bl	HAL_FLASHEx_Erase
 280              	.LVL18:
 281 0030 0446     		mov	r4, r0
 282              	.LVL19:
 396:Core/Src/bootloader.c ****     
 283              		.loc 1 396 5 is_stmt 1 view .LVU81
 284 0032 FFF7FEFF 		bl	HAL_FLASH_Lock
 285              	.LVL20:
 398:Core/Src/bootloader.c ****     {
 286              		.loc 1 398 5 view .LVU82
 398:Core/Src/bootloader.c ****     {
 287              		.loc 1 398 8 is_stmt 0 view .LVU83
 288 0036 2CB9     		cbnz	r4, .L23
 404:Core/Src/bootloader.c ****     return ERR_NONE;
 289              		.loc 1 404 5 is_stmt 1 view .LVU84
 404:Core/Src/bootloader.c ****     return ERR_NONE;
 290              		.loc 1 404 34 is_stmt 0 view .LVU85
 291 0038 054B     		ldr	r3, .L24+4
 292 003a 0022     		movs	r2, #0
ARM GAS  C:\Users\Ali\AppData\Local\Temp\cc5FscdA.s 			page 17


 293 003c 1A74     		strb	r2, [r3, #16]
 405:Core/Src/bootloader.c **** }
 294              		.loc 1 405 5 is_stmt 1 view .LVU86
 295              	.LVL21:
 296              	.L21:
 406:Core/Src/bootloader.c **** 
 297              		.loc 1 406 1 is_stmt 0 view .LVU87
 298 003e 2046     		mov	r0, r4
 299 0040 06B0     		add	sp, sp, #24
 300              		.cfi_remember_state
 301              		.cfi_def_cfa_offset 8
 302              		@ sp needed
 303 0042 10BD     		pop	{r4, pc}
 304              	.LVL22:
 305              	.L23:
 306              		.cfi_restore_state
 400:Core/Src/bootloader.c ****         return ERR_FLASH_ERASE_FAILED;
 307              		.loc 1 400 9 is_stmt 1 view .LVU88
 400:Core/Src/bootloader.c ****         return ERR_FLASH_ERASE_FAILED;
 308              		.loc 1 400 38 is_stmt 0 view .LVU89
 309 0044 0324     		movs	r4, #3
 310              	.LVL23:
 400:Core/Src/bootloader.c ****         return ERR_FLASH_ERASE_FAILED;
 311              		.loc 1 400 38 view .LVU90
 312 0046 024B     		ldr	r3, .L24+4
 313 0048 1C74     		strb	r4, [r3, #16]
 401:Core/Src/bootloader.c ****     }
 314              		.loc 1 401 9 is_stmt 1 view .LVU91
 401:Core/Src/bootloader.c ****     }
 315              		.loc 1 401 16 is_stmt 0 view .LVU92
 316 004a F8E7     		b	.L21
 317              	.L25:
 318              		.align	2
 319              	.L24:
 320 004c 00200240 		.word	1073881088
 321 0050 00000000 		.word	bootloader_status
 322              		.cfi_endproc
 323              	.LFE136:
 325              		.section	.text.Bootloader_WriteFlash,"ax",%progbits
 326              		.align	1
 327              		.syntax unified
 328              		.thumb
 329              		.thumb_func
 331              	Bootloader_WriteFlash:
 332              	.LVL24:
 333              	.LFB137:
 416:Core/Src/bootloader.c ****     HAL_StatusTypeDef status = HAL_OK;
 334              		.loc 1 416 1 is_stmt 1 view -0
 335              		.cfi_startproc
 336              		@ args = 0, pretend = 0, frame = 0
 337              		@ frame_needed = 0, uses_anonymous_args = 0
 416:Core/Src/bootloader.c ****     HAL_StatusTypeDef status = HAL_OK;
 338              		.loc 1 416 1 is_stmt 0 view .LVU94
 339 0000 2DE9F041 		push	{r4, r5, r6, r7, r8, lr}
 340              		.cfi_def_cfa_offset 24
 341              		.cfi_offset 4, -24
 342              		.cfi_offset 5, -20
ARM GAS  C:\Users\Ali\AppData\Local\Temp\cc5FscdA.s 			page 18


 343              		.cfi_offset 6, -16
 344              		.cfi_offset 7, -12
 345              		.cfi_offset 8, -8
 346              		.cfi_offset 14, -4
 417:Core/Src/bootloader.c ****     uint32_t i;
 347              		.loc 1 417 5 is_stmt 1 view .LVU95
 348              	.LVL25:
 418:Core/Src/bootloader.c ****     uint64_t data64;
 349              		.loc 1 418 5 view .LVU96
 419:Core/Src/bootloader.c ****     
 350              		.loc 1 419 5 view .LVU97
 422:Core/Src/bootloader.c ****     {
 351              		.loc 1 422 5 view .LVU98
 422:Core/Src/bootloader.c ****     {
 352              		.loc 1 422 39 is_stmt 0 view .LVU99
 353 0004 00F17843 		add	r3, r0, #-134217728
 354 0008 A3F50043 		sub	r3, r3, #32768
 422:Core/Src/bootloader.c ****     {
 355              		.loc 1 422 8 view .LVU100
 356 000c B3F5603F 		cmp	r3, #229376
 357 0010 38D2     		bcs	.L35
 358 0012 0746     		mov	r7, r0
 359 0014 0D46     		mov	r5, r1
 360 0016 1646     		mov	r6, r2
 429:Core/Src/bootloader.c ****     {
 361              		.loc 1 429 5 is_stmt 1 view .LVU101
 429:Core/Src/bootloader.c ****     {
 362              		.loc 1 429 8 is_stmt 0 view .LVU102
 363 0018 12F0070F 		tst	r2, #7
 364 001c 38D1     		bne	.L36
 436:Core/Src/bootloader.c ****     
 365              		.loc 1 436 5 is_stmt 1 view .LVU103
 366 001e FFF7FEFF 		bl	HAL_FLASH_Unlock
 367              	.LVL26:
 439:Core/Src/bootloader.c ****     
 368              		.loc 1 439 5 view .LVU104
 439:Core/Src/bootloader.c ****     
 369              		.loc 1 439 5 view .LVU105
 439:Core/Src/bootloader.c ****     
 370              		.loc 1 439 5 discriminator 1 view .LVU106
 371 0022 274B     		ldr	r3, .L38
 372 0024 9A69     		ldr	r2, [r3, #24]
 373 0026 42F04042 		orr	r2, r2, #-1073741824
 374 002a 9A61     		str	r2, [r3, #24]
 439:Core/Src/bootloader.c ****     
 375              		.loc 1 439 5 discriminator 3 view .LVU107
 439:Core/Src/bootloader.c ****     
 376              		.loc 1 439 5 discriminator 4 view .LVU108
 377 002c 4CF2FA32 		movw	r2, #50170
 378 0030 1A61     		str	r2, [r3, #16]
 439:Core/Src/bootloader.c ****     
 379              		.loc 1 439 5 discriminator 6 view .LVU109
 442:Core/Src/bootloader.c ****     {
 380              		.loc 1 442 5 view .LVU110
 381              	.LVL27:
 442:Core/Src/bootloader.c ****     {
 382              		.loc 1 442 12 is_stmt 0 view .LVU111
ARM GAS  C:\Users\Ali\AppData\Local\Temp\cc5FscdA.s 			page 19


 383 0032 0024     		movs	r4, #0
 417:Core/Src/bootloader.c ****     uint32_t i;
 384              		.loc 1 417 23 view .LVU112
 385 0034 A046     		mov	r8, r4
 386              	.LVL28:
 387              	.L30:
 442:Core/Src/bootloader.c ****     {
 388              		.loc 1 442 19 is_stmt 1 discriminator 1 view .LVU113
 389 0036 A642     		cmp	r6, r4
 390 0038 30D9     		bls	.L31
 445:Core/Src/bootloader.c ****                  ((uint64_t)data[i + 1] << 8)  |
 391              		.loc 1 445 9 view .LVU114
 445:Core/Src/bootloader.c ****                  ((uint64_t)data[i + 1] << 8)  |
 392              		.loc 1 445 33 is_stmt 0 view .LVU115
 393 003a 2A5D     		ldrb	r2, [r5, r4]	@ zero_extendqisi2
 446:Core/Src/bootloader.c ****                  ((uint64_t)data[i + 2] << 16) |
 394              		.loc 1 446 33 view .LVU116
 395 003c 05EB040C 		add	ip, r5, r4
 396 0040 9CF80130 		ldrb	r3, [ip, #1]	@ zero_extendqisi2
 445:Core/Src/bootloader.c ****                  ((uint64_t)data[i + 1] << 8)  |
 397              		.loc 1 445 48 view .LVU117
 398 0044 42EA0322 		orr	r2, r2, r3, lsl #8
 447:Core/Src/bootloader.c ****                  ((uint64_t)data[i + 3] << 24) |
 399              		.loc 1 447 33 view .LVU118
 400 0048 9CF80230 		ldrb	r3, [ip, #2]	@ zero_extendqisi2
 446:Core/Src/bootloader.c ****                  ((uint64_t)data[i + 2] << 16) |
 401              		.loc 1 446 48 view .LVU119
 402 004c 42EA0342 		orr	r2, r2, r3, lsl #16
 448:Core/Src/bootloader.c ****                  ((uint64_t)data[i + 4] << 32) |
 403              		.loc 1 448 33 view .LVU120
 404 0050 9CF80300 		ldrb	r0, [ip, #3]	@ zero_extendqisi2
 448:Core/Src/bootloader.c ****                  ((uint64_t)data[i + 4] << 32) |
 405              		.loc 1 448 48 view .LVU121
 406 0054 9CF80430 		ldrb	r3, [ip, #4]	@ zero_extendqisi2
 450:Core/Src/bootloader.c ****                  ((uint64_t)data[i + 6] << 48) |
 407              		.loc 1 450 33 view .LVU122
 408 0058 9CF80510 		ldrb	r1, [ip, #5]	@ zero_extendqisi2
 449:Core/Src/bootloader.c ****                  ((uint64_t)data[i + 5] << 40) |
 409              		.loc 1 449 48 view .LVU123
 410 005c 43EA0123 		orr	r3, r3, r1, lsl #8
 451:Core/Src/bootloader.c ****                  ((uint64_t)data[i + 7] << 56);
 411              		.loc 1 451 33 view .LVU124
 412 0060 9CF80610 		ldrb	r1, [ip, #6]	@ zero_extendqisi2
 450:Core/Src/bootloader.c ****                  ((uint64_t)data[i + 6] << 48) |
 413              		.loc 1 450 48 view .LVU125
 414 0064 43EA0143 		orr	r3, r3, r1, lsl #16
 452:Core/Src/bootloader.c ****         
 415              		.loc 1 452 33 view .LVU126
 416 0068 9CF80710 		ldrb	r1, [ip, #7]	@ zero_extendqisi2
 417              	.LVL29:
 454:Core/Src/bootloader.c ****         
 418              		.loc 1 454 9 is_stmt 1 view .LVU127
 454:Core/Src/bootloader.c ****         
 419              		.loc 1 454 18 is_stmt 0 view .LVU128
 420 006c 42EA0062 		orr	r2, r2, r0, lsl #24
 421              	.LVL30:
 454:Core/Src/bootloader.c ****         
ARM GAS  C:\Users\Ali\AppData\Local\Temp\cc5FscdA.s 			page 20


 422              		.loc 1 454 18 view .LVU129
 423 0070 43EA0163 		orr	r3, r3, r1, lsl #24
 424              	.LVL31:
 454:Core/Src/bootloader.c ****         
 425              		.loc 1 454 18 view .LVU130
 426 0074 E119     		adds	r1, r4, r7
 427 0076 0020     		movs	r0, #0
 428 0078 FFF7FEFF 		bl	HAL_FLASH_Program
 429              	.LVL32:
 456:Core/Src/bootloader.c ****         {
 430              		.loc 1 456 9 is_stmt 1 view .LVU131
 456:Core/Src/bootloader.c ****         {
 431              		.loc 1 456 12 is_stmt 0 view .LVU132
 432 007c 8046     		mov	r8, r0
 433 007e 68B9     		cbnz	r0, .L31
 442:Core/Src/bootloader.c ****     {
 434              		.loc 1 442 31 is_stmt 1 discriminator 2 view .LVU133
 435 0080 0834     		adds	r4, r4, #8
 436              	.LVL33:
 442:Core/Src/bootloader.c ****     {
 437              		.loc 1 442 31 is_stmt 0 discriminator 2 view .LVU134
 438 0082 D8E7     		b	.L30
 439              	.LVL34:
 440              	.L35:
 424:Core/Src/bootloader.c ****         return ERR_INVALID_ADDRESS;
 441              		.loc 1 424 9 is_stmt 1 view .LVU135
 424:Core/Src/bootloader.c ****         return ERR_INVALID_ADDRESS;
 442              		.loc 1 424 38 is_stmt 0 view .LVU136
 443 0084 4FF00208 		mov	r8, #2
 444 0088 0E4B     		ldr	r3, .L38+4
 445 008a 83F81080 		strb	r8, [r3, #16]
 425:Core/Src/bootloader.c ****     }
 446              		.loc 1 425 9 is_stmt 1 view .LVU137
 425:Core/Src/bootloader.c ****     }
 447              		.loc 1 425 16 is_stmt 0 view .LVU138
 448 008e 0DE0     		b	.L28
 449              	.L36:
 431:Core/Src/bootloader.c ****         return ERR_INVALID_DATA_LENGTH;
 450              		.loc 1 431 9 is_stmt 1 view .LVU139
 431:Core/Src/bootloader.c ****         return ERR_INVALID_DATA_LENGTH;
 451              		.loc 1 431 38 is_stmt 0 view .LVU140
 452 0090 4FF00508 		mov	r8, #5
 453 0094 0B4B     		ldr	r3, .L38+4
 454 0096 83F81080 		strb	r8, [r3, #16]
 432:Core/Src/bootloader.c ****     }
 455              		.loc 1 432 9 is_stmt 1 view .LVU141
 432:Core/Src/bootloader.c ****     }
 456              		.loc 1 432 16 is_stmt 0 view .LVU142
 457 009a 07E0     		b	.L28
 458              	.LVL35:
 459              	.L31:
 463:Core/Src/bootloader.c ****     
 460              		.loc 1 463 5 is_stmt 1 view .LVU143
 461 009c FFF7FEFF 		bl	HAL_FLASH_Lock
 462              	.LVL36:
 465:Core/Src/bootloader.c ****     {
 463              		.loc 1 465 5 view .LVU144
ARM GAS  C:\Users\Ali\AppData\Local\Temp\cc5FscdA.s 			page 21


 465:Core/Src/bootloader.c ****     {
 464              		.loc 1 465 8 is_stmt 0 view .LVU145
 465 00a0 B8F1000F 		cmp	r8, #0
 466 00a4 05D1     		bne	.L37
 471:Core/Src/bootloader.c ****     return ERR_NONE;
 467              		.loc 1 471 5 is_stmt 1 view .LVU146
 471:Core/Src/bootloader.c ****     return ERR_NONE;
 468              		.loc 1 471 34 is_stmt 0 view .LVU147
 469 00a6 074B     		ldr	r3, .L38+4
 470 00a8 0022     		movs	r2, #0
 471 00aa 1A74     		strb	r2, [r3, #16]
 472:Core/Src/bootloader.c **** }
 472              		.loc 1 472 5 is_stmt 1 view .LVU148
 473              	.LVL37:
 474              	.L28:
 473:Core/Src/bootloader.c **** 
 475              		.loc 1 473 1 is_stmt 0 view .LVU149
 476 00ac 4046     		mov	r0, r8
 477 00ae BDE8F081 		pop	{r4, r5, r6, r7, r8, pc}
 478              	.LVL38:
 479              	.L37:
 467:Core/Src/bootloader.c ****         return ERR_FLASH_WRITE_FAILED;
 480              		.loc 1 467 9 is_stmt 1 view .LVU150
 467:Core/Src/bootloader.c ****         return ERR_FLASH_WRITE_FAILED;
 481              		.loc 1 467 38 is_stmt 0 view .LVU151
 482 00b2 4FF00408 		mov	r8, #4
 483              	.LVL39:
 467:Core/Src/bootloader.c ****         return ERR_FLASH_WRITE_FAILED;
 484              		.loc 1 467 38 view .LVU152
 485 00b6 034B     		ldr	r3, .L38+4
 486 00b8 83F81080 		strb	r8, [r3, #16]
 468:Core/Src/bootloader.c ****     }
 487              		.loc 1 468 9 is_stmt 1 view .LVU153
 468:Core/Src/bootloader.c ****     }
 488              		.loc 1 468 16 is_stmt 0 view .LVU154
 489 00bc F6E7     		b	.L28
 490              	.L39:
 491 00be 00BF     		.align	2
 492              	.L38:
 493 00c0 00200240 		.word	1073881088
 494 00c4 00000000 		.word	bootloader_status
 495              		.cfi_endproc
 496              	.LFE137:
 498              		.section	.text.Bootloader_DeInit,"ax",%progbits
 499              		.align	1
 500              		.syntax unified
 501              		.thumb
 502              		.thumb_func
 504              	Bootloader_DeInit:
 505              	.LFB140:
 531:Core/Src/bootloader.c ****     /* Disable CAN */
 506              		.loc 1 531 1 is_stmt 1 view -0
 507              		.cfi_startproc
 508              		@ args = 0, pretend = 0, frame = 0
 509              		@ frame_needed = 0, uses_anonymous_args = 0
 510 0000 10B5     		push	{r4, lr}
 511              		.cfi_def_cfa_offset 8
ARM GAS  C:\Users\Ali\AppData\Local\Temp\cc5FscdA.s 			page 22


 512              		.cfi_offset 4, -8
 513              		.cfi_offset 14, -4
 533:Core/Src/bootloader.c ****     HAL_CAN_Stop(hcan_bootloader);
 514              		.loc 1 533 5 view .LVU156
 515 0002 0F4C     		ldr	r4, .L42
 516 0004 0221     		movs	r1, #2
 517 0006 2068     		ldr	r0, [r4]
 518 0008 FFF7FEFF 		bl	HAL_CAN_DeactivateNotification
 519              	.LVL40:
 534:Core/Src/bootloader.c ****     HAL_CAN_MspDeInit(hcan_bootloader);
 520              		.loc 1 534 5 view .LVU157
 521 000c 2068     		ldr	r0, [r4]
 522 000e FFF7FEFF 		bl	HAL_CAN_Stop
 523              	.LVL41:
 535:Core/Src/bootloader.c ****     
 524              		.loc 1 535 5 view .LVU158
 525 0012 2068     		ldr	r0, [r4]
 526 0014 FFF7FEFF 		bl	HAL_CAN_MspDeInit
 527              	.LVL42:
 538:Core/Src/bootloader.c ****     SysTick->LOAD = 0;
 528              		.loc 1 538 5 view .LVU159
 538:Core/Src/bootloader.c ****     SysTick->LOAD = 0;
 529              		.loc 1 538 19 is_stmt 0 view .LVU160
 530 0018 4FF0E023 		mov	r3, #-536813568
 531 001c 0022     		movs	r2, #0
 532 001e 1A61     		str	r2, [r3, #16]
 539:Core/Src/bootloader.c ****     SysTick->VAL = 0;
 533              		.loc 1 539 5 is_stmt 1 view .LVU161
 539:Core/Src/bootloader.c ****     SysTick->VAL = 0;
 534              		.loc 1 539 19 is_stmt 0 view .LVU162
 535 0020 5A61     		str	r2, [r3, #20]
 540:Core/Src/bootloader.c ****     
 536              		.loc 1 540 5 is_stmt 1 view .LVU163
 540:Core/Src/bootloader.c ****     
 537              		.loc 1 540 18 is_stmt 0 view .LVU164
 538 0022 9A61     		str	r2, [r3, #24]
 543:Core/Src/bootloader.c ****     
 539              		.loc 1 543 5 is_stmt 1 view .LVU165
 540              	.LBB6:
 541              	.LBI6:
 542              		.file 2 "Drivers/CMSIS/Include/cmsis_gcc.h"
   1:Drivers/CMSIS/Include/cmsis_gcc.h **** /**************************************************************************//**
   2:Drivers/CMSIS/Include/cmsis_gcc.h ****  * @file     cmsis_gcc.h
   3:Drivers/CMSIS/Include/cmsis_gcc.h ****  * @brief    CMSIS compiler GCC header file
   4:Drivers/CMSIS/Include/cmsis_gcc.h ****  * @version  V5.2.0
   5:Drivers/CMSIS/Include/cmsis_gcc.h ****  * @date     08. May 2019
   6:Drivers/CMSIS/Include/cmsis_gcc.h ****  ******************************************************************************/
   7:Drivers/CMSIS/Include/cmsis_gcc.h **** /*
   8:Drivers/CMSIS/Include/cmsis_gcc.h ****  * Copyright (c) 2009-2019 Arm Limited. All rights reserved.
   9:Drivers/CMSIS/Include/cmsis_gcc.h ****  *
  10:Drivers/CMSIS/Include/cmsis_gcc.h ****  * SPDX-License-Identifier: Apache-2.0
  11:Drivers/CMSIS/Include/cmsis_gcc.h ****  *
  12:Drivers/CMSIS/Include/cmsis_gcc.h ****  * Licensed under the Apache License, Version 2.0 (the License); you may
  13:Drivers/CMSIS/Include/cmsis_gcc.h ****  * not use this file except in compliance with the License.
  14:Drivers/CMSIS/Include/cmsis_gcc.h ****  * You may obtain a copy of the License at
  15:Drivers/CMSIS/Include/cmsis_gcc.h ****  *
  16:Drivers/CMSIS/Include/cmsis_gcc.h ****  * www.apache.org/licenses/LICENSE-2.0
ARM GAS  C:\Users\Ali\AppData\Local\Temp\cc5FscdA.s 			page 23


  17:Drivers/CMSIS/Include/cmsis_gcc.h ****  *
  18:Drivers/CMSIS/Include/cmsis_gcc.h ****  * Unless required by applicable law or agreed to in writing, software
  19:Drivers/CMSIS/Include/cmsis_gcc.h ****  * distributed under the License is distributed on an AS IS BASIS, WITHOUT
  20:Drivers/CMSIS/Include/cmsis_gcc.h ****  * WARRANTIES OR CONDITIONS OF ANY KIND, either express or implied.
  21:Drivers/CMSIS/Include/cmsis_gcc.h ****  * See the License for the specific language governing permissions and
  22:Drivers/CMSIS/Include/cmsis_gcc.h ****  * limitations under the License.
  23:Drivers/CMSIS/Include/cmsis_gcc.h ****  */
  24:Drivers/CMSIS/Include/cmsis_gcc.h **** 
  25:Drivers/CMSIS/Include/cmsis_gcc.h **** #ifndef __CMSIS_GCC_H
  26:Drivers/CMSIS/Include/cmsis_gcc.h **** #define __CMSIS_GCC_H
  27:Drivers/CMSIS/Include/cmsis_gcc.h **** 
  28:Drivers/CMSIS/Include/cmsis_gcc.h **** /* ignore some GCC warnings */
  29:Drivers/CMSIS/Include/cmsis_gcc.h **** #pragma GCC diagnostic push
  30:Drivers/CMSIS/Include/cmsis_gcc.h **** #pragma GCC diagnostic ignored "-Wsign-conversion"
  31:Drivers/CMSIS/Include/cmsis_gcc.h **** #pragma GCC diagnostic ignored "-Wconversion"
  32:Drivers/CMSIS/Include/cmsis_gcc.h **** #pragma GCC diagnostic ignored "-Wunused-parameter"
  33:Drivers/CMSIS/Include/cmsis_gcc.h **** 
  34:Drivers/CMSIS/Include/cmsis_gcc.h **** /* Fallback for __has_builtin */
  35:Drivers/CMSIS/Include/cmsis_gcc.h **** #ifndef __has_builtin
  36:Drivers/CMSIS/Include/cmsis_gcc.h ****   #define __has_builtin(x) (0)
  37:Drivers/CMSIS/Include/cmsis_gcc.h **** #endif
  38:Drivers/CMSIS/Include/cmsis_gcc.h **** 
  39:Drivers/CMSIS/Include/cmsis_gcc.h **** /* CMSIS compiler specific defines */
  40:Drivers/CMSIS/Include/cmsis_gcc.h **** #ifndef   __ASM
  41:Drivers/CMSIS/Include/cmsis_gcc.h ****   #define __ASM                                  __asm
  42:Drivers/CMSIS/Include/cmsis_gcc.h **** #endif
  43:Drivers/CMSIS/Include/cmsis_gcc.h **** #ifndef   __INLINE
  44:Drivers/CMSIS/Include/cmsis_gcc.h ****   #define __INLINE                               inline
  45:Drivers/CMSIS/Include/cmsis_gcc.h **** #endif
  46:Drivers/CMSIS/Include/cmsis_gcc.h **** #ifndef   __STATIC_INLINE
  47:Drivers/CMSIS/Include/cmsis_gcc.h ****   #define __STATIC_INLINE                        static inline
  48:Drivers/CMSIS/Include/cmsis_gcc.h **** #endif
  49:Drivers/CMSIS/Include/cmsis_gcc.h **** #ifndef   __STATIC_FORCEINLINE                 
  50:Drivers/CMSIS/Include/cmsis_gcc.h ****   #define __STATIC_FORCEINLINE                   __attribute__((always_inline)) static inline
  51:Drivers/CMSIS/Include/cmsis_gcc.h **** #endif                                           
  52:Drivers/CMSIS/Include/cmsis_gcc.h **** #ifndef   __NO_RETURN
  53:Drivers/CMSIS/Include/cmsis_gcc.h ****   #define __NO_RETURN                            __attribute__((__noreturn__))
  54:Drivers/CMSIS/Include/cmsis_gcc.h **** #endif
  55:Drivers/CMSIS/Include/cmsis_gcc.h **** #ifndef   __USED
  56:Drivers/CMSIS/Include/cmsis_gcc.h ****   #define __USED                                 __attribute__((used))
  57:Drivers/CMSIS/Include/cmsis_gcc.h **** #endif
  58:Drivers/CMSIS/Include/cmsis_gcc.h **** #ifndef   __WEAK
  59:Drivers/CMSIS/Include/cmsis_gcc.h ****   #define __WEAK                                 __attribute__((weak))
  60:Drivers/CMSIS/Include/cmsis_gcc.h **** #endif
  61:Drivers/CMSIS/Include/cmsis_gcc.h **** #ifndef   __PACKED
  62:Drivers/CMSIS/Include/cmsis_gcc.h ****   #define __PACKED                               __attribute__((packed, aligned(1)))
  63:Drivers/CMSIS/Include/cmsis_gcc.h **** #endif
  64:Drivers/CMSIS/Include/cmsis_gcc.h **** #ifndef   __PACKED_STRUCT
  65:Drivers/CMSIS/Include/cmsis_gcc.h ****   #define __PACKED_STRUCT                        struct __attribute__((packed, aligned(1)))
  66:Drivers/CMSIS/Include/cmsis_gcc.h **** #endif
  67:Drivers/CMSIS/Include/cmsis_gcc.h **** #ifndef   __PACKED_UNION
  68:Drivers/CMSIS/Include/cmsis_gcc.h ****   #define __PACKED_UNION                         union __attribute__((packed, aligned(1)))
  69:Drivers/CMSIS/Include/cmsis_gcc.h **** #endif
  70:Drivers/CMSIS/Include/cmsis_gcc.h **** #ifndef   __UNALIGNED_UINT32        /* deprecated */
  71:Drivers/CMSIS/Include/cmsis_gcc.h ****   #pragma GCC diagnostic push
  72:Drivers/CMSIS/Include/cmsis_gcc.h ****   #pragma GCC diagnostic ignored "-Wpacked"
  73:Drivers/CMSIS/Include/cmsis_gcc.h ****   #pragma GCC diagnostic ignored "-Wattributes"
ARM GAS  C:\Users\Ali\AppData\Local\Temp\cc5FscdA.s 			page 24


  74:Drivers/CMSIS/Include/cmsis_gcc.h ****   struct __attribute__((packed)) T_UINT32 { uint32_t v; };
  75:Drivers/CMSIS/Include/cmsis_gcc.h ****   #pragma GCC diagnostic pop
  76:Drivers/CMSIS/Include/cmsis_gcc.h ****   #define __UNALIGNED_UINT32(x)                  (((struct T_UINT32 *)(x))->v)
  77:Drivers/CMSIS/Include/cmsis_gcc.h **** #endif
  78:Drivers/CMSIS/Include/cmsis_gcc.h **** #ifndef   __UNALIGNED_UINT16_WRITE
  79:Drivers/CMSIS/Include/cmsis_gcc.h ****   #pragma GCC diagnostic push
  80:Drivers/CMSIS/Include/cmsis_gcc.h ****   #pragma GCC diagnostic ignored "-Wpacked"
  81:Drivers/CMSIS/Include/cmsis_gcc.h ****   #pragma GCC diagnostic ignored "-Wattributes"
  82:Drivers/CMSIS/Include/cmsis_gcc.h ****   __PACKED_STRUCT T_UINT16_WRITE { uint16_t v; };
  83:Drivers/CMSIS/Include/cmsis_gcc.h ****   #pragma GCC diagnostic pop
  84:Drivers/CMSIS/Include/cmsis_gcc.h ****   #define __UNALIGNED_UINT16_WRITE(addr, val)    (void)((((struct T_UINT16_WRITE *)(void *)(addr))-
  85:Drivers/CMSIS/Include/cmsis_gcc.h **** #endif
  86:Drivers/CMSIS/Include/cmsis_gcc.h **** #ifndef   __UNALIGNED_UINT16_READ
  87:Drivers/CMSIS/Include/cmsis_gcc.h ****   #pragma GCC diagnostic push
  88:Drivers/CMSIS/Include/cmsis_gcc.h ****   #pragma GCC diagnostic ignored "-Wpacked"
  89:Drivers/CMSIS/Include/cmsis_gcc.h ****   #pragma GCC diagnostic ignored "-Wattributes"
  90:Drivers/CMSIS/Include/cmsis_gcc.h ****   __PACKED_STRUCT T_UINT16_READ { uint16_t v; };
  91:Drivers/CMSIS/Include/cmsis_gcc.h ****   #pragma GCC diagnostic pop
  92:Drivers/CMSIS/Include/cmsis_gcc.h ****   #define __UNALIGNED_UINT16_READ(addr)          (((const struct T_UINT16_READ *)(const void *)(add
  93:Drivers/CMSIS/Include/cmsis_gcc.h **** #endif
  94:Drivers/CMSIS/Include/cmsis_gcc.h **** #ifndef   __UNALIGNED_UINT32_WRITE
  95:Drivers/CMSIS/Include/cmsis_gcc.h ****   #pragma GCC diagnostic push
  96:Drivers/CMSIS/Include/cmsis_gcc.h ****   #pragma GCC diagnostic ignored "-Wpacked"
  97:Drivers/CMSIS/Include/cmsis_gcc.h ****   #pragma GCC diagnostic ignored "-Wattributes"
  98:Drivers/CMSIS/Include/cmsis_gcc.h ****   __PACKED_STRUCT T_UINT32_WRITE { uint32_t v; };
  99:Drivers/CMSIS/Include/cmsis_gcc.h ****   #pragma GCC diagnostic pop
 100:Drivers/CMSIS/Include/cmsis_gcc.h ****   #define __UNALIGNED_UINT32_WRITE(addr, val)    (void)((((struct T_UINT32_WRITE *)(void *)(addr))-
 101:Drivers/CMSIS/Include/cmsis_gcc.h **** #endif
 102:Drivers/CMSIS/Include/cmsis_gcc.h **** #ifndef   __UNALIGNED_UINT32_READ
 103:Drivers/CMSIS/Include/cmsis_gcc.h ****   #pragma GCC diagnostic push
 104:Drivers/CMSIS/Include/cmsis_gcc.h ****   #pragma GCC diagnostic ignored "-Wpacked"
 105:Drivers/CMSIS/Include/cmsis_gcc.h ****   #pragma GCC diagnostic ignored "-Wattributes"
 106:Drivers/CMSIS/Include/cmsis_gcc.h ****   __PACKED_STRUCT T_UINT32_READ { uint32_t v; };
 107:Drivers/CMSIS/Include/cmsis_gcc.h ****   #pragma GCC diagnostic pop
 108:Drivers/CMSIS/Include/cmsis_gcc.h ****   #define __UNALIGNED_UINT32_READ(addr)          (((const struct T_UINT32_READ *)(const void *)(add
 109:Drivers/CMSIS/Include/cmsis_gcc.h **** #endif
 110:Drivers/CMSIS/Include/cmsis_gcc.h **** #ifndef   __ALIGNED
 111:Drivers/CMSIS/Include/cmsis_gcc.h ****   #define __ALIGNED(x)                           __attribute__((aligned(x)))
 112:Drivers/CMSIS/Include/cmsis_gcc.h **** #endif
 113:Drivers/CMSIS/Include/cmsis_gcc.h **** #ifndef   __RESTRICT
 114:Drivers/CMSIS/Include/cmsis_gcc.h ****   #define __RESTRICT                             __restrict
 115:Drivers/CMSIS/Include/cmsis_gcc.h **** #endif
 116:Drivers/CMSIS/Include/cmsis_gcc.h **** #ifndef   __COMPILER_BARRIER
 117:Drivers/CMSIS/Include/cmsis_gcc.h ****   #define __COMPILER_BARRIER()                   __ASM volatile("":::"memory")
 118:Drivers/CMSIS/Include/cmsis_gcc.h **** #endif
 119:Drivers/CMSIS/Include/cmsis_gcc.h **** 
 120:Drivers/CMSIS/Include/cmsis_gcc.h **** /* #########################  Startup and Lowlevel Init  ######################## */
 121:Drivers/CMSIS/Include/cmsis_gcc.h **** 
 122:Drivers/CMSIS/Include/cmsis_gcc.h **** #ifndef __PROGRAM_START
 123:Drivers/CMSIS/Include/cmsis_gcc.h **** 
 124:Drivers/CMSIS/Include/cmsis_gcc.h **** /**
 125:Drivers/CMSIS/Include/cmsis_gcc.h ****   \brief   Initializes data and bss sections
 126:Drivers/CMSIS/Include/cmsis_gcc.h ****   \details This default implementations initialized all data and additional bss
 127:Drivers/CMSIS/Include/cmsis_gcc.h ****            sections relying on .copy.table and .zero.table specified properly
 128:Drivers/CMSIS/Include/cmsis_gcc.h ****            in the used linker script.
 129:Drivers/CMSIS/Include/cmsis_gcc.h ****   
 130:Drivers/CMSIS/Include/cmsis_gcc.h ****  */
ARM GAS  C:\Users\Ali\AppData\Local\Temp\cc5FscdA.s 			page 25


 131:Drivers/CMSIS/Include/cmsis_gcc.h **** __STATIC_FORCEINLINE __NO_RETURN void __cmsis_start(void)
 132:Drivers/CMSIS/Include/cmsis_gcc.h **** {
 133:Drivers/CMSIS/Include/cmsis_gcc.h ****   extern void _start(void) __NO_RETURN;
 134:Drivers/CMSIS/Include/cmsis_gcc.h ****   
 135:Drivers/CMSIS/Include/cmsis_gcc.h ****   typedef struct {
 136:Drivers/CMSIS/Include/cmsis_gcc.h ****     uint32_t const* src;
 137:Drivers/CMSIS/Include/cmsis_gcc.h ****     uint32_t* dest;
 138:Drivers/CMSIS/Include/cmsis_gcc.h ****     uint32_t  wlen;
 139:Drivers/CMSIS/Include/cmsis_gcc.h ****   } __copy_table_t;
 140:Drivers/CMSIS/Include/cmsis_gcc.h ****   
 141:Drivers/CMSIS/Include/cmsis_gcc.h ****   typedef struct {
 142:Drivers/CMSIS/Include/cmsis_gcc.h ****     uint32_t* dest;
 143:Drivers/CMSIS/Include/cmsis_gcc.h ****     uint32_t  wlen;
 144:Drivers/CMSIS/Include/cmsis_gcc.h ****   } __zero_table_t;
 145:Drivers/CMSIS/Include/cmsis_gcc.h ****   
 146:Drivers/CMSIS/Include/cmsis_gcc.h ****   extern const __copy_table_t __copy_table_start__;
 147:Drivers/CMSIS/Include/cmsis_gcc.h ****   extern const __copy_table_t __copy_table_end__;
 148:Drivers/CMSIS/Include/cmsis_gcc.h ****   extern const __zero_table_t __zero_table_start__;
 149:Drivers/CMSIS/Include/cmsis_gcc.h ****   extern const __zero_table_t __zero_table_end__;
 150:Drivers/CMSIS/Include/cmsis_gcc.h **** 
 151:Drivers/CMSIS/Include/cmsis_gcc.h ****   for (__copy_table_t const* pTable = &__copy_table_start__; pTable < &__copy_table_end__; ++pTable
 152:Drivers/CMSIS/Include/cmsis_gcc.h ****     for(uint32_t i=0u; i<pTable->wlen; ++i) {
 153:Drivers/CMSIS/Include/cmsis_gcc.h ****       pTable->dest[i] = pTable->src[i];
 154:Drivers/CMSIS/Include/cmsis_gcc.h ****     }
 155:Drivers/CMSIS/Include/cmsis_gcc.h ****   }
 156:Drivers/CMSIS/Include/cmsis_gcc.h ****  
 157:Drivers/CMSIS/Include/cmsis_gcc.h ****   for (__zero_table_t const* pTable = &__zero_table_start__; pTable < &__zero_table_end__; ++pTable
 158:Drivers/CMSIS/Include/cmsis_gcc.h ****     for(uint32_t i=0u; i<pTable->wlen; ++i) {
 159:Drivers/CMSIS/Include/cmsis_gcc.h ****       pTable->dest[i] = 0u;
 160:Drivers/CMSIS/Include/cmsis_gcc.h ****     }
 161:Drivers/CMSIS/Include/cmsis_gcc.h ****   }
 162:Drivers/CMSIS/Include/cmsis_gcc.h ****  
 163:Drivers/CMSIS/Include/cmsis_gcc.h ****   _start();
 164:Drivers/CMSIS/Include/cmsis_gcc.h **** }
 165:Drivers/CMSIS/Include/cmsis_gcc.h ****   
 166:Drivers/CMSIS/Include/cmsis_gcc.h **** #define __PROGRAM_START           __cmsis_start
 167:Drivers/CMSIS/Include/cmsis_gcc.h **** #endif
 168:Drivers/CMSIS/Include/cmsis_gcc.h **** 
 169:Drivers/CMSIS/Include/cmsis_gcc.h **** #ifndef __INITIAL_SP
 170:Drivers/CMSIS/Include/cmsis_gcc.h **** #define __INITIAL_SP              __StackTop
 171:Drivers/CMSIS/Include/cmsis_gcc.h **** #endif
 172:Drivers/CMSIS/Include/cmsis_gcc.h **** 
 173:Drivers/CMSIS/Include/cmsis_gcc.h **** #ifndef __STACK_LIMIT
 174:Drivers/CMSIS/Include/cmsis_gcc.h **** #define __STACK_LIMIT             __StackLimit
 175:Drivers/CMSIS/Include/cmsis_gcc.h **** #endif
 176:Drivers/CMSIS/Include/cmsis_gcc.h **** 
 177:Drivers/CMSIS/Include/cmsis_gcc.h **** #ifndef __VECTOR_TABLE
 178:Drivers/CMSIS/Include/cmsis_gcc.h **** #define __VECTOR_TABLE            __Vectors
 179:Drivers/CMSIS/Include/cmsis_gcc.h **** #endif
 180:Drivers/CMSIS/Include/cmsis_gcc.h **** 
 181:Drivers/CMSIS/Include/cmsis_gcc.h **** #ifndef __VECTOR_TABLE_ATTRIBUTE
 182:Drivers/CMSIS/Include/cmsis_gcc.h **** #define __VECTOR_TABLE_ATTRIBUTE  __attribute((used, section(".vectors")))
 183:Drivers/CMSIS/Include/cmsis_gcc.h **** #endif
 184:Drivers/CMSIS/Include/cmsis_gcc.h **** 
 185:Drivers/CMSIS/Include/cmsis_gcc.h **** /* ###########################  Core Function Access  ########################### */
 186:Drivers/CMSIS/Include/cmsis_gcc.h **** /** \ingroup  CMSIS_Core_FunctionInterface
 187:Drivers/CMSIS/Include/cmsis_gcc.h ****     \defgroup CMSIS_Core_RegAccFunctions CMSIS Core Register Access Functions
ARM GAS  C:\Users\Ali\AppData\Local\Temp\cc5FscdA.s 			page 26


 188:Drivers/CMSIS/Include/cmsis_gcc.h ****   @{
 189:Drivers/CMSIS/Include/cmsis_gcc.h ****  */
 190:Drivers/CMSIS/Include/cmsis_gcc.h **** 
 191:Drivers/CMSIS/Include/cmsis_gcc.h **** /**
 192:Drivers/CMSIS/Include/cmsis_gcc.h ****   \brief   Enable IRQ Interrupts
 193:Drivers/CMSIS/Include/cmsis_gcc.h ****   \details Enables IRQ interrupts by clearing the I-bit in the CPSR.
 194:Drivers/CMSIS/Include/cmsis_gcc.h ****            Can only be executed in Privileged modes.
 195:Drivers/CMSIS/Include/cmsis_gcc.h ****  */
 196:Drivers/CMSIS/Include/cmsis_gcc.h **** __STATIC_FORCEINLINE void __enable_irq(void)
 197:Drivers/CMSIS/Include/cmsis_gcc.h **** {
 198:Drivers/CMSIS/Include/cmsis_gcc.h ****   __ASM volatile ("cpsie i" : : : "memory");
 199:Drivers/CMSIS/Include/cmsis_gcc.h **** }
 200:Drivers/CMSIS/Include/cmsis_gcc.h **** 
 201:Drivers/CMSIS/Include/cmsis_gcc.h **** 
 202:Drivers/CMSIS/Include/cmsis_gcc.h **** /**
 203:Drivers/CMSIS/Include/cmsis_gcc.h ****   \brief   Disable IRQ Interrupts
 204:Drivers/CMSIS/Include/cmsis_gcc.h ****   \details Disables IRQ interrupts by setting the I-bit in the CPSR.
 205:Drivers/CMSIS/Include/cmsis_gcc.h ****            Can only be executed in Privileged modes.
 206:Drivers/CMSIS/Include/cmsis_gcc.h ****  */
 207:Drivers/CMSIS/Include/cmsis_gcc.h **** __STATIC_FORCEINLINE void __disable_irq(void)
 543              		.loc 2 207 27 view .LVU166
 544              	.LBB7:
 208:Drivers/CMSIS/Include/cmsis_gcc.h **** {
 209:Drivers/CMSIS/Include/cmsis_gcc.h ****   __ASM volatile ("cpsid i" : : : "memory");
 545              		.loc 2 209 3 view .LVU167
 546              		.syntax unified
 547              	@ 209 "Drivers/CMSIS/Include/cmsis_gcc.h" 1
 548 0024 72B6     		cpsid i
 549              	@ 0 "" 2
 550              		.thumb
 551              		.syntax unified
 552              	.LBE7:
 553              	.LBE6:
 546:Core/Src/bootloader.c ****     __HAL_RCC_CAN1_CLK_DISABLE();
 554              		.loc 1 546 5 view .LVU168
 555 0026 03F1C043 		add	r3, r3, #1610612736
 556 002a 03F59833 		add	r3, r3, #77824
 557 002e DA6C     		ldr	r2, [r3, #76]
 558 0030 22F00102 		bic	r2, r2, #1
 559 0034 DA64     		str	r2, [r3, #76]
 547:Core/Src/bootloader.c **** }
 560              		.loc 1 547 5 view .LVU169
 561 0036 9A6D     		ldr	r2, [r3, #88]
 562 0038 22F00072 		bic	r2, r2, #33554432
 563 003c 9A65     		str	r2, [r3, #88]
 548:Core/Src/bootloader.c **** 
 564              		.loc 1 548 1 is_stmt 0 view .LVU170
 565 003e 10BD     		pop	{r4, pc}
 566              	.L43:
 567              		.align	2
 568              	.L42:
 569 0040 00000000 		.word	hcan_bootloader
 570              		.cfi_endproc
 571              	.LFE140:
 573              		.section	.text.Bootloader_Init,"ax",%progbits
 574              		.align	1
 575              		.global	Bootloader_Init
ARM GAS  C:\Users\Ali\AppData\Local\Temp\cc5FscdA.s 			page 27


 576              		.syntax unified
 577              		.thumb
 578              		.thumb_func
 580              	Bootloader_Init:
 581              	.LVL43:
 582              	.LFB132:
  48:Core/Src/bootloader.c ****     hcan_bootloader = hcan;
 583              		.loc 1 48 1 is_stmt 1 view -0
 584              		.cfi_startproc
 585              		@ args = 0, pretend = 0, frame = 0
 586              		@ frame_needed = 0, uses_anonymous_args = 0
  48:Core/Src/bootloader.c ****     hcan_bootloader = hcan;
 587              		.loc 1 48 1 is_stmt 0 view .LVU172
 588 0000 10B5     		push	{r4, lr}
 589              		.cfi_def_cfa_offset 8
 590              		.cfi_offset 4, -8
 591              		.cfi_offset 14, -4
  49:Core/Src/bootloader.c ****     
 592              		.loc 1 49 5 is_stmt 1 view .LVU173
  49:Core/Src/bootloader.c ****     
 593              		.loc 1 49 21 is_stmt 0 view .LVU174
 594 0002 144C     		ldr	r4, .L50
 595 0004 2060     		str	r0, [r4]
  52:Core/Src/bootloader.c ****     bootloader_status.state = BL_STATE_IDLE;
 596              		.loc 1 52 5 is_stmt 1 view .LVU175
 597 0006 144B     		ldr	r3, .L50+4
 598 0008 0022     		movs	r2, #0
 599 000a 1A60     		str	r2, [r3]
 600 000c 5A60     		str	r2, [r3, #4]
 601 000e 9A60     		str	r2, [r3, #8]
 602 0010 DA60     		str	r2, [r3, #12]
 603 0012 1A61     		str	r2, [r3, #16]
  53:Core/Src/bootloader.c ****     bootloader_status.current_address = APPLICATION_ADDRESS;
 604              		.loc 1 53 5 view .LVU176
  54:Core/Src/bootloader.c ****     
 605              		.loc 1 54 5 view .LVU177
  54:Core/Src/bootloader.c ****     
 606              		.loc 1 54 39 is_stmt 0 view .LVU178
 607 0014 114A     		ldr	r2, .L50+8
 608 0016 5A60     		str	r2, [r3, #4]
  57:Core/Src/bootloader.c ****     
 609              		.loc 1 57 5 is_stmt 1 view .LVU179
 610 0018 FFF7FEFF 		bl	Bootloader_ConfigureCANFilter
 611              	.LVL44:
  60:Core/Src/bootloader.c ****     {
 612              		.loc 1 60 5 view .LVU180
  60:Core/Src/bootloader.c ****     {
 613              		.loc 1 60 9 is_stmt 0 view .LVU181
 614 001c 2068     		ldr	r0, [r4]
 615 001e FFF7FEFF 		bl	HAL_CAN_Start
 616              	.LVL45:
  60:Core/Src/bootloader.c ****     {
 617              		.loc 1 60 8 discriminator 1 view .LVU182
 618 0022 88B9     		cbnz	r0, .L48
 619              	.L45:
  66:Core/Src/bootloader.c ****     {
 620              		.loc 1 66 5 is_stmt 1 view .LVU183
ARM GAS  C:\Users\Ali\AppData\Local\Temp\cc5FscdA.s 			page 28


  66:Core/Src/bootloader.c ****     {
 621              		.loc 1 66 9 is_stmt 0 view .LVU184
 622 0024 0221     		movs	r1, #2
 623 0026 0B4B     		ldr	r3, .L50
 624 0028 1868     		ldr	r0, [r3]
 625 002a FFF7FEFF 		bl	HAL_CAN_ActivateNotification
 626              	.LVL46:
  66:Core/Src/bootloader.c ****     {
 627              		.loc 1 66 8 discriminator 1 view .LVU185
 628 002e 70B9     		cbnz	r0, .L49
 629              	.L46:
  72:Core/Src/bootloader.c ****     tx_header.ExtId = 0;
 630              		.loc 1 72 5 is_stmt 1 view .LVU186
  72:Core/Src/bootloader.c ****     tx_header.ExtId = 0;
 631              		.loc 1 72 21 is_stmt 0 view .LVU187
 632 0030 0B4B     		ldr	r3, .L50+12
 633 0032 4FF4E062 		mov	r2, #1792
 634 0036 1A60     		str	r2, [r3]
  73:Core/Src/bootloader.c ****     tx_header.IDE = CAN_ID_STD;
 635              		.loc 1 73 5 is_stmt 1 view .LVU188
  73:Core/Src/bootloader.c ****     tx_header.IDE = CAN_ID_STD;
 636              		.loc 1 73 21 is_stmt 0 view .LVU189
 637 0038 0022     		movs	r2, #0
 638 003a 5A60     		str	r2, [r3, #4]
  74:Core/Src/bootloader.c ****     tx_header.RTR = CAN_RTR_DATA;
 639              		.loc 1 74 5 is_stmt 1 view .LVU190
  74:Core/Src/bootloader.c ****     tx_header.RTR = CAN_RTR_DATA;
 640              		.loc 1 74 19 is_stmt 0 view .LVU191
 641 003c 9A60     		str	r2, [r3, #8]
  75:Core/Src/bootloader.c ****     tx_header.DLC = 8;
 642              		.loc 1 75 5 is_stmt 1 view .LVU192
  75:Core/Src/bootloader.c ****     tx_header.DLC = 8;
 643              		.loc 1 75 19 is_stmt 0 view .LVU193
 644 003e DA60     		str	r2, [r3, #12]
  76:Core/Src/bootloader.c ****     tx_header.TransmitGlobalTime = DISABLE;
 645              		.loc 1 76 5 is_stmt 1 view .LVU194
  76:Core/Src/bootloader.c ****     tx_header.TransmitGlobalTime = DISABLE;
 646              		.loc 1 76 19 is_stmt 0 view .LVU195
 647 0040 0821     		movs	r1, #8
 648 0042 1961     		str	r1, [r3, #16]
  77:Core/Src/bootloader.c **** }
 649              		.loc 1 77 5 is_stmt 1 view .LVU196
  77:Core/Src/bootloader.c **** }
 650              		.loc 1 77 34 is_stmt 0 view .LVU197
 651 0044 1A75     		strb	r2, [r3, #20]
  78:Core/Src/bootloader.c **** 
 652              		.loc 1 78 1 view .LVU198
 653 0046 10BD     		pop	{r4, pc}
 654              	.L48:
  62:Core/Src/bootloader.c ****     }
 655              		.loc 1 62 9 is_stmt 1 view .LVU199
 656 0048 FFF7FEFF 		bl	Error_Handler
 657              	.LVL47:
 658 004c EAE7     		b	.L45
 659              	.L49:
  68:Core/Src/bootloader.c ****     }
 660              		.loc 1 68 9 view .LVU200
ARM GAS  C:\Users\Ali\AppData\Local\Temp\cc5FscdA.s 			page 29


 661 004e FFF7FEFF 		bl	Error_Handler
 662              	.LVL48:
 663 0052 EDE7     		b	.L46
 664              	.L51:
 665              		.align	2
 666              	.L50:
 667 0054 00000000 		.word	hcan_bootloader
 668 0058 00000000 		.word	bootloader_status
 669 005c 00800008 		.word	134250496
 670 0060 00000000 		.word	tx_header
 671              		.cfi_endproc
 672              	.LFE132:
 674              		.section	.text.Bootloader_CheckValidApplication,"ax",%progbits
 675              		.align	1
 676              		.global	Bootloader_CheckValidApplication
 677              		.syntax unified
 678              		.thumb
 679              		.thumb_func
 681              	Bootloader_CheckValidApplication:
 682              	.LFB139:
 507:Core/Src/bootloader.c ****     uint32_t stack_pointer = *(__IO uint32_t *)APPLICATION_ADDRESS;
 683              		.loc 1 507 1 view -0
 684              		.cfi_startproc
 685              		@ args = 0, pretend = 0, frame = 0
 686              		@ frame_needed = 0, uses_anonymous_args = 0
 687              		@ link register save eliminated.
 508:Core/Src/bootloader.c ****     uint32_t reset_handler = *(__IO uint32_t *)(APPLICATION_ADDRESS + 4);
 688              		.loc 1 508 5 view .LVU202
 508:Core/Src/bootloader.c ****     uint32_t reset_handler = *(__IO uint32_t *)(APPLICATION_ADDRESS + 4);
 689              		.loc 1 508 14 is_stmt 0 view .LVU203
 690 0000 094A     		ldr	r2, .L56
 691 0002 1368     		ldr	r3, [r2]
 692              	.LVL49:
 509:Core/Src/bootloader.c ****     
 693              		.loc 1 509 5 is_stmt 1 view .LVU204
 509:Core/Src/bootloader.c ****     
 694              		.loc 1 509 14 is_stmt 0 view .LVU205
 695 0004 5268     		ldr	r2, [r2, #4]
 696              	.LVL50:
 512:Core/Src/bootloader.c ****     {
 697              		.loc 1 512 5 is_stmt 1 view .LVU206
 512:Core/Src/bootloader.c ****     {
 698              		.loc 1 512 24 is_stmt 0 view .LVU207
 699 0006 6FF31303 		bfc	r3, #0, #20
 700              	.LVL51:
 512:Core/Src/bootloader.c ****     {
 701              		.loc 1 512 8 view .LVU208
 702 000a B3F1005F 		cmp	r3, #536870912
 703 000e 06D1     		bne	.L54
 518:Core/Src/bootloader.c ****     {
 704              		.loc 1 518 5 is_stmt 1 view .LVU209
 518:Core/Src/bootloader.c ****     {
 705              		.loc 1 518 52 is_stmt 0 view .LVU210
 706 0010 6FF35702 		bfc	r2, #1, #23
 707              	.LVL52:
 518:Core/Src/bootloader.c ****     {
 708              		.loc 1 518 8 view .LVU211
ARM GAS  C:\Users\Ali\AppData\Local\Temp\cc5FscdA.s 			page 30


 709 0014 054B     		ldr	r3, .L56+4
 710 0016 9A42     		cmp	r2, r3
 711 0018 03D1     		bne	.L55
 523:Core/Src/bootloader.c **** }
 712              		.loc 1 523 12 view .LVU212
 713 001a 0120     		movs	r0, #1
 714 001c 7047     		bx	lr
 715              	.LVL53:
 716              	.L54:
 514:Core/Src/bootloader.c ****     }
 717              		.loc 1 514 16 view .LVU213
 718 001e 0020     		movs	r0, #0
 719 0020 7047     		bx	lr
 720              	.LVL54:
 721              	.L55:
 520:Core/Src/bootloader.c ****     }
 722              		.loc 1 520 16 view .LVU214
 723 0022 0020     		movs	r0, #0
 524:Core/Src/bootloader.c **** 
 724              		.loc 1 524 1 view .LVU215
 725 0024 7047     		bx	lr
 726              	.L57:
 727 0026 00BF     		.align	2
 728              	.L56:
 729 0028 00800008 		.word	134250496
 730 002c 01000008 		.word	134217729
 731              		.cfi_endproc
 732              	.LFE139:
 734              		.section	.text.Bootloader_SendCANMessage,"ax",%progbits
 735              		.align	1
 736              		.global	Bootloader_SendCANMessage
 737              		.syntax unified
 738              		.thumb
 739              		.thumb_func
 741              	Bootloader_SendCANMessage:
 742              	.LVL55:
 743              	.LFB145:
 567:Core/Src/bootloader.c **** 
 568:Core/Src/bootloader.c **** /**
 569:Core/Src/bootloader.c ****   * @brief  Jump to application
 570:Core/Src/bootloader.c ****   * @retval Error code (if returns, jump failed)
 571:Core/Src/bootloader.c ****   */
 572:Core/Src/bootloader.c **** uint8_t Bootloader_JumpToApplication(void)
 573:Core/Src/bootloader.c **** {
 574:Core/Src/bootloader.c ****     typedef void (*pFunction)(void);
 575:Core/Src/bootloader.c ****     pFunction jump_to_application;
 576:Core/Src/bootloader.c ****     uint32_t jump_address;
 577:Core/Src/bootloader.c ****     uint32_t app_stack_pointer;
 578:Core/Src/bootloader.c ****     uint8_t jump_info[8];
 579:Core/Src/bootloader.c ****     
 580:Core/Src/bootloader.c ****     /* Check if valid application exists */
 581:Core/Src/bootloader.c ****     if (!Bootloader_CheckValidApplication())
 582:Core/Src/bootloader.c ****     {
 583:Core/Src/bootloader.c ****         return ERR_NO_VALID_APP;
 584:Core/Src/bootloader.c ****     }
 585:Core/Src/bootloader.c ****     
 586:Core/Src/bootloader.c ****     /* Read application vector table */
ARM GAS  C:\Users\Ali\AppData\Local\Temp\cc5FscdA.s 			page 31


 587:Core/Src/bootloader.c ****     app_stack_pointer = *(__IO uint32_t *)APPLICATION_ADDRESS;
 588:Core/Src/bootloader.c ****     jump_address = *(__IO uint32_t *)(APPLICATION_ADDRESS + 4);
 589:Core/Src/bootloader.c ****     
 590:Core/Src/bootloader.c ****     /* Send detailed jump information before jumping */
 591:Core/Src/bootloader.c ****     jump_info[0] = RESP_JUMP_INFO;
 592:Core/Src/bootloader.c ****     jump_info[1] = (app_stack_pointer >> 24) & 0xFF;  /* Stack pointer MSB */
 593:Core/Src/bootloader.c ****     jump_info[2] = (app_stack_pointer >> 16) & 0xFF;
 594:Core/Src/bootloader.c ****     jump_info[3] = (app_stack_pointer >> 8) & 0xFF;
 595:Core/Src/bootloader.c ****     jump_info[4] = app_stack_pointer & 0xFF;          /* Stack pointer LSB */
 596:Core/Src/bootloader.c ****     jump_info[5] = (jump_address >> 16) & 0xFF;       /* Reset vector high word */
 597:Core/Src/bootloader.c ****     jump_info[6] = (jump_address >> 8) & 0xFF;
 598:Core/Src/bootloader.c ****     jump_info[7] = jump_address & 0xFF;               /* Reset vector LSB */
 599:Core/Src/bootloader.c ****     
 600:Core/Src/bootloader.c ****     Bootloader_SendCANMessage(RESP_JUMP_INFO, jump_info, 8);
 601:Core/Src/bootloader.c ****     
 602:Core/Src/bootloader.c ****     /* Wait for CAN transmission to complete */
 603:Core/Src/bootloader.c ****     Bootloader_WaitForCANTransmission();
 604:Core/Src/bootloader.c ****     
 605:Core/Src/bootloader.c ****     bootloader_status.state = BL_STATE_JUMPING;
 606:Core/Src/bootloader.c ****     
 607:Core/Src/bootloader.c ****     /* De-initialize peripherals */
 608:Core/Src/bootloader.c ****     Bootloader_DeInit();
 609:Core/Src/bootloader.c ****     
 610:Core/Src/bootloader.c ****     /* Get the application stack pointer */
 611:Core/Src/bootloader.c ****     __set_MSP(app_stack_pointer);
 612:Core/Src/bootloader.c ****     
 613:Core/Src/bootloader.c ****     /* Cast to function pointer */
 614:Core/Src/bootloader.c ****     jump_to_application = (pFunction)jump_address;
 615:Core/Src/bootloader.c ****     
 616:Core/Src/bootloader.c ****     /* Relocate vector table */
 617:Core/Src/bootloader.c ****     SCB->VTOR = APPLICATION_ADDRESS;
 618:Core/Src/bootloader.c ****     
 619:Core/Src/bootloader.c ****     /* Jump to application */
 620:Core/Src/bootloader.c ****     jump_to_application();
 621:Core/Src/bootloader.c ****     
 622:Core/Src/bootloader.c ****     /* Should never reach here */
 623:Core/Src/bootloader.c ****     return ERR_NONE;
 624:Core/Src/bootloader.c **** }
 625:Core/Src/bootloader.c **** 
 626:Core/Src/bootloader.c **** /**
 627:Core/Src/bootloader.c ****   * @brief  Send ACK message
 628:Core/Src/bootloader.c ****   * @retval None
 629:Core/Src/bootloader.c ****   */
 630:Core/Src/bootloader.c **** static void Bootloader_SendACK(void)
 631:Core/Src/bootloader.c **** {
 632:Core/Src/bootloader.c ****     tx_data[0] = RESP_ACK;
 633:Core/Src/bootloader.c ****     tx_data[1] = bootloader_status.last_error;
 634:Core/Src/bootloader.c ****     Bootloader_SendCANMessage(RESP_ACK, tx_data, 2);
 635:Core/Src/bootloader.c **** }
 636:Core/Src/bootloader.c **** 
 637:Core/Src/bootloader.c **** /**
 638:Core/Src/bootloader.c ****   * @brief  Send NACK message
 639:Core/Src/bootloader.c ****   * @param  error_code: Error code to send
 640:Core/Src/bootloader.c ****   * @retval None
 641:Core/Src/bootloader.c ****   */
 642:Core/Src/bootloader.c **** static void Bootloader_SendNACK(uint8_t error_code)
 643:Core/Src/bootloader.c **** {
ARM GAS  C:\Users\Ali\AppData\Local\Temp\cc5FscdA.s 			page 32


 644:Core/Src/bootloader.c ****     bootloader_status.last_error = error_code;
 645:Core/Src/bootloader.c ****     tx_data[0] = RESP_NACK;
 646:Core/Src/bootloader.c ****     tx_data[1] = error_code;
 647:Core/Src/bootloader.c ****     Bootloader_SendCANMessage(RESP_NACK, tx_data, 2);
 648:Core/Src/bootloader.c **** }
 649:Core/Src/bootloader.c **** 
 650:Core/Src/bootloader.c **** /**
 651:Core/Src/bootloader.c ****   * @brief  Send CAN message
 652:Core/Src/bootloader.c ****   * @param  cmd: Command/response byte
 653:Core/Src/bootloader.c ****   * @param  data: Pointer to data buffer
 654:Core/Src/bootloader.c ****   * @param  length: Data length
 655:Core/Src/bootloader.c ****   * @retval None
 656:Core/Src/bootloader.c ****   */
 657:Core/Src/bootloader.c **** void Bootloader_SendCANMessage(uint8_t cmd, uint8_t *data, uint8_t length)
 658:Core/Src/bootloader.c **** {
 744              		.loc 1 658 1 is_stmt 1 view -0
 745              		.cfi_startproc
 746              		@ args = 0, pretend = 0, frame = 8
 747              		@ frame_needed = 0, uses_anonymous_args = 0
 748              		.loc 1 658 1 is_stmt 0 view .LVU217
 749 0000 00B5     		push	{lr}
 750              		.cfi_def_cfa_offset 4
 751              		.cfi_offset 14, -4
 752 0002 83B0     		sub	sp, sp, #12
 753              		.cfi_def_cfa_offset 16
 659:Core/Src/bootloader.c ****     uint8_t i;
 754              		.loc 1 659 5 is_stmt 1 view .LVU218
 660:Core/Src/bootloader.c ****     uint8_t tx_buffer[8] = {0};
 755              		.loc 1 660 5 view .LVU219
 756              		.loc 1 660 13 is_stmt 0 view .LVU220
 757 0004 0023     		movs	r3, #0
 758 0006 0093     		str	r3, [sp]
 759 0008 0193     		str	r3, [sp, #4]
 661:Core/Src/bootloader.c ****     
 662:Core/Src/bootloader.c ****     /* Copy data to TX buffer */
 663:Core/Src/bootloader.c ****     for (i = 0; i < length && i < 8; i++)
 760              		.loc 1 663 5 is_stmt 1 view .LVU221
 761              	.LVL56:
 762              		.loc 1 663 5 is_stmt 0 view .LVU222
 763 000a 08E0     		b	.L59
 764              	.LVL57:
 765              	.L61:
 664:Core/Src/bootloader.c ****     {
 665:Core/Src/bootloader.c ****         tx_buffer[i] = data[i];
 766              		.loc 1 665 9 is_stmt 1 view .LVU223
 767              		.loc 1 665 28 is_stmt 0 view .LVU224
 768 000c 11F803C0 		ldrb	ip, [r1, r3]	@ zero_extendqisi2
 769              		.loc 1 665 22 view .LVU225
 770 0010 03F10800 		add	r0, r3, #8
 771 0014 6844     		add	r0, sp, r0
 772 0016 00F808CC 		strb	ip, [r0, #-8]
 663:Core/Src/bootloader.c ****     {
 773              		.loc 1 663 39 is_stmt 1 discriminator 4 view .LVU226
 774 001a 0133     		adds	r3, r3, #1
 775              	.LVL58:
 663:Core/Src/bootloader.c ****     {
 776              		.loc 1 663 39 is_stmt 0 discriminator 4 view .LVU227
ARM GAS  C:\Users\Ali\AppData\Local\Temp\cc5FscdA.s 			page 33


 777 001c DBB2     		uxtb	r3, r3
 778              	.LVL59:
 779              	.L59:
 663:Core/Src/bootloader.c ****     {
 780              		.loc 1 663 28 is_stmt 1 discriminator 1 view .LVU228
 781 001e 9342     		cmp	r3, r2
 782 0020 01D2     		bcs	.L60
 663:Core/Src/bootloader.c ****     {
 783              		.loc 1 663 28 is_stmt 0 discriminator 3 view .LVU229
 784 0022 072B     		cmp	r3, #7
 785 0024 F2D9     		bls	.L61
 786              	.L60:
 666:Core/Src/bootloader.c ****     }
 667:Core/Src/bootloader.c ****     
 668:Core/Src/bootloader.c ****     /* Set DLC */
 669:Core/Src/bootloader.c ****     tx_header.DLC = length;
 787              		.loc 1 669 5 is_stmt 1 view .LVU230
 788              		.loc 1 669 19 is_stmt 0 view .LVU231
 789 0026 0549     		ldr	r1, .L63
 790              	.LVL60:
 791              		.loc 1 669 19 view .LVU232
 792 0028 0A61     		str	r2, [r1, #16]
 670:Core/Src/bootloader.c ****     
 671:Core/Src/bootloader.c ****     /* Send message */
 672:Core/Src/bootloader.c ****     HAL_CAN_AddTxMessage(hcan_bootloader, &tx_header, tx_buffer, &tx_mailbox);
 793              		.loc 1 672 5 is_stmt 1 view .LVU233
 794 002a 054B     		ldr	r3, .L63+4
 795              	.LVL61:
 796              		.loc 1 672 5 is_stmt 0 view .LVU234
 797 002c 6A46     		mov	r2, sp
 798              	.LVL62:
 799              		.loc 1 672 5 view .LVU235
 800 002e 0548     		ldr	r0, .L63+8
 801 0030 0068     		ldr	r0, [r0]
 802 0032 FFF7FEFF 		bl	HAL_CAN_AddTxMessage
 803              	.LVL63:
 673:Core/Src/bootloader.c **** }
 804              		.loc 1 673 1 view .LVU236
 805 0036 03B0     		add	sp, sp, #12
 806              		.cfi_def_cfa_offset 4
 807              		@ sp needed
 808 0038 5DF804FB 		ldr	pc, [sp], #4
 809              	.L64:
 810              		.align	2
 811              	.L63:
 812 003c 00000000 		.word	tx_header
 813 0040 00000000 		.word	tx_mailbox
 814 0044 00000000 		.word	hcan_bootloader
 815              		.cfi_endproc
 816              	.LFE145:
 818              		.section	.text.Bootloader_SendACK,"ax",%progbits
 819              		.align	1
 820              		.syntax unified
 821              		.thumb
 822              		.thumb_func
 824              	Bootloader_SendACK:
 825              	.LFB143:
ARM GAS  C:\Users\Ali\AppData\Local\Temp\cc5FscdA.s 			page 34


 631:Core/Src/bootloader.c ****     tx_data[0] = RESP_ACK;
 826              		.loc 1 631 1 is_stmt 1 view -0
 827              		.cfi_startproc
 828              		@ args = 0, pretend = 0, frame = 0
 829              		@ frame_needed = 0, uses_anonymous_args = 0
 830 0000 08B5     		push	{r3, lr}
 831              		.cfi_def_cfa_offset 8
 832              		.cfi_offset 3, -8
 833              		.cfi_offset 14, -4
 632:Core/Src/bootloader.c ****     tx_data[1] = bootloader_status.last_error;
 834              		.loc 1 632 5 view .LVU238
 632:Core/Src/bootloader.c ****     tx_data[1] = bootloader_status.last_error;
 835              		.loc 1 632 16 is_stmt 0 view .LVU239
 836 0002 0549     		ldr	r1, .L67
 837 0004 1020     		movs	r0, #16
 838 0006 0870     		strb	r0, [r1]
 633:Core/Src/bootloader.c ****     Bootloader_SendCANMessage(RESP_ACK, tx_data, 2);
 839              		.loc 1 633 5 is_stmt 1 view .LVU240
 633:Core/Src/bootloader.c ****     Bootloader_SendCANMessage(RESP_ACK, tx_data, 2);
 840              		.loc 1 633 35 is_stmt 0 view .LVU241
 841 0008 044B     		ldr	r3, .L67+4
 842 000a 1B7C     		ldrb	r3, [r3, #16]	@ zero_extendqisi2
 633:Core/Src/bootloader.c ****     Bootloader_SendCANMessage(RESP_ACK, tx_data, 2);
 843              		.loc 1 633 16 view .LVU242
 844 000c 4B70     		strb	r3, [r1, #1]
 634:Core/Src/bootloader.c **** }
 845              		.loc 1 634 5 is_stmt 1 view .LVU243
 846 000e 0222     		movs	r2, #2
 847 0010 FFF7FEFF 		bl	Bootloader_SendCANMessage
 848              	.LVL64:
 635:Core/Src/bootloader.c **** 
 849              		.loc 1 635 1 is_stmt 0 view .LVU244
 850 0014 08BD     		pop	{r3, pc}
 851              	.L68:
 852 0016 00BF     		.align	2
 853              	.L67:
 854 0018 00000000 		.word	tx_data
 855 001c 00000000 		.word	bootloader_status
 856              		.cfi_endproc
 857              	.LFE143:
 859              		.section	.text.Bootloader_SendNACK,"ax",%progbits
 860              		.align	1
 861              		.syntax unified
 862              		.thumb
 863              		.thumb_func
 865              	Bootloader_SendNACK:
 866              	.LVL65:
 867              	.LFB144:
 643:Core/Src/bootloader.c ****     bootloader_status.last_error = error_code;
 868              		.loc 1 643 1 is_stmt 1 view -0
 869              		.cfi_startproc
 870              		@ args = 0, pretend = 0, frame = 0
 871              		@ frame_needed = 0, uses_anonymous_args = 0
 643:Core/Src/bootloader.c ****     bootloader_status.last_error = error_code;
 872              		.loc 1 643 1 is_stmt 0 view .LVU246
 873 0000 08B5     		push	{r3, lr}
 874              		.cfi_def_cfa_offset 8
ARM GAS  C:\Users\Ali\AppData\Local\Temp\cc5FscdA.s 			page 35


 875              		.cfi_offset 3, -8
 876              		.cfi_offset 14, -4
 877 0002 0346     		mov	r3, r0
 644:Core/Src/bootloader.c ****     tx_data[0] = RESP_NACK;
 878              		.loc 1 644 5 is_stmt 1 view .LVU247
 644:Core/Src/bootloader.c ****     tx_data[0] = RESP_NACK;
 879              		.loc 1 644 34 is_stmt 0 view .LVU248
 880 0004 044A     		ldr	r2, .L71
 881 0006 1074     		strb	r0, [r2, #16]
 645:Core/Src/bootloader.c ****     tx_data[1] = error_code;
 882              		.loc 1 645 5 is_stmt 1 view .LVU249
 645:Core/Src/bootloader.c ****     tx_data[1] = error_code;
 883              		.loc 1 645 16 is_stmt 0 view .LVU250
 884 0008 0449     		ldr	r1, .L71+4
 885 000a 1120     		movs	r0, #17
 886              	.LVL66:
 645:Core/Src/bootloader.c ****     tx_data[1] = error_code;
 887              		.loc 1 645 16 view .LVU251
 888 000c 0870     		strb	r0, [r1]
 646:Core/Src/bootloader.c ****     Bootloader_SendCANMessage(RESP_NACK, tx_data, 2);
 889              		.loc 1 646 5 is_stmt 1 view .LVU252
 646:Core/Src/bootloader.c ****     Bootloader_SendCANMessage(RESP_NACK, tx_data, 2);
 890              		.loc 1 646 16 is_stmt 0 view .LVU253
 891 000e 4B70     		strb	r3, [r1, #1]
 647:Core/Src/bootloader.c **** }
 892              		.loc 1 647 5 is_stmt 1 view .LVU254
 893 0010 0222     		movs	r2, #2
 647:Core/Src/bootloader.c **** }
 894              		.loc 1 647 5 is_stmt 0 view .LVU255
 895 0012 FFF7FEFF 		bl	Bootloader_SendCANMessage
 896              	.LVL67:
 648:Core/Src/bootloader.c **** 
 897              		.loc 1 648 1 view .LVU256
 898 0016 08BD     		pop	{r3, pc}
 899              	.L72:
 900              		.align	2
 901              	.L71:
 902 0018 00000000 		.word	bootloader_status
 903 001c 00000000 		.word	tx_data
 904              		.cfi_endproc
 905              	.LFE144:
 907              		.section	.text.Bootloader_JumpToApplication,"ax",%progbits
 908              		.align	1
 909              		.global	Bootloader_JumpToApplication
 910              		.syntax unified
 911              		.thumb
 912              		.thumb_func
 914              	Bootloader_JumpToApplication:
 915              	.LFB142:
 573:Core/Src/bootloader.c ****     typedef void (*pFunction)(void);
 916              		.loc 1 573 1 is_stmt 1 view -0
 917              		.cfi_startproc
 918              		@ args = 0, pretend = 0, frame = 8
 919              		@ frame_needed = 0, uses_anonymous_args = 0
 920 0000 70B5     		push	{r4, r5, r6, lr}
 921              		.cfi_def_cfa_offset 16
 922              		.cfi_offset 4, -16
ARM GAS  C:\Users\Ali\AppData\Local\Temp\cc5FscdA.s 			page 36


 923              		.cfi_offset 5, -12
 924              		.cfi_offset 6, -8
 925              		.cfi_offset 14, -4
 926 0002 82B0     		sub	sp, sp, #8
 927              		.cfi_def_cfa_offset 24
 574:Core/Src/bootloader.c ****     pFunction jump_to_application;
 928              		.loc 1 574 5 view .LVU258
 575:Core/Src/bootloader.c ****     uint32_t jump_address;
 929              		.loc 1 575 5 view .LVU259
 576:Core/Src/bootloader.c ****     uint32_t app_stack_pointer;
 930              		.loc 1 576 5 view .LVU260
 577:Core/Src/bootloader.c ****     uint8_t jump_info[8];
 931              		.loc 1 577 5 view .LVU261
 578:Core/Src/bootloader.c ****     
 932              		.loc 1 578 5 view .LVU262
 581:Core/Src/bootloader.c ****     {
 933              		.loc 1 581 5 view .LVU263
 581:Core/Src/bootloader.c ****     {
 934              		.loc 1 581 10 is_stmt 0 view .LVU264
 935 0004 FFF7FEFF 		bl	Bootloader_CheckValidApplication
 936              	.LVL68:
 581:Core/Src/bootloader.c ****     {
 937              		.loc 1 581 8 discriminator 1 view .LVU265
 938 0008 58B3     		cbz	r0, .L75
 587:Core/Src/bootloader.c ****     jump_address = *(__IO uint32_t *)(APPLICATION_ADDRESS + 4);
 939              		.loc 1 587 5 is_stmt 1 view .LVU266
 587:Core/Src/bootloader.c ****     jump_address = *(__IO uint32_t *)(APPLICATION_ADDRESS + 4);
 940              		.loc 1 587 23 is_stmt 0 view .LVU267
 941 000a 174E     		ldr	r6, .L77
 942 000c 3468     		ldr	r4, [r6]
 943              	.LVL69:
 588:Core/Src/bootloader.c ****     
 944              		.loc 1 588 5 is_stmt 1 view .LVU268
 588:Core/Src/bootloader.c ****     
 945              		.loc 1 588 18 is_stmt 0 view .LVU269
 946 000e 7568     		ldr	r5, [r6, #4]
 947              	.LVL70:
 591:Core/Src/bootloader.c ****     jump_info[1] = (app_stack_pointer >> 24) & 0xFF;  /* Stack pointer MSB */
 948              		.loc 1 591 5 is_stmt 1 view .LVU270
 591:Core/Src/bootloader.c ****     jump_info[1] = (app_stack_pointer >> 24) & 0xFF;  /* Stack pointer MSB */
 949              		.loc 1 591 18 is_stmt 0 view .LVU271
 950 0010 1620     		movs	r0, #22
 951 0012 8DF80000 		strb	r0, [sp]
 592:Core/Src/bootloader.c ****     jump_info[2] = (app_stack_pointer >> 16) & 0xFF;
 952              		.loc 1 592 5 is_stmt 1 view .LVU272
 592:Core/Src/bootloader.c ****     jump_info[2] = (app_stack_pointer >> 16) & 0xFF;
 953              		.loc 1 592 39 is_stmt 0 view .LVU273
 954 0016 230E     		lsrs	r3, r4, #24
 592:Core/Src/bootloader.c ****     jump_info[2] = (app_stack_pointer >> 16) & 0xFF;
 955              		.loc 1 592 18 view .LVU274
 956 0018 8DF80130 		strb	r3, [sp, #1]
 593:Core/Src/bootloader.c ****     jump_info[3] = (app_stack_pointer >> 8) & 0xFF;
 957              		.loc 1 593 5 is_stmt 1 view .LVU275
 593:Core/Src/bootloader.c ****     jump_info[3] = (app_stack_pointer >> 8) & 0xFF;
 958              		.loc 1 593 39 is_stmt 0 view .LVU276
 959 001c 230C     		lsrs	r3, r4, #16
 593:Core/Src/bootloader.c ****     jump_info[3] = (app_stack_pointer >> 8) & 0xFF;
ARM GAS  C:\Users\Ali\AppData\Local\Temp\cc5FscdA.s 			page 37


 960              		.loc 1 593 18 view .LVU277
 961 001e 8DF80230 		strb	r3, [sp, #2]
 594:Core/Src/bootloader.c ****     jump_info[4] = app_stack_pointer & 0xFF;          /* Stack pointer LSB */
 962              		.loc 1 594 5 is_stmt 1 view .LVU278
 594:Core/Src/bootloader.c ****     jump_info[4] = app_stack_pointer & 0xFF;          /* Stack pointer LSB */
 963              		.loc 1 594 39 is_stmt 0 view .LVU279
 964 0022 230A     		lsrs	r3, r4, #8
 594:Core/Src/bootloader.c ****     jump_info[4] = app_stack_pointer & 0xFF;          /* Stack pointer LSB */
 965              		.loc 1 594 18 view .LVU280
 966 0024 8DF80330 		strb	r3, [sp, #3]
 595:Core/Src/bootloader.c ****     jump_info[5] = (jump_address >> 16) & 0xFF;       /* Reset vector high word */
 967              		.loc 1 595 5 is_stmt 1 view .LVU281
 595:Core/Src/bootloader.c ****     jump_info[5] = (jump_address >> 16) & 0xFF;       /* Reset vector high word */
 968              		.loc 1 595 18 is_stmt 0 view .LVU282
 969 0028 8DF80440 		strb	r4, [sp, #4]
 596:Core/Src/bootloader.c ****     jump_info[6] = (jump_address >> 8) & 0xFF;
 970              		.loc 1 596 5 is_stmt 1 view .LVU283
 596:Core/Src/bootloader.c ****     jump_info[6] = (jump_address >> 8) & 0xFF;
 971              		.loc 1 596 34 is_stmt 0 view .LVU284
 972 002c 2B0C     		lsrs	r3, r5, #16
 596:Core/Src/bootloader.c ****     jump_info[6] = (jump_address >> 8) & 0xFF;
 973              		.loc 1 596 18 view .LVU285
 974 002e 8DF80530 		strb	r3, [sp, #5]
 597:Core/Src/bootloader.c ****     jump_info[7] = jump_address & 0xFF;               /* Reset vector LSB */
 975              		.loc 1 597 5 is_stmt 1 view .LVU286
 597:Core/Src/bootloader.c ****     jump_info[7] = jump_address & 0xFF;               /* Reset vector LSB */
 976              		.loc 1 597 34 is_stmt 0 view .LVU287
 977 0032 2B0A     		lsrs	r3, r5, #8
 597:Core/Src/bootloader.c ****     jump_info[7] = jump_address & 0xFF;               /* Reset vector LSB */
 978              		.loc 1 597 18 view .LVU288
 979 0034 8DF80630 		strb	r3, [sp, #6]
 598:Core/Src/bootloader.c ****     
 980              		.loc 1 598 5 is_stmt 1 view .LVU289
 598:Core/Src/bootloader.c ****     
 981              		.loc 1 598 18 is_stmt 0 view .LVU290
 982 0038 8DF80750 		strb	r5, [sp, #7]
 600:Core/Src/bootloader.c ****     
 983              		.loc 1 600 5 is_stmt 1 view .LVU291
 984 003c 0822     		movs	r2, #8
 985 003e 6946     		mov	r1, sp
 986 0040 FFF7FEFF 		bl	Bootloader_SendCANMessage
 987              	.LVL71:
 603:Core/Src/bootloader.c ****     
 988              		.loc 1 603 5 view .LVU292
 989 0044 FFF7FEFF 		bl	Bootloader_WaitForCANTransmission
 990              	.LVL72:
 605:Core/Src/bootloader.c ****     
 991              		.loc 1 605 5 view .LVU293
 605:Core/Src/bootloader.c ****     
 992              		.loc 1 605 29 is_stmt 0 view .LVU294
 993 0048 084B     		ldr	r3, .L77+4
 994 004a 0522     		movs	r2, #5
 995 004c 1A70     		strb	r2, [r3]
 608:Core/Src/bootloader.c ****     
 996              		.loc 1 608 5 is_stmt 1 view .LVU295
 997 004e FFF7FEFF 		bl	Bootloader_DeInit
 998              	.LVL73:
ARM GAS  C:\Users\Ali\AppData\Local\Temp\cc5FscdA.s 			page 38


 611:Core/Src/bootloader.c ****     
 999              		.loc 1 611 5 view .LVU296
 1000              	.LBB8:
 1001              	.LBI8:
 210:Drivers/CMSIS/Include/cmsis_gcc.h **** }
 211:Drivers/CMSIS/Include/cmsis_gcc.h **** 
 212:Drivers/CMSIS/Include/cmsis_gcc.h **** 
 213:Drivers/CMSIS/Include/cmsis_gcc.h **** /**
 214:Drivers/CMSIS/Include/cmsis_gcc.h ****   \brief   Get Control Register
 215:Drivers/CMSIS/Include/cmsis_gcc.h ****   \details Returns the content of the Control Register.
 216:Drivers/CMSIS/Include/cmsis_gcc.h ****   \return               Control Register value
 217:Drivers/CMSIS/Include/cmsis_gcc.h ****  */
 218:Drivers/CMSIS/Include/cmsis_gcc.h **** __STATIC_FORCEINLINE uint32_t __get_CONTROL(void)
 219:Drivers/CMSIS/Include/cmsis_gcc.h **** {
 220:Drivers/CMSIS/Include/cmsis_gcc.h ****   uint32_t result;
 221:Drivers/CMSIS/Include/cmsis_gcc.h **** 
 222:Drivers/CMSIS/Include/cmsis_gcc.h ****   __ASM volatile ("MRS %0, control" : "=r" (result) );
 223:Drivers/CMSIS/Include/cmsis_gcc.h ****   return(result);
 224:Drivers/CMSIS/Include/cmsis_gcc.h **** }
 225:Drivers/CMSIS/Include/cmsis_gcc.h **** 
 226:Drivers/CMSIS/Include/cmsis_gcc.h **** 
 227:Drivers/CMSIS/Include/cmsis_gcc.h **** #if (defined (__ARM_FEATURE_CMSE ) && (__ARM_FEATURE_CMSE == 3))
 228:Drivers/CMSIS/Include/cmsis_gcc.h **** /**
 229:Drivers/CMSIS/Include/cmsis_gcc.h ****   \brief   Get Control Register (non-secure)
 230:Drivers/CMSIS/Include/cmsis_gcc.h ****   \details Returns the content of the non-secure Control Register when in secure mode.
 231:Drivers/CMSIS/Include/cmsis_gcc.h ****   \return               non-secure Control Register value
 232:Drivers/CMSIS/Include/cmsis_gcc.h ****  */
 233:Drivers/CMSIS/Include/cmsis_gcc.h **** __STATIC_FORCEINLINE uint32_t __TZ_get_CONTROL_NS(void)
 234:Drivers/CMSIS/Include/cmsis_gcc.h **** {
 235:Drivers/CMSIS/Include/cmsis_gcc.h ****   uint32_t result;
 236:Drivers/CMSIS/Include/cmsis_gcc.h **** 
 237:Drivers/CMSIS/Include/cmsis_gcc.h ****   __ASM volatile ("MRS %0, control_ns" : "=r" (result) );
 238:Drivers/CMSIS/Include/cmsis_gcc.h ****   return(result);
 239:Drivers/CMSIS/Include/cmsis_gcc.h **** }
 240:Drivers/CMSIS/Include/cmsis_gcc.h **** #endif
 241:Drivers/CMSIS/Include/cmsis_gcc.h **** 
 242:Drivers/CMSIS/Include/cmsis_gcc.h **** 
 243:Drivers/CMSIS/Include/cmsis_gcc.h **** /**
 244:Drivers/CMSIS/Include/cmsis_gcc.h ****   \brief   Set Control Register
 245:Drivers/CMSIS/Include/cmsis_gcc.h ****   \details Writes the given value to the Control Register.
 246:Drivers/CMSIS/Include/cmsis_gcc.h ****   \param [in]    control  Control Register value to set
 247:Drivers/CMSIS/Include/cmsis_gcc.h ****  */
 248:Drivers/CMSIS/Include/cmsis_gcc.h **** __STATIC_FORCEINLINE void __set_CONTROL(uint32_t control)
 249:Drivers/CMSIS/Include/cmsis_gcc.h **** {
 250:Drivers/CMSIS/Include/cmsis_gcc.h ****   __ASM volatile ("MSR control, %0" : : "r" (control) : "memory");
 251:Drivers/CMSIS/Include/cmsis_gcc.h **** }
 252:Drivers/CMSIS/Include/cmsis_gcc.h **** 
 253:Drivers/CMSIS/Include/cmsis_gcc.h **** 
 254:Drivers/CMSIS/Include/cmsis_gcc.h **** #if (defined (__ARM_FEATURE_CMSE ) && (__ARM_FEATURE_CMSE == 3))
 255:Drivers/CMSIS/Include/cmsis_gcc.h **** /**
 256:Drivers/CMSIS/Include/cmsis_gcc.h ****   \brief   Set Control Register (non-secure)
 257:Drivers/CMSIS/Include/cmsis_gcc.h ****   \details Writes the given value to the non-secure Control Register when in secure state.
 258:Drivers/CMSIS/Include/cmsis_gcc.h ****   \param [in]    control  Control Register value to set
 259:Drivers/CMSIS/Include/cmsis_gcc.h ****  */
 260:Drivers/CMSIS/Include/cmsis_gcc.h **** __STATIC_FORCEINLINE void __TZ_set_CONTROL_NS(uint32_t control)
 261:Drivers/CMSIS/Include/cmsis_gcc.h **** {
 262:Drivers/CMSIS/Include/cmsis_gcc.h ****   __ASM volatile ("MSR control_ns, %0" : : "r" (control) : "memory");
ARM GAS  C:\Users\Ali\AppData\Local\Temp\cc5FscdA.s 			page 39


 263:Drivers/CMSIS/Include/cmsis_gcc.h **** }
 264:Drivers/CMSIS/Include/cmsis_gcc.h **** #endif
 265:Drivers/CMSIS/Include/cmsis_gcc.h **** 
 266:Drivers/CMSIS/Include/cmsis_gcc.h **** 
 267:Drivers/CMSIS/Include/cmsis_gcc.h **** /**
 268:Drivers/CMSIS/Include/cmsis_gcc.h ****   \brief   Get IPSR Register
 269:Drivers/CMSIS/Include/cmsis_gcc.h ****   \details Returns the content of the IPSR Register.
 270:Drivers/CMSIS/Include/cmsis_gcc.h ****   \return               IPSR Register value
 271:Drivers/CMSIS/Include/cmsis_gcc.h ****  */
 272:Drivers/CMSIS/Include/cmsis_gcc.h **** __STATIC_FORCEINLINE uint32_t __get_IPSR(void)
 273:Drivers/CMSIS/Include/cmsis_gcc.h **** {
 274:Drivers/CMSIS/Include/cmsis_gcc.h ****   uint32_t result;
 275:Drivers/CMSIS/Include/cmsis_gcc.h **** 
 276:Drivers/CMSIS/Include/cmsis_gcc.h ****   __ASM volatile ("MRS %0, ipsr" : "=r" (result) );
 277:Drivers/CMSIS/Include/cmsis_gcc.h ****   return(result);
 278:Drivers/CMSIS/Include/cmsis_gcc.h **** }
 279:Drivers/CMSIS/Include/cmsis_gcc.h **** 
 280:Drivers/CMSIS/Include/cmsis_gcc.h **** 
 281:Drivers/CMSIS/Include/cmsis_gcc.h **** /**
 282:Drivers/CMSIS/Include/cmsis_gcc.h ****   \brief   Get APSR Register
 283:Drivers/CMSIS/Include/cmsis_gcc.h ****   \details Returns the content of the APSR Register.
 284:Drivers/CMSIS/Include/cmsis_gcc.h ****   \return               APSR Register value
 285:Drivers/CMSIS/Include/cmsis_gcc.h ****  */
 286:Drivers/CMSIS/Include/cmsis_gcc.h **** __STATIC_FORCEINLINE uint32_t __get_APSR(void)
 287:Drivers/CMSIS/Include/cmsis_gcc.h **** {
 288:Drivers/CMSIS/Include/cmsis_gcc.h ****   uint32_t result;
 289:Drivers/CMSIS/Include/cmsis_gcc.h **** 
 290:Drivers/CMSIS/Include/cmsis_gcc.h ****   __ASM volatile ("MRS %0, apsr" : "=r" (result) );
 291:Drivers/CMSIS/Include/cmsis_gcc.h ****   return(result);
 292:Drivers/CMSIS/Include/cmsis_gcc.h **** }
 293:Drivers/CMSIS/Include/cmsis_gcc.h **** 
 294:Drivers/CMSIS/Include/cmsis_gcc.h **** 
 295:Drivers/CMSIS/Include/cmsis_gcc.h **** /**
 296:Drivers/CMSIS/Include/cmsis_gcc.h ****   \brief   Get xPSR Register
 297:Drivers/CMSIS/Include/cmsis_gcc.h ****   \details Returns the content of the xPSR Register.
 298:Drivers/CMSIS/Include/cmsis_gcc.h ****   \return               xPSR Register value
 299:Drivers/CMSIS/Include/cmsis_gcc.h ****  */
 300:Drivers/CMSIS/Include/cmsis_gcc.h **** __STATIC_FORCEINLINE uint32_t __get_xPSR(void)
 301:Drivers/CMSIS/Include/cmsis_gcc.h **** {
 302:Drivers/CMSIS/Include/cmsis_gcc.h ****   uint32_t result;
 303:Drivers/CMSIS/Include/cmsis_gcc.h **** 
 304:Drivers/CMSIS/Include/cmsis_gcc.h ****   __ASM volatile ("MRS %0, xpsr" : "=r" (result) );
 305:Drivers/CMSIS/Include/cmsis_gcc.h ****   return(result);
 306:Drivers/CMSIS/Include/cmsis_gcc.h **** }
 307:Drivers/CMSIS/Include/cmsis_gcc.h **** 
 308:Drivers/CMSIS/Include/cmsis_gcc.h **** 
 309:Drivers/CMSIS/Include/cmsis_gcc.h **** /**
 310:Drivers/CMSIS/Include/cmsis_gcc.h ****   \brief   Get Process Stack Pointer
 311:Drivers/CMSIS/Include/cmsis_gcc.h ****   \details Returns the current value of the Process Stack Pointer (PSP).
 312:Drivers/CMSIS/Include/cmsis_gcc.h ****   \return               PSP Register value
 313:Drivers/CMSIS/Include/cmsis_gcc.h ****  */
 314:Drivers/CMSIS/Include/cmsis_gcc.h **** __STATIC_FORCEINLINE uint32_t __get_PSP(void)
 315:Drivers/CMSIS/Include/cmsis_gcc.h **** {
 316:Drivers/CMSIS/Include/cmsis_gcc.h ****   uint32_t result;
 317:Drivers/CMSIS/Include/cmsis_gcc.h **** 
 318:Drivers/CMSIS/Include/cmsis_gcc.h ****   __ASM volatile ("MRS %0, psp"  : "=r" (result) );
 319:Drivers/CMSIS/Include/cmsis_gcc.h ****   return(result);
ARM GAS  C:\Users\Ali\AppData\Local\Temp\cc5FscdA.s 			page 40


 320:Drivers/CMSIS/Include/cmsis_gcc.h **** }
 321:Drivers/CMSIS/Include/cmsis_gcc.h **** 
 322:Drivers/CMSIS/Include/cmsis_gcc.h **** 
 323:Drivers/CMSIS/Include/cmsis_gcc.h **** #if (defined (__ARM_FEATURE_CMSE ) && (__ARM_FEATURE_CMSE == 3))
 324:Drivers/CMSIS/Include/cmsis_gcc.h **** /**
 325:Drivers/CMSIS/Include/cmsis_gcc.h ****   \brief   Get Process Stack Pointer (non-secure)
 326:Drivers/CMSIS/Include/cmsis_gcc.h ****   \details Returns the current value of the non-secure Process Stack Pointer (PSP) when in secure s
 327:Drivers/CMSIS/Include/cmsis_gcc.h ****   \return               PSP Register value
 328:Drivers/CMSIS/Include/cmsis_gcc.h ****  */
 329:Drivers/CMSIS/Include/cmsis_gcc.h **** __STATIC_FORCEINLINE uint32_t __TZ_get_PSP_NS(void)
 330:Drivers/CMSIS/Include/cmsis_gcc.h **** {
 331:Drivers/CMSIS/Include/cmsis_gcc.h ****   uint32_t result;
 332:Drivers/CMSIS/Include/cmsis_gcc.h **** 
 333:Drivers/CMSIS/Include/cmsis_gcc.h ****   __ASM volatile ("MRS %0, psp_ns"  : "=r" (result) );
 334:Drivers/CMSIS/Include/cmsis_gcc.h ****   return(result);
 335:Drivers/CMSIS/Include/cmsis_gcc.h **** }
 336:Drivers/CMSIS/Include/cmsis_gcc.h **** #endif
 337:Drivers/CMSIS/Include/cmsis_gcc.h **** 
 338:Drivers/CMSIS/Include/cmsis_gcc.h **** 
 339:Drivers/CMSIS/Include/cmsis_gcc.h **** /**
 340:Drivers/CMSIS/Include/cmsis_gcc.h ****   \brief   Set Process Stack Pointer
 341:Drivers/CMSIS/Include/cmsis_gcc.h ****   \details Assigns the given value to the Process Stack Pointer (PSP).
 342:Drivers/CMSIS/Include/cmsis_gcc.h ****   \param [in]    topOfProcStack  Process Stack Pointer value to set
 343:Drivers/CMSIS/Include/cmsis_gcc.h ****  */
 344:Drivers/CMSIS/Include/cmsis_gcc.h **** __STATIC_FORCEINLINE void __set_PSP(uint32_t topOfProcStack)
 345:Drivers/CMSIS/Include/cmsis_gcc.h **** {
 346:Drivers/CMSIS/Include/cmsis_gcc.h ****   __ASM volatile ("MSR psp, %0" : : "r" (topOfProcStack) : );
 347:Drivers/CMSIS/Include/cmsis_gcc.h **** }
 348:Drivers/CMSIS/Include/cmsis_gcc.h **** 
 349:Drivers/CMSIS/Include/cmsis_gcc.h **** 
 350:Drivers/CMSIS/Include/cmsis_gcc.h **** #if (defined (__ARM_FEATURE_CMSE ) && (__ARM_FEATURE_CMSE == 3))
 351:Drivers/CMSIS/Include/cmsis_gcc.h **** /**
 352:Drivers/CMSIS/Include/cmsis_gcc.h ****   \brief   Set Process Stack Pointer (non-secure)
 353:Drivers/CMSIS/Include/cmsis_gcc.h ****   \details Assigns the given value to the non-secure Process Stack Pointer (PSP) when in secure sta
 354:Drivers/CMSIS/Include/cmsis_gcc.h ****   \param [in]    topOfProcStack  Process Stack Pointer value to set
 355:Drivers/CMSIS/Include/cmsis_gcc.h ****  */
 356:Drivers/CMSIS/Include/cmsis_gcc.h **** __STATIC_FORCEINLINE void __TZ_set_PSP_NS(uint32_t topOfProcStack)
 357:Drivers/CMSIS/Include/cmsis_gcc.h **** {
 358:Drivers/CMSIS/Include/cmsis_gcc.h ****   __ASM volatile ("MSR psp_ns, %0" : : "r" (topOfProcStack) : );
 359:Drivers/CMSIS/Include/cmsis_gcc.h **** }
 360:Drivers/CMSIS/Include/cmsis_gcc.h **** #endif
 361:Drivers/CMSIS/Include/cmsis_gcc.h **** 
 362:Drivers/CMSIS/Include/cmsis_gcc.h **** 
 363:Drivers/CMSIS/Include/cmsis_gcc.h **** /**
 364:Drivers/CMSIS/Include/cmsis_gcc.h ****   \brief   Get Main Stack Pointer
 365:Drivers/CMSIS/Include/cmsis_gcc.h ****   \details Returns the current value of the Main Stack Pointer (MSP).
 366:Drivers/CMSIS/Include/cmsis_gcc.h ****   \return               MSP Register value
 367:Drivers/CMSIS/Include/cmsis_gcc.h ****  */
 368:Drivers/CMSIS/Include/cmsis_gcc.h **** __STATIC_FORCEINLINE uint32_t __get_MSP(void)
 369:Drivers/CMSIS/Include/cmsis_gcc.h **** {
 370:Drivers/CMSIS/Include/cmsis_gcc.h ****   uint32_t result;
 371:Drivers/CMSIS/Include/cmsis_gcc.h **** 
 372:Drivers/CMSIS/Include/cmsis_gcc.h ****   __ASM volatile ("MRS %0, msp" : "=r" (result) );
 373:Drivers/CMSIS/Include/cmsis_gcc.h ****   return(result);
 374:Drivers/CMSIS/Include/cmsis_gcc.h **** }
 375:Drivers/CMSIS/Include/cmsis_gcc.h **** 
 376:Drivers/CMSIS/Include/cmsis_gcc.h **** 
ARM GAS  C:\Users\Ali\AppData\Local\Temp\cc5FscdA.s 			page 41


 377:Drivers/CMSIS/Include/cmsis_gcc.h **** #if (defined (__ARM_FEATURE_CMSE ) && (__ARM_FEATURE_CMSE == 3))
 378:Drivers/CMSIS/Include/cmsis_gcc.h **** /**
 379:Drivers/CMSIS/Include/cmsis_gcc.h ****   \brief   Get Main Stack Pointer (non-secure)
 380:Drivers/CMSIS/Include/cmsis_gcc.h ****   \details Returns the current value of the non-secure Main Stack Pointer (MSP) when in secure stat
 381:Drivers/CMSIS/Include/cmsis_gcc.h ****   \return               MSP Register value
 382:Drivers/CMSIS/Include/cmsis_gcc.h ****  */
 383:Drivers/CMSIS/Include/cmsis_gcc.h **** __STATIC_FORCEINLINE uint32_t __TZ_get_MSP_NS(void)
 384:Drivers/CMSIS/Include/cmsis_gcc.h **** {
 385:Drivers/CMSIS/Include/cmsis_gcc.h ****   uint32_t result;
 386:Drivers/CMSIS/Include/cmsis_gcc.h **** 
 387:Drivers/CMSIS/Include/cmsis_gcc.h ****   __ASM volatile ("MRS %0, msp_ns" : "=r" (result) );
 388:Drivers/CMSIS/Include/cmsis_gcc.h ****   return(result);
 389:Drivers/CMSIS/Include/cmsis_gcc.h **** }
 390:Drivers/CMSIS/Include/cmsis_gcc.h **** #endif
 391:Drivers/CMSIS/Include/cmsis_gcc.h **** 
 392:Drivers/CMSIS/Include/cmsis_gcc.h **** 
 393:Drivers/CMSIS/Include/cmsis_gcc.h **** /**
 394:Drivers/CMSIS/Include/cmsis_gcc.h ****   \brief   Set Main Stack Pointer
 395:Drivers/CMSIS/Include/cmsis_gcc.h ****   \details Assigns the given value to the Main Stack Pointer (MSP).
 396:Drivers/CMSIS/Include/cmsis_gcc.h ****   \param [in]    topOfMainStack  Main Stack Pointer value to set
 397:Drivers/CMSIS/Include/cmsis_gcc.h ****  */
 398:Drivers/CMSIS/Include/cmsis_gcc.h **** __STATIC_FORCEINLINE void __set_MSP(uint32_t topOfMainStack)
 1002              		.loc 2 398 27 view .LVU297
 1003              	.LBB9:
 399:Drivers/CMSIS/Include/cmsis_gcc.h **** {
 400:Drivers/CMSIS/Include/cmsis_gcc.h ****   __ASM volatile ("MSR msp, %0" : : "r" (topOfMainStack) : );
 1004              		.loc 2 400 3 view .LVU298
 1005              		.syntax unified
 1006              	@ 400 "Drivers/CMSIS/Include/cmsis_gcc.h" 1
 1007 0052 84F30888 		MSR msp, r4
 1008              	@ 0 "" 2
 1009              	.LVL74:
 1010              		.loc 2 400 3 is_stmt 0 view .LVU299
 1011              		.thumb
 1012              		.syntax unified
 1013              	.LBE9:
 1014              	.LBE8:
 614:Core/Src/bootloader.c ****     
 1015              		.loc 1 614 5 is_stmt 1 view .LVU300
 617:Core/Src/bootloader.c ****     
 1016              		.loc 1 617 5 view .LVU301
 617:Core/Src/bootloader.c ****     
 1017              		.loc 1 617 15 is_stmt 0 view .LVU302
 1018 0056 064B     		ldr	r3, .L77+8
 1019 0058 9E60     		str	r6, [r3, #8]
 620:Core/Src/bootloader.c ****     
 1020              		.loc 1 620 5 is_stmt 1 view .LVU303
 1021 005a A847     		blx	r5
 1022              	.LVL75:
 623:Core/Src/bootloader.c **** }
 1023              		.loc 1 623 5 view .LVU304
 623:Core/Src/bootloader.c **** }
 1024              		.loc 1 623 12 is_stmt 0 view .LVU305
 1025 005c 0020     		movs	r0, #0
 1026              	.LVL76:
 1027              	.L74:
 624:Core/Src/bootloader.c **** 
ARM GAS  C:\Users\Ali\AppData\Local\Temp\cc5FscdA.s 			page 42


 1028              		.loc 1 624 1 view .LVU306
 1029 005e 02B0     		add	sp, sp, #8
 1030              		.cfi_remember_state
 1031              		.cfi_def_cfa_offset 16
 1032              		@ sp needed
 1033 0060 70BD     		pop	{r4, r5, r6, pc}
 1034              	.L75:
 1035              		.cfi_restore_state
 583:Core/Src/bootloader.c ****     }
 1036              		.loc 1 583 16 view .LVU307
 1037 0062 0620     		movs	r0, #6
 1038 0064 FBE7     		b	.L74
 1039              	.L78:
 1040 0066 00BF     		.align	2
 1041              	.L77:
 1042 0068 00800008 		.word	134250496
 1043 006c 00000000 		.word	bootloader_status
 1044 0070 00ED00E0 		.word	-536810240
 1045              		.cfi_endproc
 1046              	.LFE142:
 1048              		.section	.text.Bootloader_SetApplicationValidFlag,"ax",%progbits
 1049              		.align	1
 1050              		.global	Bootloader_SetApplicationValidFlag
 1051              		.syntax unified
 1052              		.thumb
 1053              		.thumb_func
 1055              	Bootloader_SetApplicationValidFlag:
 1056              	.LFB146:
 674:Core/Src/bootloader.c **** 
 675:Core/Src/bootloader.c **** /**
 676:Core/Src/bootloader.c ****   * @brief  Set application valid flag in flash
 677:Core/Src/bootloader.c ****   * @retval ERR_NONE if successful, error code otherwise
 678:Core/Src/bootloader.c ****   */
 679:Core/Src/bootloader.c **** uint8_t Bootloader_SetApplicationValidFlag(void)
 680:Core/Src/bootloader.c **** {
 1057              		.loc 1 680 1 is_stmt 1 view -0
 1058              		.cfi_startproc
 1059              		@ args = 0, pretend = 0, frame = 32
 1060              		@ frame_needed = 0, uses_anonymous_args = 0
 1061 0000 10B5     		push	{r4, lr}
 1062              		.cfi_def_cfa_offset 8
 1063              		.cfi_offset 4, -8
 1064              		.cfi_offset 14, -4
 1065 0002 88B0     		sub	sp, sp, #32
 1066              		.cfi_def_cfa_offset 40
 681:Core/Src/bootloader.c ****     HAL_StatusTypeDef status;
 1067              		.loc 1 681 5 view .LVU309
 682:Core/Src/bootloader.c ****     uint32_t magic_data[2];
 1068              		.loc 1 682 5 view .LVU310
 683:Core/Src/bootloader.c ****     uint64_t data_to_write;
 1069              		.loc 1 683 5 view .LVU311
 684:Core/Src/bootloader.c ****     
 685:Core/Src/bootloader.c ****     magic_data[0] = APP_VALID_MAGIC_NUMBER;
 1070              		.loc 1 685 5 view .LVU312
 1071              		.loc 1 685 19 is_stmt 0 view .LVU313
 1072 0004 164B     		ldr	r3, .L86+8
 1073 0006 0693     		str	r3, [sp, #24]
ARM GAS  C:\Users\Ali\AppData\Local\Temp\cc5FscdA.s 			page 43


 686:Core/Src/bootloader.c ****     magic_data[1] = APP_VALID_FLAG_COMPLEMENT;
 1074              		.loc 1 686 5 is_stmt 1 view .LVU314
 1075              		.loc 1 686 19 is_stmt 0 view .LVU315
 1076 0008 164B     		ldr	r3, .L86+12
 1077 000a 0793     		str	r3, [sp, #28]
 687:Core/Src/bootloader.c ****     
 688:Core/Src/bootloader.c ****     /* Unlock flash */
 689:Core/Src/bootloader.c ****     HAL_FLASH_Unlock();
 1078              		.loc 1 689 5 is_stmt 1 view .LVU316
 1079 000c FFF7FEFF 		bl	HAL_FLASH_Unlock
 1080              	.LVL77:
 690:Core/Src/bootloader.c ****     
 691:Core/Src/bootloader.c ****     /* Erase the page containing the flag (Page 63 - last page before application) */
 692:Core/Src/bootloader.c ****     FLASH_EraseInitTypeDef erase_init;
 1081              		.loc 1 692 5 view .LVU317
 693:Core/Src/bootloader.c ****     uint32_t page_error;
 1082              		.loc 1 693 5 view .LVU318
 694:Core/Src/bootloader.c ****     
 695:Core/Src/bootloader.c ****     erase_init.TypeErase = FLASH_TYPEERASE_PAGES;
 1083              		.loc 1 695 5 view .LVU319
 1084              		.loc 1 695 26 is_stmt 0 view .LVU320
 1085 0010 0023     		movs	r3, #0
 1086 0012 0293     		str	r3, [sp, #8]
 696:Core/Src/bootloader.c ****     erase_init.Page = 63;  /* Last page of bootloader area (32KB / 2KB per page = page 0-15, but fl
 1087              		.loc 1 696 5 is_stmt 1 view .LVU321
 1088              		.loc 1 696 21 is_stmt 0 view .LVU322
 1089 0014 3F23     		movs	r3, #63
 1090 0016 0493     		str	r3, [sp, #16]
 697:Core/Src/bootloader.c ****     erase_init.NbPages = 1;
 1091              		.loc 1 697 5 is_stmt 1 view .LVU323
 1092              		.loc 1 697 24 is_stmt 0 view .LVU324
 1093 0018 0123     		movs	r3, #1
 1094 001a 0593     		str	r3, [sp, #20]
 698:Core/Src/bootloader.c ****     
 699:Core/Src/bootloader.c ****     status = HAL_FLASHEx_Erase(&erase_init, &page_error);
 1095              		.loc 1 699 5 is_stmt 1 view .LVU325
 1096              		.loc 1 699 14 is_stmt 0 view .LVU326
 1097 001c 01A9     		add	r1, sp, #4
 1098 001e 02A8     		add	r0, sp, #8
 1099 0020 FFF7FEFF 		bl	HAL_FLASHEx_Erase
 1100              	.LVL78:
 700:Core/Src/bootloader.c ****     if (status != HAL_OK)
 1101              		.loc 1 700 5 is_stmt 1 view .LVU327
 1102              		.loc 1 700 8 is_stmt 0 view .LVU328
 1103 0024 68B9     		cbnz	r0, .L84
 701:Core/Src/bootloader.c ****     {
 702:Core/Src/bootloader.c ****         HAL_FLASH_Lock();
 703:Core/Src/bootloader.c ****         return ERR_FLASH_ERASE_FAILED;
 704:Core/Src/bootloader.c ****     }
 705:Core/Src/bootloader.c ****     
 706:Core/Src/bootloader.c ****     /* Write magic number (first 4 bytes) */
 707:Core/Src/bootloader.c ****     status = HAL_FLASH_Program(FLASH_TYPEPROGRAM_DOUBLEWORD, APP_VALID_FLAG_ADDRESS, 
 1104              		.loc 1 707 5 is_stmt 1 view .LVU329
 1105              		.loc 1 707 14 is_stmt 0 view .LVU330
 1106 0026 0CA3     		adr	r3, .L86
 1107 0028 D3E90023 		ldrd	r2, [r3]
 1108 002c 0E49     		ldr	r1, .L86+16
ARM GAS  C:\Users\Ali\AppData\Local\Temp\cc5FscdA.s 			page 44


 1109 002e 0020     		movs	r0, #0
 1110              	.LVL79:
 1111              		.loc 1 707 14 view .LVU331
 1112 0030 FFF7FEFF 		bl	HAL_FLASH_Program
 1113              	.LVL80:
 708:Core/Src/bootloader.c ****                                 *((uint64_t*)magic_data));
 709:Core/Src/bootloader.c ****     
 710:Core/Src/bootloader.c ****     if (status != HAL_OK)
 1114              		.loc 1 710 5 is_stmt 1 view .LVU332
 1115              		.loc 1 710 8 is_stmt 0 view .LVU333
 1116 0034 0446     		mov	r4, r0
 1117 0036 40B9     		cbnz	r0, .L85
 711:Core/Src/bootloader.c ****     {
 712:Core/Src/bootloader.c ****         HAL_FLASH_Lock();
 713:Core/Src/bootloader.c ****         return ERR_FLASH_WRITE_FAILED;
 714:Core/Src/bootloader.c ****     }
 715:Core/Src/bootloader.c ****     
 716:Core/Src/bootloader.c ****     /* Lock flash */
 717:Core/Src/bootloader.c ****     HAL_FLASH_Lock();
 1118              		.loc 1 717 5 is_stmt 1 view .LVU334
 1119 0038 FFF7FEFF 		bl	HAL_FLASH_Lock
 1120              	.LVL81:
 718:Core/Src/bootloader.c ****     
 719:Core/Src/bootloader.c ****     return ERR_NONE;
 1121              		.loc 1 719 5 view .LVU335
 1122              	.L81:
 720:Core/Src/bootloader.c **** }
 1123              		.loc 1 720 1 is_stmt 0 view .LVU336
 1124 003c 2046     		mov	r0, r4
 1125 003e 08B0     		add	sp, sp, #32
 1126              		.cfi_remember_state
 1127              		.cfi_def_cfa_offset 8
 1128              		@ sp needed
 1129 0040 10BD     		pop	{r4, pc}
 1130              	.LVL82:
 1131              	.L84:
 1132              		.cfi_restore_state
 702:Core/Src/bootloader.c ****         return ERR_FLASH_ERASE_FAILED;
 1133              		.loc 1 702 9 is_stmt 1 view .LVU337
 1134 0042 FFF7FEFF 		bl	HAL_FLASH_Lock
 1135              	.LVL83:
 703:Core/Src/bootloader.c ****     }
 1136              		.loc 1 703 9 view .LVU338
 703:Core/Src/bootloader.c ****     }
 1137              		.loc 1 703 16 is_stmt 0 view .LVU339
 1138 0046 0324     		movs	r4, #3
 1139 0048 F8E7     		b	.L81
 1140              	.LVL84:
 1141              	.L85:
 712:Core/Src/bootloader.c ****         return ERR_FLASH_WRITE_FAILED;
 1142              		.loc 1 712 9 is_stmt 1 view .LVU340
 1143 004a FFF7FEFF 		bl	HAL_FLASH_Lock
 1144              	.LVL85:
 713:Core/Src/bootloader.c ****     }
 1145              		.loc 1 713 9 view .LVU341
 713:Core/Src/bootloader.c ****     }
 1146              		.loc 1 713 16 is_stmt 0 view .LVU342
ARM GAS  C:\Users\Ali\AppData\Local\Temp\cc5FscdA.s 			page 45


 1147 004e 0424     		movs	r4, #4
 1148              	.LVL86:
 713:Core/Src/bootloader.c ****     }
 1149              		.loc 1 713 16 view .LVU343
 1150 0050 F4E7     		b	.L81
 1151              	.L87:
 1152 0052 00BFAFF3 		.align	3
 1152      0080
 1153              	.L86:
 1154 0058 EFBEADDE 		.word	-559038737
 1155 005c 10415221 		.word	559038736
 1156 0060 EFBEADDE 		.word	-559038737
 1157 0064 10415221 		.word	559038736
 1158 0068 F87F0008 		.word	134250488
 1159              		.cfi_endproc
 1160              	.LFE146:
 1162              		.section	.text.Bootloader_CheckApplicationValidFlag,"ax",%progbits
 1163              		.align	1
 1164              		.global	Bootloader_CheckApplicationValidFlag
 1165              		.syntax unified
 1166              		.thumb
 1167              		.thumb_func
 1169              	Bootloader_CheckApplicationValidFlag:
 1170              	.LFB147:
 721:Core/Src/bootloader.c **** 
 722:Core/Src/bootloader.c **** /**
 723:Core/Src/bootloader.c ****   * @brief  Check if application valid flag is set
 724:Core/Src/bootloader.c ****   * @retval 1 if valid, 0 if not valid
 725:Core/Src/bootloader.c ****   */
 726:Core/Src/bootloader.c **** uint8_t Bootloader_CheckApplicationValidFlag(void)
 727:Core/Src/bootloader.c **** {
 1171              		.loc 1 727 1 is_stmt 1 view -0
 1172              		.cfi_startproc
 1173              		@ args = 0, pretend = 0, frame = 0
 1174              		@ frame_needed = 0, uses_anonymous_args = 0
 1175              		@ link register save eliminated.
 728:Core/Src/bootloader.c ****     uint32_t *flag_ptr = (uint32_t *)APP_VALID_FLAG_ADDRESS;
 1176              		.loc 1 728 5 view .LVU345
 1177              	.LVL87:
 729:Core/Src/bootloader.c ****     
 730:Core/Src/bootloader.c ****     /* Check if both magic number and complement are present */
 731:Core/Src/bootloader.c ****     if (flag_ptr[0] == APP_VALID_MAGIC_NUMBER && 
 1178              		.loc 1 731 5 view .LVU346
 1179              		.loc 1 731 17 is_stmt 0 view .LVU347
 1180 0000 084B     		ldr	r3, .L93
 1181 0002 D3F8F82F 		ldr	r2, [r3, #4088]
 1182              		.loc 1 731 8 view .LVU348
 1183 0006 084B     		ldr	r3, .L93+4
 1184 0008 9A42     		cmp	r2, r3
 1185 000a 01D0     		beq	.L92
 732:Core/Src/bootloader.c ****         flag_ptr[1] == APP_VALID_FLAG_COMPLEMENT)
 733:Core/Src/bootloader.c ****     {
 734:Core/Src/bootloader.c ****         return 1;  /* Valid flag found */
 735:Core/Src/bootloader.c ****     }
 736:Core/Src/bootloader.c ****     
 737:Core/Src/bootloader.c ****     return 0;  /* No valid flag */
 1186              		.loc 1 737 12 view .LVU349
ARM GAS  C:\Users\Ali\AppData\Local\Temp\cc5FscdA.s 			page 46


 1187 000c 0020     		movs	r0, #0
 1188 000e 7047     		bx	lr
 1189              	.L92:
 732:Core/Src/bootloader.c ****         flag_ptr[1] == APP_VALID_FLAG_COMPLEMENT)
 1190              		.loc 1 732 17 view .LVU350
 1191 0010 044B     		ldr	r3, .L93
 1192 0012 D3F8FC2F 		ldr	r2, [r3, #4092]
 731:Core/Src/bootloader.c ****         flag_ptr[1] == APP_VALID_FLAG_COMPLEMENT)
 1193              		.loc 1 731 47 discriminator 1 view .LVU351
 1194 0016 054B     		ldr	r3, .L93+8
 1195 0018 9A42     		cmp	r2, r3
 1196 001a 01D0     		beq	.L91
 1197              		.loc 1 737 12 view .LVU352
 1198 001c 0020     		movs	r0, #0
 1199 001e 7047     		bx	lr
 1200              	.L91:
 734:Core/Src/bootloader.c ****     }
 1201              		.loc 1 734 16 view .LVU353
 1202 0020 0120     		movs	r0, #1
 738:Core/Src/bootloader.c **** }
 1203              		.loc 1 738 1 view .LVU354
 1204 0022 7047     		bx	lr
 1205              	.L94:
 1206              		.align	2
 1207              	.L93:
 1208 0024 00700008 		.word	134246400
 1209 0028 EFBEADDE 		.word	-559038737
 1210 002c 10415221 		.word	559038736
 1211              		.cfi_endproc
 1212              	.LFE147:
 1214              		.section	.text.Bootloader_Main,"ax",%progbits
 1215              		.align	1
 1216              		.global	Bootloader_Main
 1217              		.syntax unified
 1218              		.thumb
 1219              		.thumb_func
 1221              	Bootloader_Main:
 1222              	.LFB134:
 110:Core/Src/bootloader.c ****     uint32_t timeout_start = HAL_GetTick();
 1223              		.loc 1 110 1 is_stmt 1 view -0
 1224              		.cfi_startproc
 1225              		@ args = 0, pretend = 0, frame = 0
 1226              		@ frame_needed = 0, uses_anonymous_args = 0
 1227 0000 38B5     		push	{r3, r4, r5, lr}
 1228              		.cfi_def_cfa_offset 16
 1229              		.cfi_offset 3, -16
 1230              		.cfi_offset 4, -12
 1231              		.cfi_offset 5, -8
 1232              		.cfi_offset 14, -4
 111:Core/Src/bootloader.c ****     uint8_t timeout_expired = 0;
 1233              		.loc 1 111 5 view .LVU356
 111:Core/Src/bootloader.c ****     uint8_t timeout_expired = 0;
 1234              		.loc 1 111 30 is_stmt 0 view .LVU357
 1235 0002 FFF7FEFF 		bl	HAL_GetTick
 1236              	.LVL88:
 1237 0006 0546     		mov	r5, r0
 1238              	.LVL89:
ARM GAS  C:\Users\Ali\AppData\Local\Temp\cc5FscdA.s 			page 47


 112:Core/Src/bootloader.c ****     
 1239              		.loc 1 112 5 is_stmt 1 view .LVU358
 115:Core/Src/bootloader.c ****     tx_data[1] = 0x01;  /* Bootloader version */
 1240              		.loc 1 115 5 view .LVU359
 115:Core/Src/bootloader.c ****     tx_data[1] = 0x01;  /* Bootloader version */
 1241              		.loc 1 115 16 is_stmt 0 view .LVU360
 1242 0008 2049     		ldr	r1, .L102
 1243 000a 1420     		movs	r0, #20
 1244              	.LVL90:
 115:Core/Src/bootloader.c ****     tx_data[1] = 0x01;  /* Bootloader version */
 1245              		.loc 1 115 16 view .LVU361
 1246 000c 0870     		strb	r0, [r1]
 116:Core/Src/bootloader.c ****     tx_data[2] = 0x00;  /* Bootloader subversion */
 1247              		.loc 1 116 5 is_stmt 1 view .LVU362
 116:Core/Src/bootloader.c ****     tx_data[2] = 0x00;  /* Bootloader subversion */
 1248              		.loc 1 116 16 is_stmt 0 view .LVU363
 1249 000e 0123     		movs	r3, #1
 1250 0010 4B70     		strb	r3, [r1, #1]
 117:Core/Src/bootloader.c ****     Bootloader_SendCANMessage(RESP_READY, tx_data, 3);
 1251              		.loc 1 117 5 is_stmt 1 view .LVU364
 117:Core/Src/bootloader.c ****     Bootloader_SendCANMessage(RESP_READY, tx_data, 3);
 1252              		.loc 1 117 16 is_stmt 0 view .LVU365
 1253 0012 0024     		movs	r4, #0
 1254 0014 8C70     		strb	r4, [r1, #2]
 118:Core/Src/bootloader.c ****     
 1255              		.loc 1 118 5 is_stmt 1 view .LVU366
 1256 0016 0322     		movs	r2, #3
 1257 0018 FFF7FEFF 		bl	Bootloader_SendCANMessage
 1258              	.LVL91:
 1259 001c 27E0     		b	.L98
 1260              	.LVL92:
 1261              	.L101:
 132:Core/Src/bootloader.c ****                 tx_data[1] = 0xAA;  /* Special: Timeout auto-jump */
 1262              		.loc 1 132 17 view .LVU367
 132:Core/Src/bootloader.c ****                 tx_data[1] = 0xAA;  /* Special: Timeout auto-jump */
 1263              		.loc 1 132 28 is_stmt 0 view .LVU368
 1264 001e 1B49     		ldr	r1, .L102
 1265 0020 1420     		movs	r0, #20
 1266 0022 0870     		strb	r0, [r1]
 133:Core/Src/bootloader.c ****                 tx_data[2] = 0x55;
 1267              		.loc 1 133 17 is_stmt 1 view .LVU369
 133:Core/Src/bootloader.c ****                 tx_data[2] = 0x55;
 1268              		.loc 1 133 28 is_stmt 0 view .LVU370
 1269 0024 AA23     		movs	r3, #170
 1270 0026 4B70     		strb	r3, [r1, #1]
 134:Core/Src/bootloader.c ****                 Bootloader_SendCANMessage(RESP_READY, tx_data, 3);
 1271              		.loc 1 134 17 is_stmt 1 view .LVU371
 134:Core/Src/bootloader.c ****                 Bootloader_SendCANMessage(RESP_READY, tx_data, 3);
 1272              		.loc 1 134 28 is_stmt 0 view .LVU372
 1273 0028 5523     		movs	r3, #85
 1274 002a 8B70     		strb	r3, [r1, #2]
 135:Core/Src/bootloader.c ****                 
 1275              		.loc 1 135 17 is_stmt 1 view .LVU373
 1276 002c 0322     		movs	r2, #3
 1277 002e FFF7FEFF 		bl	Bootloader_SendCANMessage
 1278              	.LVL93:
 138:Core/Src/bootloader.c ****                 HAL_Delay(10);
ARM GAS  C:\Users\Ali\AppData\Local\Temp\cc5FscdA.s 			page 48


 1279              		.loc 1 138 17 view .LVU374
 1280 0032 FFF7FEFF 		bl	Bootloader_WaitForCANTransmission
 1281              	.LVL94:
 139:Core/Src/bootloader.c ****                 
 1282              		.loc 1 139 17 view .LVU375
 1283 0036 0A20     		movs	r0, #10
 1284 0038 FFF7FEFF 		bl	HAL_Delay
 1285              	.LVL95:
 142:Core/Src/bootloader.c ****             }
 1286              		.loc 1 142 17 view .LVU376
 1287 003c FFF7FEFF 		bl	Bootloader_JumpToApplication
 1288              	.LVL96:
 126:Core/Src/bootloader.c ****             
 1289              		.loc 1 126 29 is_stmt 0 view .LVU377
 1290 0040 0124     		movs	r4, #1
 1291              	.LVL97:
 1292              	.L96:
 148:Core/Src/bootloader.c ****         {
 1293              		.loc 1 148 9 is_stmt 1 view .LVU378
 148:Core/Src/bootloader.c ****         {
 1294              		.loc 1 148 13 is_stmt 0 view .LVU379
 1295 0042 134B     		ldr	r3, .L102+4
 1296 0044 1B78     		ldrb	r3, [r3]	@ zero_extendqisi2
 148:Core/Src/bootloader.c ****         {
 1297              		.loc 1 148 12 view .LVU380
 1298 0046 7BB1     		cbz	r3, .L97
 151:Core/Src/bootloader.c ****             tx_data[1] = 0xFF;  /* Special: About to jump */
 1299              		.loc 1 151 13 is_stmt 1 view .LVU381
 151:Core/Src/bootloader.c ****             tx_data[1] = 0xFF;  /* Special: About to jump */
 1300              		.loc 1 151 24 is_stmt 0 view .LVU382
 1301 0048 1049     		ldr	r1, .L102
 1302 004a 1420     		movs	r0, #20
 1303 004c 0870     		strb	r0, [r1]
 152:Core/Src/bootloader.c ****             tx_data[2] = 0xFF;
 1304              		.loc 1 152 13 is_stmt 1 view .LVU383
 152:Core/Src/bootloader.c ****             tx_data[2] = 0xFF;
 1305              		.loc 1 152 24 is_stmt 0 view .LVU384
 1306 004e FF23     		movs	r3, #255
 1307 0050 4B70     		strb	r3, [r1, #1]
 153:Core/Src/bootloader.c ****             Bootloader_SendCANMessage(RESP_READY, tx_data, 3);
 1308              		.loc 1 153 13 is_stmt 1 view .LVU385
 153:Core/Src/bootloader.c ****             Bootloader_SendCANMessage(RESP_READY, tx_data, 3);
 1309              		.loc 1 153 24 is_stmt 0 view .LVU386
 1310 0052 8B70     		strb	r3, [r1, #2]
 154:Core/Src/bootloader.c ****             
 1311              		.loc 1 154 13 is_stmt 1 view .LVU387
 1312 0054 0322     		movs	r2, #3
 1313 0056 FFF7FEFF 		bl	Bootloader_SendCANMessage
 1314              	.LVL98:
 157:Core/Src/bootloader.c ****             
 1315              		.loc 1 157 13 view .LVU388
 1316 005a FFF7FEFF 		bl	Bootloader_WaitForCANTransmission
 1317              	.LVL99:
 160:Core/Src/bootloader.c ****             
 1318              		.loc 1 160 13 view .LVU389
 1319 005e FFF7FEFF 		bl	Bootloader_JumpToApplication
 1320              	.LVL100:
ARM GAS  C:\Users\Ali\AppData\Local\Temp\cc5FscdA.s 			page 49


 163:Core/Src/bootloader.c ****         }
 1321              		.loc 1 163 13 view .LVU390
 163:Core/Src/bootloader.c ****         }
 1322              		.loc 1 163 30 is_stmt 0 view .LVU391
 1323 0062 0B4B     		ldr	r3, .L102+4
 1324 0064 0022     		movs	r2, #0
 1325 0066 1A70     		strb	r2, [r3]
 1326              	.L97:
 167:Core/Src/bootloader.c ****     }
 1327              		.loc 1 167 9 is_stmt 1 view .LVU392
 1328 0068 0120     		movs	r0, #1
 1329 006a FFF7FEFF 		bl	HAL_Delay
 1330              	.LVL101:
 121:Core/Src/bootloader.c ****     {
 1331              		.loc 1 121 11 view .LVU393
 1332              	.L98:
 121:Core/Src/bootloader.c ****     {
 1333              		.loc 1 121 5 view .LVU394
 124:Core/Src/bootloader.c ****         {
 1334              		.loc 1 124 9 view .LVU395
 124:Core/Src/bootloader.c ****         {
 1335              		.loc 1 124 12 is_stmt 0 view .LVU396
 1336 006e 002C     		cmp	r4, #0
 1337 0070 E7D1     		bne	.L96
 124:Core/Src/bootloader.c ****         {
 1338              		.loc 1 124 34 discriminator 1 view .LVU397
 1339 0072 FFF7FEFF 		bl	HAL_GetTick
 1340              	.LVL102:
 124:Core/Src/bootloader.c ****         {
 1341              		.loc 1 124 48 discriminator 1 view .LVU398
 1342 0076 401B     		subs	r0, r0, r5
 124:Core/Src/bootloader.c ****         {
 1343              		.loc 1 124 30 discriminator 1 view .LVU399
 1344 0078 42F20F73 		movw	r3, #9999
 1345 007c 9842     		cmp	r0, r3
 1346 007e E0D9     		bls	.L96
 126:Core/Src/bootloader.c ****             
 1347              		.loc 1 126 13 is_stmt 1 view .LVU400
 1348              	.LVL103:
 129:Core/Src/bootloader.c ****             {
 1349              		.loc 1 129 13 view .LVU401
 129:Core/Src/bootloader.c ****             {
 1350              		.loc 1 129 17 is_stmt 0 view .LVU402
 1351 0080 FFF7FEFF 		bl	Bootloader_CheckApplicationValidFlag
 1352              	.LVL104:
 129:Core/Src/bootloader.c ****             {
 1353              		.loc 1 129 16 discriminator 1 view .LVU403
 1354 0084 0028     		cmp	r0, #0
 1355 0086 CAD1     		bne	.L101
 126:Core/Src/bootloader.c ****             
 1356              		.loc 1 126 29 view .LVU404
 1357 0088 0124     		movs	r4, #1
 1358 008a DAE7     		b	.L96
 1359              	.L103:
 1360              		.align	2
 1361              	.L102:
 1362 008c 00000000 		.word	tx_data
ARM GAS  C:\Users\Ali\AppData\Local\Temp\cc5FscdA.s 			page 50


 1363 0090 00000000 		.word	jump_to_app_flag
 1364              		.cfi_endproc
 1365              	.LFE134:
 1367              		.section	.text.Bootloader_ClearApplicationValidFlag,"ax",%progbits
 1368              		.align	1
 1369              		.global	Bootloader_ClearApplicationValidFlag
 1370              		.syntax unified
 1371              		.thumb
 1372              		.thumb_func
 1374              	Bootloader_ClearApplicationValidFlag:
 1375              	.LFB148:
 739:Core/Src/bootloader.c **** 
 740:Core/Src/bootloader.c **** /**
 741:Core/Src/bootloader.c ****   * @brief  Clear application valid flag
 742:Core/Src/bootloader.c ****   * @retval None
 743:Core/Src/bootloader.c ****   */
 744:Core/Src/bootloader.c **** void Bootloader_ClearApplicationValidFlag(void)
 745:Core/Src/bootloader.c **** {
 1376              		.loc 1 745 1 is_stmt 1 view -0
 1377              		.cfi_startproc
 1378              		@ args = 0, pretend = 0, frame = 24
 1379              		@ frame_needed = 0, uses_anonymous_args = 0
 1380 0000 00B5     		push	{lr}
 1381              		.cfi_def_cfa_offset 4
 1382              		.cfi_offset 14, -4
 1383 0002 87B0     		sub	sp, sp, #28
 1384              		.cfi_def_cfa_offset 32
 746:Core/Src/bootloader.c ****     HAL_StatusTypeDef status;
 1385              		.loc 1 746 5 view .LVU406
 747:Core/Src/bootloader.c ****     FLASH_EraseInitTypeDef erase_init;
 1386              		.loc 1 747 5 view .LVU407
 748:Core/Src/bootloader.c ****     uint32_t page_error;
 1387              		.loc 1 748 5 view .LVU408
 749:Core/Src/bootloader.c ****     
 750:Core/Src/bootloader.c ****     /* Unlock flash */
 751:Core/Src/bootloader.c ****     HAL_FLASH_Unlock();
 1388              		.loc 1 751 5 view .LVU409
 1389 0004 FFF7FEFF 		bl	HAL_FLASH_Unlock
 1390              	.LVL105:
 752:Core/Src/bootloader.c ****     
 753:Core/Src/bootloader.c ****     /* Erase the page containing the flag */
 754:Core/Src/bootloader.c ****     erase_init.TypeErase = FLASH_TYPEERASE_PAGES;
 1391              		.loc 1 754 5 view .LVU410
 1392              		.loc 1 754 26 is_stmt 0 view .LVU411
 1393 0008 0023     		movs	r3, #0
 1394 000a 0293     		str	r3, [sp, #8]
 755:Core/Src/bootloader.c ****     erase_init.Page = 63;  /* Last page of bootloader area */
 1395              		.loc 1 755 5 is_stmt 1 view .LVU412
 1396              		.loc 1 755 21 is_stmt 0 view .LVU413
 1397 000c 3F23     		movs	r3, #63
 1398 000e 0493     		str	r3, [sp, #16]
 756:Core/Src/bootloader.c ****     erase_init.NbPages = 1;
 1399              		.loc 1 756 5 is_stmt 1 view .LVU414
 1400              		.loc 1 756 24 is_stmt 0 view .LVU415
 1401 0010 0123     		movs	r3, #1
 1402 0012 0593     		str	r3, [sp, #20]
 757:Core/Src/bootloader.c ****     
ARM GAS  C:\Users\Ali\AppData\Local\Temp\cc5FscdA.s 			page 51


 758:Core/Src/bootloader.c ****     status = HAL_FLASHEx_Erase(&erase_init, &page_error);
 1403              		.loc 1 758 5 is_stmt 1 view .LVU416
 1404              		.loc 1 758 14 is_stmt 0 view .LVU417
 1405 0014 01A9     		add	r1, sp, #4
 1406 0016 02A8     		add	r0, sp, #8
 1407 0018 FFF7FEFF 		bl	HAL_FLASHEx_Erase
 1408              	.LVL106:
 759:Core/Src/bootloader.c ****     
 760:Core/Src/bootloader.c ****     /* Lock flash */
 761:Core/Src/bootloader.c ****     HAL_FLASH_Lock();
 1409              		.loc 1 761 5 is_stmt 1 view .LVU418
 1410 001c FFF7FEFF 		bl	HAL_FLASH_Lock
 1411              	.LVL107:
 762:Core/Src/bootloader.c **** }
 1412              		.loc 1 762 1 is_stmt 0 view .LVU419
 1413 0020 07B0     		add	sp, sp, #28
 1414              		.cfi_def_cfa_offset 4
 1415              		@ sp needed
 1416 0022 5DF804FB 		ldr	pc, [sp], #4
 1417              		.cfi_endproc
 1418              	.LFE148:
 1420              		.section	.text.Bootloader_ProcessCANMessage,"ax",%progbits
 1421              		.align	1
 1422              		.global	Bootloader_ProcessCANMessage
 1423              		.syntax unified
 1424              		.thumb
 1425              		.thumb_func
 1427              	Bootloader_ProcessCANMessage:
 1428              	.LFB135:
 176:Core/Src/bootloader.c ****     uint8_t command;
 1429              		.loc 1 176 1 is_stmt 1 view -0
 1430              		.cfi_startproc
 1431              		@ args = 0, pretend = 0, frame = 0
 1432              		@ frame_needed = 0, uses_anonymous_args = 0
 1433 0000 10B5     		push	{r4, lr}
 1434              		.cfi_def_cfa_offset 8
 1435              		.cfi_offset 4, -8
 1436              		.cfi_offset 14, -4
 177:Core/Src/bootloader.c ****     uint32_t address;
 1437              		.loc 1 177 5 view .LVU421
 178:Core/Src/bootloader.c ****     uint16_t length;
 1438              		.loc 1 178 5 view .LVU422
 179:Core/Src/bootloader.c ****     uint8_t result;
 1439              		.loc 1 179 5 view .LVU423
 180:Core/Src/bootloader.c ****     
 1440              		.loc 1 180 5 view .LVU424
 183:Core/Src/bootloader.c ****     
 1441              		.loc 1 183 5 view .LVU425
 183:Core/Src/bootloader.c ****     
 1442              		.loc 1 183 13 is_stmt 0 view .LVU426
 1443 0002 854B     		ldr	r3, .L137
 1444 0004 1B78     		ldrb	r3, [r3]	@ zero_extendqisi2
 1445              	.LVL108:
 185:Core/Src/bootloader.c ****     {
 1446              		.loc 1 185 5 is_stmt 1 view .LVU427
 1447 0006 013B     		subs	r3, r3, #1
 1448 0008 062B     		cmp	r3, #6
ARM GAS  C:\Users\Ali\AppData\Local\Temp\cc5FscdA.s 			page 52


 1449 000a 00F20081 		bhi	.L107
 1450 000e DFE813F0 		tbh	[pc, r3, lsl #1]
 1451              	.L109:
 1452 0012 1B00     		.2byte	(.L115-.L109)/2
 1453 0014 9400     		.2byte	(.L114-.L109)/2
 1454 0016 BB00     		.2byte	(.L113-.L109)/2
 1455 0018 EC00     		.2byte	(.L112-.L109)/2
 1456 001a 0700     		.2byte	(.L111-.L109)/2
 1457 001c 3100     		.2byte	(.L110-.L109)/2
 1458 001e 4F00     		.2byte	(.L108-.L109)/2
 1459              		.p2align 1
 1460              	.L111:
 189:Core/Src/bootloader.c ****             tx_data[1] = bootloader_status.state;
 1461              		.loc 1 189 13 view .LVU428
 189:Core/Src/bootloader.c ****             tx_data[1] = bootloader_status.state;
 1462              		.loc 1 189 24 is_stmt 0 view .LVU429
 1463 0020 7E49     		ldr	r1, .L137+4
 1464 0022 1520     		movs	r0, #21
 1465 0024 0870     		strb	r0, [r1]
 190:Core/Src/bootloader.c ****             tx_data[2] = bootloader_status.last_error;
 1466              		.loc 1 190 13 is_stmt 1 view .LVU430
 190:Core/Src/bootloader.c ****             tx_data[2] = bootloader_status.last_error;
 1467              		.loc 1 190 43 is_stmt 0 view .LVU431
 1468 0026 7E4B     		ldr	r3, .L137+8
 1469 0028 1A78     		ldrb	r2, [r3]	@ zero_extendqisi2
 190:Core/Src/bootloader.c ****             tx_data[2] = bootloader_status.last_error;
 1470              		.loc 1 190 24 view .LVU432
 1471 002a 4A70     		strb	r2, [r1, #1]
 191:Core/Src/bootloader.c ****             tx_data[3] = (bootloader_status.bytes_written >> 24) & 0xFF;
 1472              		.loc 1 191 13 is_stmt 1 view .LVU433
 191:Core/Src/bootloader.c ****             tx_data[3] = (bootloader_status.bytes_written >> 24) & 0xFF;
 1473              		.loc 1 191 43 is_stmt 0 view .LVU434
 1474 002c 1A7C     		ldrb	r2, [r3, #16]	@ zero_extendqisi2
 191:Core/Src/bootloader.c ****             tx_data[3] = (bootloader_status.bytes_written >> 24) & 0xFF;
 1475              		.loc 1 191 24 view .LVU435
 1476 002e 8A70     		strb	r2, [r1, #2]
 192:Core/Src/bootloader.c ****             tx_data[4] = (bootloader_status.bytes_written >> 16) & 0xFF;
 1477              		.loc 1 192 13 is_stmt 1 view .LVU436
 192:Core/Src/bootloader.c ****             tx_data[4] = (bootloader_status.bytes_written >> 16) & 0xFF;
 1478              		.loc 1 192 44 is_stmt 0 view .LVU437
 1479 0030 9B68     		ldr	r3, [r3, #8]
 192:Core/Src/bootloader.c ****             tx_data[4] = (bootloader_status.bytes_written >> 16) & 0xFF;
 1480              		.loc 1 192 59 view .LVU438
 1481 0032 1A0E     		lsrs	r2, r3, #24
 192:Core/Src/bootloader.c ****             tx_data[4] = (bootloader_status.bytes_written >> 16) & 0xFF;
 1482              		.loc 1 192 24 view .LVU439
 1483 0034 CA70     		strb	r2, [r1, #3]
 193:Core/Src/bootloader.c ****             tx_data[5] = (bootloader_status.bytes_written >> 8) & 0xFF;
 1484              		.loc 1 193 13 is_stmt 1 view .LVU440
 193:Core/Src/bootloader.c ****             tx_data[5] = (bootloader_status.bytes_written >> 8) & 0xFF;
 1485              		.loc 1 193 59 is_stmt 0 view .LVU441
 1486 0036 1A0C     		lsrs	r2, r3, #16
 193:Core/Src/bootloader.c ****             tx_data[5] = (bootloader_status.bytes_written >> 8) & 0xFF;
 1487              		.loc 1 193 24 view .LVU442
 1488 0038 0A71     		strb	r2, [r1, #4]
 194:Core/Src/bootloader.c ****             tx_data[6] = bootloader_status.bytes_written & 0xFF;
 1489              		.loc 1 194 13 is_stmt 1 view .LVU443
ARM GAS  C:\Users\Ali\AppData\Local\Temp\cc5FscdA.s 			page 53


 194:Core/Src/bootloader.c ****             tx_data[6] = bootloader_status.bytes_written & 0xFF;
 1490              		.loc 1 194 59 is_stmt 0 view .LVU444
 1491 003a 1A0A     		lsrs	r2, r3, #8
 194:Core/Src/bootloader.c ****             tx_data[6] = bootloader_status.bytes_written & 0xFF;
 1492              		.loc 1 194 24 view .LVU445
 1493 003c 4A71     		strb	r2, [r1, #5]
 195:Core/Src/bootloader.c ****             Bootloader_SendCANMessage(RESP_DATA, tx_data, 8);
 1494              		.loc 1 195 13 is_stmt 1 view .LVU446
 195:Core/Src/bootloader.c ****             Bootloader_SendCANMessage(RESP_DATA, tx_data, 8);
 1495              		.loc 1 195 24 is_stmt 0 view .LVU447
 1496 003e 8B71     		strb	r3, [r1, #6]
 196:Core/Src/bootloader.c ****             break;
 1497              		.loc 1 196 13 is_stmt 1 view .LVU448
 1498 0040 0822     		movs	r2, #8
 1499 0042 FFF7FEFF 		bl	Bootloader_SendCANMessage
 1500              	.LVL109:
 197:Core/Src/bootloader.c ****             
 1501              		.loc 1 197 13 view .LVU449
 1502              	.L106:
 364:Core/Src/bootloader.c **** 
 1503              		.loc 1 364 1 is_stmt 0 view .LVU450
 1504 0046 10BD     		pop	{r4, pc}
 1505              	.LVL110:
 1506              	.L115:
 201:Core/Src/bootloader.c ****             
 1507              		.loc 1 201 13 is_stmt 1 view .LVU451
 201:Core/Src/bootloader.c ****             
 1508              		.loc 1 201 37 is_stmt 0 view .LVU452
 1509 0048 754B     		ldr	r3, .L137+8
 1510 004a 0122     		movs	r2, #1
 1511 004c 1A70     		strb	r2, [r3]
 204:Core/Src/bootloader.c ****             
 1512              		.loc 1 204 13 is_stmt 1 view .LVU453
 1513 004e FFF7FEFF 		bl	Bootloader_ClearApplicationValidFlag
 1514              	.LVL111:
 206:Core/Src/bootloader.c ****             if (result == ERR_NONE)
 1515              		.loc 1 206 13 view .LVU454
 206:Core/Src/bootloader.c ****             if (result == ERR_NONE)
 1516              		.loc 1 206 22 is_stmt 0 view .LVU455
 1517 0052 FFF7FEFF 		bl	Bootloader_EraseApplicationFlash
 1518              	.LVL112:
 207:Core/Src/bootloader.c ****             {
 1519              		.loc 1 207 13 is_stmt 1 view .LVU456
 207:Core/Src/bootloader.c ****             {
 1520              		.loc 1 207 16 is_stmt 0 view .LVU457
 1521 0056 50B9     		cbnz	r0, .L117
 209:Core/Src/bootloader.c ****                 bootloader_status.current_address = APPLICATION_ADDRESS;
 1522              		.loc 1 209 17 is_stmt 1 view .LVU458
 209:Core/Src/bootloader.c ****                 bootloader_status.current_address = APPLICATION_ADDRESS;
 1523              		.loc 1 209 49 is_stmt 0 view .LVU459
 1524 0058 714B     		ldr	r3, .L137+8
 1525 005a 0022     		movs	r2, #0
 1526 005c 9A60     		str	r2, [r3, #8]
 210:Core/Src/bootloader.c ****                 Bootloader_SendACK();
 1527              		.loc 1 210 17 is_stmt 1 view .LVU460
 210:Core/Src/bootloader.c ****                 Bootloader_SendACK();
 1528              		.loc 1 210 51 is_stmt 0 view .LVU461
ARM GAS  C:\Users\Ali\AppData\Local\Temp\cc5FscdA.s 			page 54


 1529 005e 714A     		ldr	r2, .L137+12
 1530 0060 5A60     		str	r2, [r3, #4]
 211:Core/Src/bootloader.c ****             }
 1531              		.loc 1 211 17 is_stmt 1 view .LVU462
 1532 0062 FFF7FEFF 		bl	Bootloader_SendACK
 1533              	.LVL113:
 1534              	.L118:
 217:Core/Src/bootloader.c ****             break;
 1535              		.loc 1 217 13 view .LVU463
 217:Core/Src/bootloader.c ****             break;
 1536              		.loc 1 217 37 is_stmt 0 view .LVU464
 1537 0066 6E4B     		ldr	r3, .L137+8
 1538 0068 0022     		movs	r2, #0
 1539 006a 1A70     		strb	r2, [r3]
 218:Core/Src/bootloader.c ****             
 1540              		.loc 1 218 13 is_stmt 1 view .LVU465
 1541 006c EBE7     		b	.L106
 1542              	.LVL114:
 1543              	.L117:
 215:Core/Src/bootloader.c ****             }
 1544              		.loc 1 215 17 view .LVU466
 1545 006e FFF7FEFF 		bl	Bootloader_SendNACK
 1546              	.LVL115:
 215:Core/Src/bootloader.c ****             }
 1547              		.loc 1 215 17 is_stmt 0 view .LVU467
 1548 0072 F8E7     		b	.L118
 1549              	.LVL116:
 1550              	.L110:
 222:Core/Src/bootloader.c ****                      (rx_data[3] << 8) | rx_data[4];
 1551              		.loc 1 222 13 is_stmt 1 view .LVU468
 222:Core/Src/bootloader.c ****                      (rx_data[3] << 8) | rx_data[4];
 1552              		.loc 1 222 31 is_stmt 0 view .LVU469
 1553 0074 684A     		ldr	r2, .L137
 222:Core/Src/bootloader.c ****                      (rx_data[3] << 8) | rx_data[4];
 1554              		.loc 1 222 31 view .LVU470
 1555 0076 5178     		ldrb	r1, [r2, #1]	@ zero_extendqisi2
 222:Core/Src/bootloader.c ****                      (rx_data[3] << 8) | rx_data[4];
 1556              		.loc 1 222 52 view .LVU471
 1557 0078 9378     		ldrb	r3, [r2, #2]	@ zero_extendqisi2
 222:Core/Src/bootloader.c ****                      (rx_data[3] << 8) | rx_data[4];
 1558              		.loc 1 222 56 view .LVU472
 1559 007a 1B04     		lsls	r3, r3, #16
 222:Core/Src/bootloader.c ****                      (rx_data[3] << 8) | rx_data[4];
 1560              		.loc 1 222 42 view .LVU473
 1561 007c 43EA0163 		orr	r3, r3, r1, lsl #24
 223:Core/Src/bootloader.c ****             
 1562              		.loc 1 223 30 view .LVU474
 1563 0080 D178     		ldrb	r1, [r2, #3]	@ zero_extendqisi2
 222:Core/Src/bootloader.c ****                      (rx_data[3] << 8) | rx_data[4];
 1564              		.loc 1 222 63 view .LVU475
 1565 0082 43EA0123 		orr	r3, r3, r1, lsl #8
 223:Core/Src/bootloader.c ****             
 1566              		.loc 1 223 49 view .LVU476
 1567 0086 1279     		ldrb	r2, [r2, #4]	@ zero_extendqisi2
 223:Core/Src/bootloader.c ****             
 1568              		.loc 1 223 40 view .LVU477
 1569 0088 1343     		orrs	r3, r3, r2
ARM GAS  C:\Users\Ali\AppData\Local\Temp\cc5FscdA.s 			page 55


 1570              	.LVL117:
 226:Core/Src/bootloader.c ****             {
 1571              		.loc 1 226 13 is_stmt 1 view .LVU478
 226:Core/Src/bootloader.c ****             {
 1572              		.loc 1 226 48 is_stmt 0 view .LVU479
 1573 008a 03F17842 		add	r2, r3, #-134217728
 1574 008e A2F50042 		sub	r2, r2, #32768
 226:Core/Src/bootloader.c ****             {
 1575              		.loc 1 226 16 view .LVU480
 1576 0092 B2F5603F 		cmp	r2, #229376
 1577 0096 07D2     		bcs	.L119
 228:Core/Src/bootloader.c ****                 buffer_index = 0;  /* Reset buffer */
 1578              		.loc 1 228 17 is_stmt 1 view .LVU481
 228:Core/Src/bootloader.c ****                 buffer_index = 0;  /* Reset buffer */
 1579              		.loc 1 228 51 is_stmt 0 view .LVU482
 1580 0098 614A     		ldr	r2, .L137+8
 1581 009a 5360     		str	r3, [r2, #4]
 229:Core/Src/bootloader.c ****                 Bootloader_SendACK();
 1582              		.loc 1 229 17 is_stmt 1 view .LVU483
 229:Core/Src/bootloader.c ****                 Bootloader_SendACK();
 1583              		.loc 1 229 30 is_stmt 0 view .LVU484
 1584 009c 624B     		ldr	r3, .L137+16
 1585              	.LVL118:
 229:Core/Src/bootloader.c ****                 Bootloader_SendACK();
 1586              		.loc 1 229 30 view .LVU485
 1587 009e 0022     		movs	r2, #0
 229:Core/Src/bootloader.c ****                 Bootloader_SendACK();
 1588              		.loc 1 229 30 view .LVU486
 1589 00a0 1A80     		strh	r2, [r3]	@ movhi
 230:Core/Src/bootloader.c ****             }
 1590              		.loc 1 230 17 is_stmt 1 view .LVU487
 1591 00a2 FFF7FEFF 		bl	Bootloader_SendACK
 1592              	.LVL119:
 230:Core/Src/bootloader.c ****             }
 1593              		.loc 1 230 17 is_stmt 0 view .LVU488
 1594 00a6 CEE7     		b	.L106
 1595              	.LVL120:
 1596              	.L119:
 234:Core/Src/bootloader.c ****             }
 1597              		.loc 1 234 17 is_stmt 1 view .LVU489
 1598 00a8 0220     		movs	r0, #2
 1599 00aa FFF7FEFF 		bl	Bootloader_SendNACK
 1600              	.LVL121:
 234:Core/Src/bootloader.c ****             }
 1601              		.loc 1 234 17 is_stmt 0 view .LVU490
 1602 00ae CAE7     		b	.L106
 1603              	.LVL122:
 1604              	.L108:
 242:Core/Src/bootloader.c ****             length = rx_data[1];  /* Data length - should always be 4 */
 1605              		.loc 1 242 13 is_stmt 1 view .LVU491
 242:Core/Src/bootloader.c ****             length = rx_data[1];  /* Data length - should always be 4 */
 1606              		.loc 1 242 37 is_stmt 0 view .LVU492
 1607 00b0 5B4B     		ldr	r3, .L137+8
 1608 00b2 0222     		movs	r2, #2
 1609 00b4 1A70     		strb	r2, [r3]
 243:Core/Src/bootloader.c ****             
 1610              		.loc 1 243 13 is_stmt 1 view .LVU493
ARM GAS  C:\Users\Ali\AppData\Local\Temp\cc5FscdA.s 			page 56


 243:Core/Src/bootloader.c ****             
 1611              		.loc 1 243 29 is_stmt 0 view .LVU494
 1612 00b6 584B     		ldr	r3, .L137
 243:Core/Src/bootloader.c ****             
 1613              		.loc 1 243 29 view .LVU495
 1614 00b8 5B78     		ldrb	r3, [r3, #1]	@ zero_extendqisi2
 1615              	.LVL123:
 245:Core/Src/bootloader.c ****             {
 1616              		.loc 1 245 13 is_stmt 1 view .LVU496
 245:Core/Src/bootloader.c ****             {
 1617              		.loc 1 245 16 is_stmt 0 view .LVU497
 1618 00ba 042B     		cmp	r3, #4
 1619 00bc 01D1     		bne	.L135
 1620              	.LBB10:
 254:Core/Src/bootloader.c ****             {
 1621              		.loc 1 254 26 view .LVU498
 1622 00be 0023     		movs	r3, #0
 1623 00c0 15E0     		b	.L120
 1624              	.L135:
 1625              	.LBE10:
 247:Core/Src/bootloader.c ****                 bootloader_status.state = BL_STATE_IDLE;
 1626              		.loc 1 247 17 is_stmt 1 view .LVU499
 1627 00c2 0520     		movs	r0, #5
 1628 00c4 FFF7FEFF 		bl	Bootloader_SendNACK
 1629              	.LVL124:
 248:Core/Src/bootloader.c ****                 buffer_index = 0;  /* Reset buffer on error */
 1630              		.loc 1 248 17 view .LVU500
 248:Core/Src/bootloader.c ****                 buffer_index = 0;  /* Reset buffer on error */
 1631              		.loc 1 248 41 is_stmt 0 view .LVU501
 1632 00c8 0023     		movs	r3, #0
 1633 00ca 554A     		ldr	r2, .L137+8
 1634 00cc 1370     		strb	r3, [r2]
 249:Core/Src/bootloader.c ****                 break;
 1635              		.loc 1 249 17 is_stmt 1 view .LVU502
 249:Core/Src/bootloader.c ****                 break;
 1636              		.loc 1 249 30 is_stmt 0 view .LVU503
 1637 00ce 564A     		ldr	r2, .L137+16
 1638 00d0 1380     		strh	r3, [r2]	@ movhi
 250:Core/Src/bootloader.c ****             }
 1639              		.loc 1 250 17 is_stmt 1 view .LVU504
 1640 00d2 B8E7     		b	.L106
 1641              	.LVL125:
 1642              	.L121:
 1643              	.LBB11:
 256:Core/Src/bootloader.c ****             }
 1644              		.loc 1 256 17 view .LVU505
 256:Core/Src/bootloader.c ****             }
 1645              		.loc 1 256 58 is_stmt 0 view .LVU506
 1646 00d4 981C     		adds	r0, r3, #2
 256:Core/Src/bootloader.c ****             }
 1647              		.loc 1 256 42 view .LVU507
 1648 00d6 5449     		ldr	r1, .L137+16
 1649 00d8 0A88     		ldrh	r2, [r1]
 1650 00da 02F1010C 		add	ip, r2, #1
 1651 00de A1F800C0 		strh	ip, [r1]	@ movhi
 256:Core/Src/bootloader.c ****             }
 1652              		.loc 1 256 55 view .LVU508
ARM GAS  C:\Users\Ali\AppData\Local\Temp\cc5FscdA.s 			page 57


 1653 00e2 4D49     		ldr	r1, .L137
 256:Core/Src/bootloader.c ****             }
 1654              		.loc 1 256 55 view .LVU509
 1655 00e4 085C     		ldrb	r0, [r1, r0]	@ zero_extendqisi2
 256:Core/Src/bootloader.c ****             }
 1656              		.loc 1 256 46 view .LVU510
 1657 00e6 5149     		ldr	r1, .L137+20
 256:Core/Src/bootloader.c ****             }
 1658              		.loc 1 256 46 view .LVU511
 1659 00e8 8854     		strb	r0, [r1, r2]
 254:Core/Src/bootloader.c ****             {
 1660              		.loc 1 254 41 is_stmt 1 discriminator 3 view .LVU512
 1661 00ea 0133     		adds	r3, r3, #1
 1662              	.LVL126:
 254:Core/Src/bootloader.c ****             {
 1663              		.loc 1 254 41 is_stmt 0 discriminator 3 view .LVU513
 1664 00ec DBB2     		uxtb	r3, r3
 1665              	.LVL127:
 1666              	.L120:
 254:Core/Src/bootloader.c ****             {
 1667              		.loc 1 254 35 is_stmt 1 discriminator 1 view .LVU514
 1668 00ee 032B     		cmp	r3, #3
 1669 00f0 F0D9     		bls	.L121
 1670              	.LBE11:
 260:Core/Src/bootloader.c ****             {
 1671              		.loc 1 260 13 view .LVU515
 260:Core/Src/bootloader.c ****             {
 1672              		.loc 1 260 30 is_stmt 0 view .LVU516
 1673 00f2 4D4B     		ldr	r3, .L137+16
 1674              	.LVL128:
 260:Core/Src/bootloader.c ****             {
 1675              		.loc 1 260 30 view .LVU517
 1676 00f4 1B88     		ldrh	r3, [r3]
 260:Core/Src/bootloader.c ****             {
 1677              		.loc 1 260 16 view .LVU518
 1678 00f6 072B     		cmp	r3, #7
 1679 00f8 19D9     		bls	.L122
 262:Core/Src/bootloader.c ****                                                flash_buffer, 8);
 1680              		.loc 1 262 17 is_stmt 1 view .LVU519
 262:Core/Src/bootloader.c ****                                                flash_buffer, 8);
 1681              		.loc 1 262 26 is_stmt 0 view .LVU520
 1682 00fa 0822     		movs	r2, #8
 1683 00fc 4B49     		ldr	r1, .L137+20
 1684 00fe 484B     		ldr	r3, .L137+8
 1685 0100 5868     		ldr	r0, [r3, #4]
 1686 0102 FFF7FEFF 		bl	Bootloader_WriteFlash
 1687              	.LVL129:
 264:Core/Src/bootloader.c ****                 {
 1688              		.loc 1 264 17 is_stmt 1 view .LVU521
 264:Core/Src/bootloader.c ****                 {
 1689              		.loc 1 264 20 is_stmt 0 view .LVU522
 1690 0106 60B9     		cbnz	r0, .L123
 266:Core/Src/bootloader.c ****                     bootloader_status.bytes_written += 8;
 1691              		.loc 1 266 21 is_stmt 1 view .LVU523
 266:Core/Src/bootloader.c ****                     bootloader_status.bytes_written += 8;
 1692              		.loc 1 266 38 is_stmt 0 view .LVU524
 1693 0108 454B     		ldr	r3, .L137+8
ARM GAS  C:\Users\Ali\AppData\Local\Temp\cc5FscdA.s 			page 58


 1694 010a 5A68     		ldr	r2, [r3, #4]
 266:Core/Src/bootloader.c ****                     bootloader_status.bytes_written += 8;
 1695              		.loc 1 266 55 view .LVU525
 1696 010c 0832     		adds	r2, r2, #8
 1697 010e 5A60     		str	r2, [r3, #4]
 267:Core/Src/bootloader.c ****                     buffer_index = 0;
 1698              		.loc 1 267 21 is_stmt 1 view .LVU526
 267:Core/Src/bootloader.c ****                     buffer_index = 0;
 1699              		.loc 1 267 38 is_stmt 0 view .LVU527
 1700 0110 9A68     		ldr	r2, [r3, #8]
 267:Core/Src/bootloader.c ****                     buffer_index = 0;
 1701              		.loc 1 267 53 view .LVU528
 1702 0112 0832     		adds	r2, r2, #8
 1703 0114 9A60     		str	r2, [r3, #8]
 268:Core/Src/bootloader.c ****                     Bootloader_SendACK();
 1704              		.loc 1 268 21 is_stmt 1 view .LVU529
 268:Core/Src/bootloader.c ****                     Bootloader_SendACK();
 1705              		.loc 1 268 34 is_stmt 0 view .LVU530
 1706 0116 444B     		ldr	r3, .L137+16
 1707 0118 0022     		movs	r2, #0
 1708 011a 1A80     		strh	r2, [r3]	@ movhi
 269:Core/Src/bootloader.c ****                 }
 1709              		.loc 1 269 21 is_stmt 1 view .LVU531
 1710 011c FFF7FEFF 		bl	Bootloader_SendACK
 1711              	.LVL130:
 269:Core/Src/bootloader.c ****                 }
 1712              		.loc 1 269 21 is_stmt 0 view .LVU532
 1713 0120 07E0     		b	.L124
 1714              	.LVL131:
 1715              	.L123:
 273:Core/Src/bootloader.c ****                     Bootloader_SendNACK(result);
 1716              		.loc 1 273 21 is_stmt 1 view .LVU533
 273:Core/Src/bootloader.c ****                     Bootloader_SendNACK(result);
 1717              		.loc 1 273 34 is_stmt 0 view .LVU534
 1718 0122 414A     		ldr	r2, .L137+16
 1719 0124 0021     		movs	r1, #0
 1720 0126 1180     		strh	r1, [r2]	@ movhi
 274:Core/Src/bootloader.c ****                 }
 1721              		.loc 1 274 21 is_stmt 1 view .LVU535
 1722 0128 FFF7FEFF 		bl	Bootloader_SendNACK
 1723              	.LVL132:
 274:Core/Src/bootloader.c ****                 }
 1724              		.loc 1 274 21 is_stmt 0 view .LVU536
 1725 012c 01E0     		b	.L124
 1726              	.LVL133:
 1727              	.L122:
 279:Core/Src/bootloader.c ****             }
 1728              		.loc 1 279 17 is_stmt 1 view .LVU537
 1729 012e FFF7FEFF 		bl	Bootloader_SendACK
 1730              	.LVL134:
 1731              	.L124:
 282:Core/Src/bootloader.c ****             break;
 1732              		.loc 1 282 13 view .LVU538
 282:Core/Src/bootloader.c ****             break;
 1733              		.loc 1 282 37 is_stmt 0 view .LVU539
 1734 0132 3B4B     		ldr	r3, .L137+8
 1735 0134 0022     		movs	r2, #0
ARM GAS  C:\Users\Ali\AppData\Local\Temp\cc5FscdA.s 			page 59


 1736 0136 1A70     		strb	r2, [r3]
 283:Core/Src/bootloader.c ****             
 1737              		.loc 1 283 13 is_stmt 1 view .LVU540
 1738 0138 85E7     		b	.L106
 1739              	.LVL135:
 1740              	.L114:
 287:Core/Src/bootloader.c ****                      (rx_data[3] << 8) | rx_data[4];
 1741              		.loc 1 287 13 view .LVU541
 287:Core/Src/bootloader.c ****                      (rx_data[3] << 8) | rx_data[4];
 1742              		.loc 1 287 31 is_stmt 0 view .LVU542
 1743 013a 374B     		ldr	r3, .L137
 287:Core/Src/bootloader.c ****                      (rx_data[3] << 8) | rx_data[4];
 1744              		.loc 1 287 31 view .LVU543
 1745 013c 5A78     		ldrb	r2, [r3, #1]	@ zero_extendqisi2
 287:Core/Src/bootloader.c ****                      (rx_data[3] << 8) | rx_data[4];
 1746              		.loc 1 287 52 view .LVU544
 1747 013e 9878     		ldrb	r0, [r3, #2]	@ zero_extendqisi2
 287:Core/Src/bootloader.c ****                      (rx_data[3] << 8) | rx_data[4];
 1748              		.loc 1 287 56 view .LVU545
 1749 0140 0004     		lsls	r0, r0, #16
 287:Core/Src/bootloader.c ****                      (rx_data[3] << 8) | rx_data[4];
 1750              		.loc 1 287 42 view .LVU546
 1751 0142 40EA0260 		orr	r0, r0, r2, lsl #24
 288:Core/Src/bootloader.c ****             length = rx_data[5];
 1752              		.loc 1 288 30 view .LVU547
 1753 0146 DA78     		ldrb	r2, [r3, #3]	@ zero_extendqisi2
 287:Core/Src/bootloader.c ****                      (rx_data[3] << 8) | rx_data[4];
 1754              		.loc 1 287 63 view .LVU548
 1755 0148 40EA0220 		orr	r0, r0, r2, lsl #8
 288:Core/Src/bootloader.c ****             length = rx_data[5];
 1756              		.loc 1 288 49 view .LVU549
 1757 014c 1A79     		ldrb	r2, [r3, #4]	@ zero_extendqisi2
 288:Core/Src/bootloader.c ****             length = rx_data[5];
 1758              		.loc 1 288 40 view .LVU550
 1759 014e 1043     		orrs	r0, r0, r2
 1760              	.LVL136:
 289:Core/Src/bootloader.c ****             
 1761              		.loc 1 289 13 is_stmt 1 view .LVU551
 289:Core/Src/bootloader.c ****             
 1762              		.loc 1 289 29 is_stmt 0 view .LVU552
 1763 0150 5A79     		ldrb	r2, [r3, #5]	@ zero_extendqisi2
 1764              	.LVL137:
 291:Core/Src/bootloader.c ****             {
 1765              		.loc 1 291 13 is_stmt 1 view .LVU553
 291:Core/Src/bootloader.c ****             {
 1766              		.loc 1 291 48 is_stmt 0 view .LVU554
 1767 0152 00F17843 		add	r3, r0, #-134217728
 291:Core/Src/bootloader.c ****             {
 1768              		.loc 1 291 48 view .LVU555
 1769 0156 A3F50043 		sub	r3, r3, #32768
 291:Core/Src/bootloader.c ****             {
 1770              		.loc 1 291 16 view .LVU556
 1771 015a B3F5603F 		cmp	r3, #229376
 1772 015e 0FD2     		bcs	.L125
 293:Core/Src/bootloader.c ****                 result = Bootloader_WriteFlash(address, &rx_data[6], length);
 1773              		.loc 1 293 17 is_stmt 1 view .LVU557
 293:Core/Src/bootloader.c ****                 result = Bootloader_WriteFlash(address, &rx_data[6], length);
ARM GAS  C:\Users\Ali\AppData\Local\Temp\cc5FscdA.s 			page 60


 1774              		.loc 1 293 41 is_stmt 0 view .LVU558
 1775 0160 2F4B     		ldr	r3, .L137+8
 1776 0162 0221     		movs	r1, #2
 1777 0164 1970     		strb	r1, [r3]
 294:Core/Src/bootloader.c ****                 if (result == ERR_NONE)
 1778              		.loc 1 294 17 is_stmt 1 view .LVU559
 294:Core/Src/bootloader.c ****                 if (result == ERR_NONE)
 1779              		.loc 1 294 26 is_stmt 0 view .LVU560
 1780 0166 3249     		ldr	r1, .L137+24
 1781 0168 FFF7FEFF 		bl	Bootloader_WriteFlash
 1782              	.LVL138:
 295:Core/Src/bootloader.c ****                 {
 1783              		.loc 1 295 17 is_stmt 1 view .LVU561
 295:Core/Src/bootloader.c ****                 {
 1784              		.loc 1 295 20 is_stmt 0 view .LVU562
 1785 016c 28B9     		cbnz	r0, .L126
 297:Core/Src/bootloader.c ****                 }
 1786              		.loc 1 297 21 is_stmt 1 view .LVU563
 1787 016e FFF7FEFF 		bl	Bootloader_SendACK
 1788              	.LVL139:
 1789              	.L127:
 303:Core/Src/bootloader.c ****             }
 1790              		.loc 1 303 17 view .LVU564
 303:Core/Src/bootloader.c ****             }
 1791              		.loc 1 303 41 is_stmt 0 view .LVU565
 1792 0172 2B4B     		ldr	r3, .L137+8
 1793 0174 0022     		movs	r2, #0
 1794 0176 1A70     		strb	r2, [r3]
 1795 0178 65E7     		b	.L106
 1796              	.LVL140:
 1797              	.L126:
 301:Core/Src/bootloader.c ****                 }
 1798              		.loc 1 301 21 is_stmt 1 view .LVU566
 1799 017a FFF7FEFF 		bl	Bootloader_SendNACK
 1800              	.LVL141:
 301:Core/Src/bootloader.c ****                 }
 1801              		.loc 1 301 21 is_stmt 0 view .LVU567
 1802 017e F8E7     		b	.L127
 1803              	.LVL142:
 1804              	.L125:
 307:Core/Src/bootloader.c ****             }
 1805              		.loc 1 307 17 is_stmt 1 view .LVU568
 1806 0180 0220     		movs	r0, #2
 1807              	.LVL143:
 307:Core/Src/bootloader.c ****             }
 1808              		.loc 1 307 17 is_stmt 0 view .LVU569
 1809 0182 FFF7FEFF 		bl	Bootloader_SendNACK
 1810              	.LVL144:
 307:Core/Src/bootloader.c ****             }
 1811              		.loc 1 307 17 view .LVU570
 1812 0186 5EE7     		b	.L106
 1813              	.LVL145:
 1814              	.L113:
 313:Core/Src/bootloader.c ****                      (rx_data[3] << 8) | rx_data[4];
 1815              		.loc 1 313 13 is_stmt 1 view .LVU571
 313:Core/Src/bootloader.c ****                      (rx_data[3] << 8) | rx_data[4];
 1816              		.loc 1 313 31 is_stmt 0 view .LVU572
ARM GAS  C:\Users\Ali\AppData\Local\Temp\cc5FscdA.s 			page 61


 1817 0188 234B     		ldr	r3, .L137
 313:Core/Src/bootloader.c ****                      (rx_data[3] << 8) | rx_data[4];
 1818              		.loc 1 313 31 view .LVU573
 1819 018a 5A78     		ldrb	r2, [r3, #1]	@ zero_extendqisi2
 313:Core/Src/bootloader.c ****                      (rx_data[3] << 8) | rx_data[4];
 1820              		.loc 1 313 52 view .LVU574
 1821 018c 9878     		ldrb	r0, [r3, #2]	@ zero_extendqisi2
 313:Core/Src/bootloader.c ****                      (rx_data[3] << 8) | rx_data[4];
 1822              		.loc 1 313 56 view .LVU575
 1823 018e 0004     		lsls	r0, r0, #16
 313:Core/Src/bootloader.c ****                      (rx_data[3] << 8) | rx_data[4];
 1824              		.loc 1 313 42 view .LVU576
 1825 0190 40EA0260 		orr	r0, r0, r2, lsl #24
 314:Core/Src/bootloader.c ****             length = rx_data[5];
 1826              		.loc 1 314 30 view .LVU577
 1827 0194 DA78     		ldrb	r2, [r3, #3]	@ zero_extendqisi2
 313:Core/Src/bootloader.c ****                      (rx_data[3] << 8) | rx_data[4];
 1828              		.loc 1 313 63 view .LVU578
 1829 0196 40EA0220 		orr	r0, r0, r2, lsl #8
 314:Core/Src/bootloader.c ****             length = rx_data[5];
 1830              		.loc 1 314 49 view .LVU579
 1831 019a 1A79     		ldrb	r2, [r3, #4]	@ zero_extendqisi2
 314:Core/Src/bootloader.c ****             length = rx_data[5];
 1832              		.loc 1 314 40 view .LVU580
 1833 019c 1043     		orrs	r0, r0, r2
 1834              	.LVL146:
 315:Core/Src/bootloader.c ****             
 1835              		.loc 1 315 13 is_stmt 1 view .LVU581
 315:Core/Src/bootloader.c ****             
 1836              		.loc 1 315 29 is_stmt 0 view .LVU582
 1837 019e 5C79     		ldrb	r4, [r3, #5]	@ zero_extendqisi2
 1838              	.LVL147:
 317:Core/Src/bootloader.c ****             {
 1839              		.loc 1 317 13 is_stmt 1 view .LVU583
 317:Core/Src/bootloader.c ****             {
 1840              		.loc 1 317 48 is_stmt 0 view .LVU584
 1841 01a0 00F17843 		add	r3, r0, #-134217728
 317:Core/Src/bootloader.c ****             {
 1842              		.loc 1 317 48 view .LVU585
 1843 01a4 A3F50043 		sub	r3, r3, #32768
 317:Core/Src/bootloader.c ****             {
 1844              		.loc 1 317 16 view .LVU586
 1845 01a8 B3F5603F 		cmp	r3, #229376
 1846 01ac 01D2     		bcs	.L128
 317:Core/Src/bootloader.c ****             {
 1847              		.loc 1 317 80 discriminator 1 view .LVU587
 1848 01ae 072C     		cmp	r4, #7
 1849 01b0 03D9     		bls	.L136
 1850              	.L128:
 334:Core/Src/bootloader.c ****             }
 1851              		.loc 1 334 17 is_stmt 1 view .LVU588
 1852 01b2 0220     		movs	r0, #2
 1853              	.LVL148:
 334:Core/Src/bootloader.c ****             }
 1854              		.loc 1 334 17 is_stmt 0 view .LVU589
 1855 01b4 FFF7FEFF 		bl	Bootloader_SendNACK
 1856              	.LVL149:
ARM GAS  C:\Users\Ali\AppData\Local\Temp\cc5FscdA.s 			page 62


 334:Core/Src/bootloader.c ****             }
 1857              		.loc 1 334 17 view .LVU590
 1858 01b8 45E7     		b	.L106
 1859              	.LVL150:
 1860              	.L136:
 319:Core/Src/bootloader.c ****                 tx_data[0] = RESP_DATA;
 1861              		.loc 1 319 17 is_stmt 1 view .LVU591
 319:Core/Src/bootloader.c ****                 tx_data[0] = RESP_DATA;
 1862              		.loc 1 319 41 is_stmt 0 view .LVU592
 1863 01ba 194B     		ldr	r3, .L137+8
 1864 01bc 0322     		movs	r2, #3
 1865 01be 1A70     		strb	r2, [r3]
 320:Core/Src/bootloader.c ****                 result = Bootloader_ReadFlash(address, &tx_data[1], length);
 1866              		.loc 1 320 17 is_stmt 1 view .LVU593
 320:Core/Src/bootloader.c ****                 result = Bootloader_ReadFlash(address, &tx_data[1], length);
 1867              		.loc 1 320 28 is_stmt 0 view .LVU594
 1868 01c0 1649     		ldr	r1, .L137+4
 1869 01c2 1523     		movs	r3, #21
 1870 01c4 01F8013B 		strb	r3, [r1], #1
 321:Core/Src/bootloader.c ****                 if (result == ERR_NONE)
 1871              		.loc 1 321 17 is_stmt 1 view .LVU595
 321:Core/Src/bootloader.c ****                 if (result == ERR_NONE)
 1872              		.loc 1 321 26 is_stmt 0 view .LVU596
 1873 01c8 2246     		mov	r2, r4
 1874 01ca FFF7FEFF 		bl	Bootloader_ReadFlash
 1875              	.LVL151:
 322:Core/Src/bootloader.c ****                 {
 1876              		.loc 1 322 17 is_stmt 1 view .LVU597
 322:Core/Src/bootloader.c ****                 {
 1877              		.loc 1 322 20 is_stmt 0 view .LVU598
 1878 01ce 48B9     		cbnz	r0, .L129
 324:Core/Src/bootloader.c ****                 }
 1879              		.loc 1 324 21 is_stmt 1 view .LVU599
 1880 01d0 621C     		adds	r2, r4, #1
 1881 01d2 D2B2     		uxtb	r2, r2
 1882 01d4 1149     		ldr	r1, .L137+4
 1883 01d6 1520     		movs	r0, #21
 1884              	.LVL152:
 324:Core/Src/bootloader.c ****                 }
 1885              		.loc 1 324 21 is_stmt 0 view .LVU600
 1886 01d8 FFF7FEFF 		bl	Bootloader_SendCANMessage
 1887              	.LVL153:
 1888              	.L130:
 330:Core/Src/bootloader.c ****             }
 1889              		.loc 1 330 17 is_stmt 1 view .LVU601
 330:Core/Src/bootloader.c ****             }
 1890              		.loc 1 330 41 is_stmt 0 view .LVU602
 1891 01dc 104B     		ldr	r3, .L137+8
 1892 01de 0022     		movs	r2, #0
 1893 01e0 1A70     		strb	r2, [r3]
 1894 01e2 30E7     		b	.L106
 1895              	.LVL154:
 1896              	.L129:
 328:Core/Src/bootloader.c ****                 }
 1897              		.loc 1 328 21 is_stmt 1 view .LVU603
 1898 01e4 FFF7FEFF 		bl	Bootloader_SendNACK
 1899              	.LVL155:
ARM GAS  C:\Users\Ali\AppData\Local\Temp\cc5FscdA.s 			page 63


 328:Core/Src/bootloader.c ****                 }
 1900              		.loc 1 328 21 is_stmt 0 view .LVU604
 1901 01e8 F8E7     		b	.L130
 1902              	.LVL156:
 1903              	.L112:
 340:Core/Src/bootloader.c ****             {
 1904              		.loc 1 340 13 is_stmt 1 view .LVU605
 340:Core/Src/bootloader.c ****             {
 1905              		.loc 1 340 17 is_stmt 0 view .LVU606
 1906 01ea FFF7FEFF 		bl	Bootloader_CheckValidApplication
 1907              	.LVL157:
 340:Core/Src/bootloader.c ****             {
 1908              		.loc 1 340 16 discriminator 1 view .LVU607
 1909 01ee 50B1     		cbz	r0, .L131
 343:Core/Src/bootloader.c ****                 if (result != ERR_NONE)
 1910              		.loc 1 343 17 is_stmt 1 view .LVU608
 343:Core/Src/bootloader.c ****                 if (result != ERR_NONE)
 1911              		.loc 1 343 26 is_stmt 0 view .LVU609
 1912 01f0 FFF7FEFF 		bl	Bootloader_SetApplicationValidFlag
 1913              	.LVL158:
 344:Core/Src/bootloader.c ****                 {
 1914              		.loc 1 344 17 is_stmt 1 view .LVU610
 344:Core/Src/bootloader.c ****                 {
 1915              		.loc 1 344 20 is_stmt 0 view .LVU611
 1916 01f4 08B1     		cbz	r0, .L132
 347:Core/Src/bootloader.c ****                 }
 1917              		.loc 1 347 21 is_stmt 1 view .LVU612
 347:Core/Src/bootloader.c ****                 }
 1918              		.loc 1 347 50 is_stmt 0 view .LVU613
 1919 01f6 0A4A     		ldr	r2, .L137+8
 1920 01f8 1074     		strb	r0, [r2, #16]
 1921              	.L132:
 350:Core/Src/bootloader.c ****                 jump_to_app_flag = 1;  /* Set flag to trigger jump from main loop */
 1922              		.loc 1 350 17 is_stmt 1 view .LVU614
 1923 01fa FFF7FEFF 		bl	Bootloader_SendACK
 1924              	.LVL159:
 351:Core/Src/bootloader.c ****             }
 1925              		.loc 1 351 17 view .LVU615
 351:Core/Src/bootloader.c ****             }
 1926              		.loc 1 351 34 is_stmt 0 view .LVU616
 1927 01fe 0D4B     		ldr	r3, .L137+28
 1928 0200 0122     		movs	r2, #1
 1929 0202 1A70     		strb	r2, [r3]
 1930 0204 1FE7     		b	.L106
 1931              	.LVL160:
 1932              	.L131:
 355:Core/Src/bootloader.c ****             }
 1933              		.loc 1 355 17 is_stmt 1 view .LVU617
 1934 0206 0620     		movs	r0, #6
 1935 0208 FFF7FEFF 		bl	Bootloader_SendNACK
 1936              	.LVL161:
 1937 020c 1BE7     		b	.L106
 1938              	.LVL162:
 1939              	.L107:
 361:Core/Src/bootloader.c ****             break;
 1940              		.loc 1 361 13 view .LVU618
 1941 020e 0120     		movs	r0, #1
ARM GAS  C:\Users\Ali\AppData\Local\Temp\cc5FscdA.s 			page 64


 1942 0210 FFF7FEFF 		bl	Bootloader_SendNACK
 1943              	.LVL163:
 362:Core/Src/bootloader.c ****     }
 1944              		.loc 1 362 13 view .LVU619
 364:Core/Src/bootloader.c **** 
 1945              		.loc 1 364 1 is_stmt 0 view .LVU620
 1946 0214 17E7     		b	.L106
 1947              	.L138:
 1948 0216 00BF     		.align	2
 1949              	.L137:
 1950 0218 00000000 		.word	rx_data
 1951 021c 00000000 		.word	tx_data
 1952 0220 00000000 		.word	bootloader_status
 1953 0224 00800008 		.word	134250496
 1954 0228 00000000 		.word	buffer_index
 1955 022c 00000000 		.word	flash_buffer
 1956 0230 06000000 		.word	rx_data+6
 1957 0234 00000000 		.word	jump_to_app_flag
 1958              		.cfi_endproc
 1959              	.LFE135:
 1961              		.section	.text.HAL_CAN_RxFifo0MsgPendingCallback,"ax",%progbits
 1962              		.align	1
 1963              		.global	HAL_CAN_RxFifo0MsgPendingCallback
 1964              		.syntax unified
 1965              		.thumb
 1966              		.thumb_func
 1968              	HAL_CAN_RxFifo0MsgPendingCallback:
 1969              	.LVL164:
 1970              	.LFB149:
 763:Core/Src/bootloader.c **** 
 764:Core/Src/bootloader.c **** /**
 765:Core/Src/bootloader.c ****   * @brief  CAN RX FIFO 0 message pending callback
 766:Core/Src/bootloader.c ****   * @param  hcan: pointer to CAN Handle
 767:Core/Src/bootloader.c ****   * @retval None
 768:Core/Src/bootloader.c ****   */
 769:Core/Src/bootloader.c **** void HAL_CAN_RxFifo0MsgPendingCallback(CAN_HandleTypeDef *hcan)
 770:Core/Src/bootloader.c **** {
 1971              		.loc 1 770 1 is_stmt 1 view -0
 1972              		.cfi_startproc
 1973              		@ args = 0, pretend = 0, frame = 0
 1974              		@ frame_needed = 0, uses_anonymous_args = 0
 1975              		.loc 1 770 1 is_stmt 0 view .LVU622
 1976 0000 08B5     		push	{r3, lr}
 1977              		.cfi_def_cfa_offset 8
 1978              		.cfi_offset 3, -8
 1979              		.cfi_offset 14, -4
 771:Core/Src/bootloader.c ****     if (hcan == hcan_bootloader)
 1980              		.loc 1 771 5 is_stmt 1 view .LVU623
 1981              		.loc 1 771 14 is_stmt 0 view .LVU624
 1982 0002 0A4B     		ldr	r3, .L143
 1983 0004 1B68     		ldr	r3, [r3]
 1984              		.loc 1 771 8 view .LVU625
 1985 0006 8342     		cmp	r3, r0
 1986 0008 00D0     		beq	.L142
 1987              	.LVL165:
 1988              	.L139:
 772:Core/Src/bootloader.c ****     {
ARM GAS  C:\Users\Ali\AppData\Local\Temp\cc5FscdA.s 			page 65


 773:Core/Src/bootloader.c ****         /* Get message from FIFO */
 774:Core/Src/bootloader.c ****         if (HAL_CAN_GetRxMessage(hcan, CAN_RX_FIFO0, &rx_header, rx_data) == HAL_OK)
 775:Core/Src/bootloader.c ****         {
 776:Core/Src/bootloader.c ****             /* Check if message is for bootloader */
 777:Core/Src/bootloader.c ****             if (rx_header.StdId == CAN_HOST_ID)
 778:Core/Src/bootloader.c ****             {
 779:Core/Src/bootloader.c ****                 /* Process the message */
 780:Core/Src/bootloader.c ****                 Bootloader_ProcessCANMessage();
 781:Core/Src/bootloader.c ****             }
 782:Core/Src/bootloader.c ****         }
 783:Core/Src/bootloader.c ****     }
 784:Core/Src/bootloader.c **** }
 1989              		.loc 1 784 1 view .LVU626
 1990 000a 08BD     		pop	{r3, pc}
 1991              	.LVL166:
 1992              	.L142:
 774:Core/Src/bootloader.c ****         {
 1993              		.loc 1 774 9 is_stmt 1 view .LVU627
 774:Core/Src/bootloader.c ****         {
 1994              		.loc 1 774 13 is_stmt 0 view .LVU628
 1995 000c 084B     		ldr	r3, .L143+4
 1996 000e 094A     		ldr	r2, .L143+8
 1997 0010 0021     		movs	r1, #0
 1998 0012 FFF7FEFF 		bl	HAL_CAN_GetRxMessage
 1999              	.LVL167:
 774:Core/Src/bootloader.c ****         {
 2000              		.loc 1 774 12 discriminator 1 view .LVU629
 2001 0016 0028     		cmp	r0, #0
 2002 0018 F7D1     		bne	.L139
 777:Core/Src/bootloader.c ****             {
 2003              		.loc 1 777 13 is_stmt 1 view .LVU630
 777:Core/Src/bootloader.c ****             {
 2004              		.loc 1 777 26 is_stmt 0 view .LVU631
 2005 001a 064B     		ldr	r3, .L143+8
 2006 001c 1A68     		ldr	r2, [r3]
 777:Core/Src/bootloader.c ****             {
 2007              		.loc 1 777 16 view .LVU632
 2008 001e 40F20173 		movw	r3, #1793
 2009 0022 9A42     		cmp	r2, r3
 2010 0024 F1D1     		bne	.L139
 780:Core/Src/bootloader.c ****             }
 2011              		.loc 1 780 17 is_stmt 1 view .LVU633
 2012 0026 FFF7FEFF 		bl	Bootloader_ProcessCANMessage
 2013              	.LVL168:
 2014              		.loc 1 784 1 is_stmt 0 view .LVU634
 2015 002a EEE7     		b	.L139
 2016              	.L144:
 2017              		.align	2
 2018              	.L143:
 2019 002c 00000000 		.word	hcan_bootloader
 2020 0030 00000000 		.word	rx_data
 2021 0034 00000000 		.word	rx_header
 2022              		.cfi_endproc
 2023              	.LFE149:
 2025              		.section	.bss.jump_to_app_flag,"aw",%nobits
 2028              	jump_to_app_flag:
 2029 0000 00       		.space	1
ARM GAS  C:\Users\Ali\AppData\Local\Temp\cc5FscdA.s 			page 66


 2030              		.section	.bss.buffer_index,"aw",%nobits
 2031              		.align	1
 2034              	buffer_index:
 2035 0000 0000     		.space	2
 2036              		.section	.bss.flash_buffer,"aw",%nobits
 2037              		.align	2
 2040              	flash_buffer:
 2041 0000 00000000 		.space	8
 2041      00000000 
 2042              		.section	.bss.tx_mailbox,"aw",%nobits
 2043              		.align	2
 2046              	tx_mailbox:
 2047 0000 00000000 		.space	4
 2048              		.section	.bss.tx_header,"aw",%nobits
 2049              		.align	2
 2052              	tx_header:
 2053 0000 00000000 		.space	24
 2053      00000000 
 2053      00000000 
 2053      00000000 
 2053      00000000 
 2054              		.section	.bss.tx_data,"aw",%nobits
 2055              		.align	2
 2058              	tx_data:
 2059 0000 00000000 		.space	8
 2059      00000000 
 2060              		.section	.bss.rx_data,"aw",%nobits
 2061              		.align	2
 2064              	rx_data:
 2065 0000 00000000 		.space	8
 2065      00000000 
 2066              		.section	.bss.rx_header,"aw",%nobits
 2067              		.align	2
 2070              	rx_header:
 2071 0000 00000000 		.space	28
 2071      00000000 
 2071      00000000 
 2071      00000000 
 2071      00000000 
 2072              		.section	.bss.bootloader_status,"aw",%nobits
 2073              		.align	2
 2076              	bootloader_status:
 2077 0000 00000000 		.space	20
 2077      00000000 
 2077      00000000 
 2077      00000000 
 2077      00000000 
 2078              		.section	.bss.hcan_bootloader,"aw",%nobits
 2079              		.align	2
 2082              	hcan_bootloader:
 2083 0000 00000000 		.space	4
 2084              		.text
 2085              	.Letext0:
 2086              		.file 3 "C:/Users/Ali/AppData/Roaming/Code/User/globalStorage/bmd.stm32-for-vscode/@xpack-dev-tool
 2087              		.file 4 "C:/Users/Ali/AppData/Roaming/Code/User/globalStorage/bmd.stm32-for-vscode/@xpack-dev-tool
 2088              		.file 5 "Drivers/CMSIS/Include/core_cm4.h"
 2089              		.file 6 "Drivers/CMSIS/Device/ST/STM32L4xx/Include/stm32l432xx.h"
ARM GAS  C:\Users\Ali\AppData\Local\Temp\cc5FscdA.s 			page 67


 2090              		.file 7 "Drivers/CMSIS/Device/ST/STM32L4xx/Include/stm32l4xx.h"
 2091              		.file 8 "Drivers/STM32L4xx_HAL_Driver/Inc/stm32l4xx_hal_def.h"
 2092              		.file 9 "Drivers/STM32L4xx_HAL_Driver/Inc/stm32l4xx_hal_can.h"
 2093              		.file 10 "Drivers/STM32L4xx_HAL_Driver/Inc/stm32l4xx_hal_flash.h"
 2094              		.file 11 "Core/Inc/bootloader.h"
 2095              		.file 12 "Drivers/STM32L4xx_HAL_Driver/Inc/stm32l4xx_hal_flash_ex.h"
 2096              		.file 13 "Drivers/STM32L4xx_HAL_Driver/Inc/stm32l4xx_hal.h"
 2097              		.file 14 "C:/Users/Ali/AppData/Roaming/Code/User/globalStorage/bmd.stm32-for-vscode/@xpack-dev-too
 2098              		.file 15 "Core/Inc/main.h"
ARM GAS  C:\Users\Ali\AppData\Local\Temp\cc5FscdA.s 			page 68


DEFINED SYMBOLS
                            *ABS*:00000000 bootloader.c
C:\Users\Ali\AppData\Local\Temp\cc5FscdA.s:21     .text.Bootloader_ReadFlash:00000000 $t
C:\Users\Ali\AppData\Local\Temp\cc5FscdA.s:26     .text.Bootloader_ReadFlash:00000000 Bootloader_ReadFlash
C:\Users\Ali\AppData\Local\Temp\cc5FscdA.s:79     .text.Bootloader_ConfigureCANFilter:00000000 $t
C:\Users\Ali\AppData\Local\Temp\cc5FscdA.s:84     .text.Bootloader_ConfigureCANFilter:00000000 Bootloader_ConfigureCANFilter
C:\Users\Ali\AppData\Local\Temp\cc5FscdA.s:157    .text.Bootloader_ConfigureCANFilter:00000040 $d
C:\Users\Ali\AppData\Local\Temp\cc5FscdA.s:2082   .bss.hcan_bootloader:00000000 hcan_bootloader
C:\Users\Ali\AppData\Local\Temp\cc5FscdA.s:162    .text.Bootloader_WaitForCANTransmission:00000000 $t
C:\Users\Ali\AppData\Local\Temp\cc5FscdA.s:167    .text.Bootloader_WaitForCANTransmission:00000000 Bootloader_WaitForCANTransmission
C:\Users\Ali\AppData\Local\Temp\cc5FscdA.s:215    .text.Bootloader_WaitForCANTransmission:00000024 $d
C:\Users\Ali\AppData\Local\Temp\cc5FscdA.s:221    .text.Bootloader_EraseApplicationFlash:00000000 $t
C:\Users\Ali\AppData\Local\Temp\cc5FscdA.s:226    .text.Bootloader_EraseApplicationFlash:00000000 Bootloader_EraseApplicationFlash
C:\Users\Ali\AppData\Local\Temp\cc5FscdA.s:320    .text.Bootloader_EraseApplicationFlash:0000004c $d
C:\Users\Ali\AppData\Local\Temp\cc5FscdA.s:2076   .bss.bootloader_status:00000000 bootloader_status
C:\Users\Ali\AppData\Local\Temp\cc5FscdA.s:326    .text.Bootloader_WriteFlash:00000000 $t
C:\Users\Ali\AppData\Local\Temp\cc5FscdA.s:331    .text.Bootloader_WriteFlash:00000000 Bootloader_WriteFlash
C:\Users\Ali\AppData\Local\Temp\cc5FscdA.s:493    .text.Bootloader_WriteFlash:000000c0 $d
C:\Users\Ali\AppData\Local\Temp\cc5FscdA.s:499    .text.Bootloader_DeInit:00000000 $t
C:\Users\Ali\AppData\Local\Temp\cc5FscdA.s:504    .text.Bootloader_DeInit:00000000 Bootloader_DeInit
C:\Users\Ali\AppData\Local\Temp\cc5FscdA.s:569    .text.Bootloader_DeInit:00000040 $d
C:\Users\Ali\AppData\Local\Temp\cc5FscdA.s:574    .text.Bootloader_Init:00000000 $t
C:\Users\Ali\AppData\Local\Temp\cc5FscdA.s:580    .text.Bootloader_Init:00000000 Bootloader_Init
C:\Users\Ali\AppData\Local\Temp\cc5FscdA.s:667    .text.Bootloader_Init:00000054 $d
C:\Users\Ali\AppData\Local\Temp\cc5FscdA.s:2052   .bss.tx_header:00000000 tx_header
C:\Users\Ali\AppData\Local\Temp\cc5FscdA.s:675    .text.Bootloader_CheckValidApplication:00000000 $t
C:\Users\Ali\AppData\Local\Temp\cc5FscdA.s:681    .text.Bootloader_CheckValidApplication:00000000 Bootloader_CheckValidApplication
C:\Users\Ali\AppData\Local\Temp\cc5FscdA.s:729    .text.Bootloader_CheckValidApplication:00000028 $d
C:\Users\Ali\AppData\Local\Temp\cc5FscdA.s:735    .text.Bootloader_SendCANMessage:00000000 $t
C:\Users\Ali\AppData\Local\Temp\cc5FscdA.s:741    .text.Bootloader_SendCANMessage:00000000 Bootloader_SendCANMessage
C:\Users\Ali\AppData\Local\Temp\cc5FscdA.s:812    .text.Bootloader_SendCANMessage:0000003c $d
C:\Users\Ali\AppData\Local\Temp\cc5FscdA.s:2046   .bss.tx_mailbox:00000000 tx_mailbox
C:\Users\Ali\AppData\Local\Temp\cc5FscdA.s:819    .text.Bootloader_SendACK:00000000 $t
C:\Users\Ali\AppData\Local\Temp\cc5FscdA.s:824    .text.Bootloader_SendACK:00000000 Bootloader_SendACK
C:\Users\Ali\AppData\Local\Temp\cc5FscdA.s:854    .text.Bootloader_SendACK:00000018 $d
C:\Users\Ali\AppData\Local\Temp\cc5FscdA.s:2058   .bss.tx_data:00000000 tx_data
C:\Users\Ali\AppData\Local\Temp\cc5FscdA.s:860    .text.Bootloader_SendNACK:00000000 $t
C:\Users\Ali\AppData\Local\Temp\cc5FscdA.s:865    .text.Bootloader_SendNACK:00000000 Bootloader_SendNACK
C:\Users\Ali\AppData\Local\Temp\cc5FscdA.s:902    .text.Bootloader_SendNACK:00000018 $d
C:\Users\Ali\AppData\Local\Temp\cc5FscdA.s:908    .text.Bootloader_JumpToApplication:00000000 $t
C:\Users\Ali\AppData\Local\Temp\cc5FscdA.s:914    .text.Bootloader_JumpToApplication:00000000 Bootloader_JumpToApplication
C:\Users\Ali\AppData\Local\Temp\cc5FscdA.s:1042   .text.Bootloader_JumpToApplication:00000068 $d
C:\Users\Ali\AppData\Local\Temp\cc5FscdA.s:1049   .text.Bootloader_SetApplicationValidFlag:00000000 $t
C:\Users\Ali\AppData\Local\Temp\cc5FscdA.s:1055   .text.Bootloader_SetApplicationValidFlag:00000000 Bootloader_SetApplicationValidFlag
C:\Users\Ali\AppData\Local\Temp\cc5FscdA.s:1154   .text.Bootloader_SetApplicationValidFlag:00000058 $d
C:\Users\Ali\AppData\Local\Temp\cc5FscdA.s:1163   .text.Bootloader_CheckApplicationValidFlag:00000000 $t
C:\Users\Ali\AppData\Local\Temp\cc5FscdA.s:1169   .text.Bootloader_CheckApplicationValidFlag:00000000 Bootloader_CheckApplicationValidFlag
C:\Users\Ali\AppData\Local\Temp\cc5FscdA.s:1208   .text.Bootloader_CheckApplicationValidFlag:00000024 $d
C:\Users\Ali\AppData\Local\Temp\cc5FscdA.s:1215   .text.Bootloader_Main:00000000 $t
C:\Users\Ali\AppData\Local\Temp\cc5FscdA.s:1221   .text.Bootloader_Main:00000000 Bootloader_Main
C:\Users\Ali\AppData\Local\Temp\cc5FscdA.s:1362   .text.Bootloader_Main:0000008c $d
C:\Users\Ali\AppData\Local\Temp\cc5FscdA.s:2028   .bss.jump_to_app_flag:00000000 jump_to_app_flag
C:\Users\Ali\AppData\Local\Temp\cc5FscdA.s:1368   .text.Bootloader_ClearApplicationValidFlag:00000000 $t
C:\Users\Ali\AppData\Local\Temp\cc5FscdA.s:1374   .text.Bootloader_ClearApplicationValidFlag:00000000 Bootloader_ClearApplicationValidFlag
C:\Users\Ali\AppData\Local\Temp\cc5FscdA.s:1421   .text.Bootloader_ProcessCANMessage:00000000 $t
C:\Users\Ali\AppData\Local\Temp\cc5FscdA.s:1427   .text.Bootloader_ProcessCANMessage:00000000 Bootloader_ProcessCANMessage
C:\Users\Ali\AppData\Local\Temp\cc5FscdA.s:1452   .text.Bootloader_ProcessCANMessage:00000012 $d
ARM GAS  C:\Users\Ali\AppData\Local\Temp\cc5FscdA.s 			page 69


C:\Users\Ali\AppData\Local\Temp\cc5FscdA.s:1459   .text.Bootloader_ProcessCANMessage:00000020 $t
C:\Users\Ali\AppData\Local\Temp\cc5FscdA.s:1950   .text.Bootloader_ProcessCANMessage:00000218 $d
C:\Users\Ali\AppData\Local\Temp\cc5FscdA.s:2064   .bss.rx_data:00000000 rx_data
C:\Users\Ali\AppData\Local\Temp\cc5FscdA.s:2034   .bss.buffer_index:00000000 buffer_index
C:\Users\Ali\AppData\Local\Temp\cc5FscdA.s:2040   .bss.flash_buffer:00000000 flash_buffer
C:\Users\Ali\AppData\Local\Temp\cc5FscdA.s:1962   .text.HAL_CAN_RxFifo0MsgPendingCallback:00000000 $t
C:\Users\Ali\AppData\Local\Temp\cc5FscdA.s:1968   .text.HAL_CAN_RxFifo0MsgPendingCallback:00000000 HAL_CAN_RxFifo0MsgPendingCallback
C:\Users\Ali\AppData\Local\Temp\cc5FscdA.s:2019   .text.HAL_CAN_RxFifo0MsgPendingCallback:0000002c $d
C:\Users\Ali\AppData\Local\Temp\cc5FscdA.s:2070   .bss.rx_header:00000000 rx_header
C:\Users\Ali\AppData\Local\Temp\cc5FscdA.s:2029   .bss.jump_to_app_flag:00000000 $d
C:\Users\Ali\AppData\Local\Temp\cc5FscdA.s:2031   .bss.buffer_index:00000000 $d
C:\Users\Ali\AppData\Local\Temp\cc5FscdA.s:2037   .bss.flash_buffer:00000000 $d
C:\Users\Ali\AppData\Local\Temp\cc5FscdA.s:2043   .bss.tx_mailbox:00000000 $d
C:\Users\Ali\AppData\Local\Temp\cc5FscdA.s:2049   .bss.tx_header:00000000 $d
C:\Users\Ali\AppData\Local\Temp\cc5FscdA.s:2055   .bss.tx_data:00000000 $d
C:\Users\Ali\AppData\Local\Temp\cc5FscdA.s:2061   .bss.rx_data:00000000 $d
C:\Users\Ali\AppData\Local\Temp\cc5FscdA.s:2067   .bss.rx_header:00000000 $d
C:\Users\Ali\AppData\Local\Temp\cc5FscdA.s:2073   .bss.bootloader_status:00000000 $d
C:\Users\Ali\AppData\Local\Temp\cc5FscdA.s:2079   .bss.hcan_bootloader:00000000 $d

UNDEFINED SYMBOLS
HAL_CAN_ConfigFilter
Error_Handler
HAL_CAN_GetTxMailboxesFreeLevel
HAL_Delay
HAL_FLASH_Unlock
HAL_FLASHEx_Erase
HAL_FLASH_Lock
HAL_FLASH_Program
HAL_CAN_DeactivateNotification
HAL_CAN_Stop
HAL_CAN_MspDeInit
HAL_CAN_Start
HAL_CAN_ActivateNotification
HAL_CAN_AddTxMessage
HAL_GetTick
HAL_CAN_GetRxMessage
