ARM GAS  C:\Users\Ali\AppData\Local\Temp\ccszBmV3.s 			page 1


   1              		.cpu cortex-m4
   2              		.arch armv7e-m
   3              		.fpu fpv4-sp-d16
   4              		.eabi_attribute 27, 1
   5              		.eabi_attribute 28, 1
   6              		.eabi_attribute 20, 1
   7              		.eabi_attribute 21, 1
   8              		.eabi_attribute 23, 3
   9              		.eabi_attribute 24, 1
  10              		.eabi_attribute 25, 1
  11              		.eabi_attribute 26, 1
  12              		.eabi_attribute 30, 1
  13              		.eabi_attribute 34, 1
  14              		.eabi_attribute 18, 4
  15              		.file	"bootloader.c"
  16              		.text
  17              	.Ltext0:
  18              		.cfi_sections	.debug_frame
  19              		.file 1 "Core/Src/bootloader.c"
  20              		.section	.text.Bootloader_ReadFlash,"ax",%progbits
  21              		.align	1
  22              		.syntax unified
  23              		.thumb
  24              		.thumb_func
  26              	Bootloader_ReadFlash:
  27              	.LVL0:
  28              	.LFB138:
   1:Core/Src/bootloader.c **** /* USER CODE BEGIN Header */
   2:Core/Src/bootloader.c **** /**
   3:Core/Src/bootloader.c ****   ******************************************************************************
   4:Core/Src/bootloader.c ****   * @file           : bootloader.c
   5:Core/Src/bootloader.c ****   * @brief          : CAN Bootloader implementation for STM32L432
   6:Core/Src/bootloader.c ****   ******************************************************************************
   7:Core/Src/bootloader.c ****   * @attention
   8:Core/Src/bootloader.c ****   *
   9:Core/Src/bootloader.c ****   * This bootloader implements a CAN-based firmware update mechanism.
  10:Core/Src/bootloader.c ****   * It allows flashing new application firmware via CAN bus messages.
  11:Core/Src/bootloader.c ****   *
  12:Core/Src/bootloader.c ****   ******************************************************************************
  13:Core/Src/bootloader.c ****   */
  14:Core/Src/bootloader.c **** /* USER CODE END Header */
  15:Core/Src/bootloader.c **** 
  16:Core/Src/bootloader.c **** /* Includes ------------------------------------------------------------------*/
  17:Core/Src/bootloader.c **** #include "bootloader.h"
  18:Core/Src/bootloader.c **** #include <string.h>
  19:Core/Src/bootloader.c **** 
  20:Core/Src/bootloader.c **** /* Private variables ---------------------------------------------------------*/
  21:Core/Src/bootloader.c **** static CAN_HandleTypeDef *hcan_bootloader;
  22:Core/Src/bootloader.c **** static BootloaderStatus_t bootloader_status;
  23:Core/Src/bootloader.c **** static CAN_RxHeaderTypeDef rx_header;
  24:Core/Src/bootloader.c **** static uint8_t rx_data[8];
  25:Core/Src/bootloader.c **** static uint8_t tx_data[8];
  26:Core/Src/bootloader.c **** static CAN_TxHeaderTypeDef tx_header;
  27:Core/Src/bootloader.c **** static uint32_t tx_mailbox;
  28:Core/Src/bootloader.c **** static uint8_t flash_buffer[8];     /* Buffer for 8-byte flash writes (two 4-byte chunks) */
  29:Core/Src/bootloader.c **** static uint16_t buffer_index = 0;   /* Current position in flash_buffer */
  30:Core/Src/bootloader.c **** static volatile uint8_t jump_to_app_flag = 0;  /* Flag to trigger jump from main loop */
ARM GAS  C:\Users\Ali\AppData\Local\Temp\ccszBmV3.s 			page 2


  31:Core/Src/bootloader.c **** static volatile uint8_t can_command_received = 0;  /* Flag to disable auto-jump timeout */
  32:Core/Src/bootloader.c **** 
  33:Core/Src/bootloader.c **** /* Private function prototypes -----------------------------------------------*/
  34:Core/Src/bootloader.c **** static void Bootloader_ConfigureCANFilter(void);
  35:Core/Src/bootloader.c **** static uint8_t Bootloader_EraseApplicationFlash(void);
  36:Core/Src/bootloader.c **** static uint8_t Bootloader_WriteFlash(uint32_t address, uint8_t *data, uint16_t length);
  37:Core/Src/bootloader.c **** static uint8_t Bootloader_ReadFlash(uint32_t address, uint8_t *data, uint16_t length);
  38:Core/Src/bootloader.c **** static void Bootloader_DeInit(void);
  39:Core/Src/bootloader.c **** static void Bootloader_SendACK(void);
  40:Core/Src/bootloader.c **** static void Bootloader_SendNACK(uint8_t error_code);
  41:Core/Src/bootloader.c **** static void Bootloader_WaitForCANTransmission(void);
  42:Core/Src/bootloader.c **** 
  43:Core/Src/bootloader.c **** /**
  44:Core/Src/bootloader.c ****   * @brief  Initialize the bootloader
  45:Core/Src/bootloader.c ****   * @param  hcan: pointer to CAN handle
  46:Core/Src/bootloader.c ****   * @retval None
  47:Core/Src/bootloader.c ****   */
  48:Core/Src/bootloader.c **** void Bootloader_Init(CAN_HandleTypeDef *hcan)
  49:Core/Src/bootloader.c **** {
  50:Core/Src/bootloader.c ****     hcan_bootloader = hcan;
  51:Core/Src/bootloader.c ****     
  52:Core/Src/bootloader.c ****     /* Initialize bootloader status */
  53:Core/Src/bootloader.c ****     memset(&bootloader_status, 0, sizeof(BootloaderStatus_t));
  54:Core/Src/bootloader.c ****     bootloader_status.state = BL_STATE_IDLE;
  55:Core/Src/bootloader.c ****     bootloader_status.current_address = APPLICATION_ADDRESS;
  56:Core/Src/bootloader.c ****     
  57:Core/Src/bootloader.c ****     /* Configure CAN filter */
  58:Core/Src/bootloader.c ****     Bootloader_ConfigureCANFilter();
  59:Core/Src/bootloader.c ****     
  60:Core/Src/bootloader.c ****     /* Start CAN peripheral */
  61:Core/Src/bootloader.c ****     if (HAL_CAN_Start(hcan_bootloader) != HAL_OK)
  62:Core/Src/bootloader.c ****     {
  63:Core/Src/bootloader.c ****         Error_Handler();
  64:Core/Src/bootloader.c ****     }
  65:Core/Src/bootloader.c ****     
  66:Core/Src/bootloader.c ****     /* Activate CAN RX notification */
  67:Core/Src/bootloader.c ****     if (HAL_CAN_ActivateNotification(hcan_bootloader, CAN_IT_RX_FIFO0_MSG_PENDING) != HAL_OK)
  68:Core/Src/bootloader.c ****     {
  69:Core/Src/bootloader.c ****         Error_Handler();
  70:Core/Src/bootloader.c ****     }
  71:Core/Src/bootloader.c ****     
  72:Core/Src/bootloader.c ****     /* Configure TX header */
  73:Core/Src/bootloader.c ****     tx_header.StdId = 0;
  74:Core/Src/bootloader.c ****     tx_header.ExtId = CAN_BOOTLOADER_ID;
  75:Core/Src/bootloader.c ****     tx_header.IDE = CAN_ID_EXT;
  76:Core/Src/bootloader.c ****     tx_header.RTR = CAN_RTR_DATA;
  77:Core/Src/bootloader.c ****     tx_header.DLC = 8;
  78:Core/Src/bootloader.c ****     tx_header.TransmitGlobalTime = DISABLE;
  79:Core/Src/bootloader.c **** }
  80:Core/Src/bootloader.c **** 
  81:Core/Src/bootloader.c **** /**
  82:Core/Src/bootloader.c ****   * @brief  Configure CAN filter to accept bootloader messages
  83:Core/Src/bootloader.c ****   * @retval None
  84:Core/Src/bootloader.c ****   */
  85:Core/Src/bootloader.c **** static void Bootloader_ConfigureCANFilter(void)
  86:Core/Src/bootloader.c **** {
  87:Core/Src/bootloader.c ****     CAN_FilterTypeDef can_filter;
ARM GAS  C:\Users\Ali\AppData\Local\Temp\ccszBmV3.s 			page 3


  88:Core/Src/bootloader.c ****     
  89:Core/Src/bootloader.c ****     can_filter.FilterBank = 0;
  90:Core/Src/bootloader.c ****     can_filter.FilterMode = CAN_FILTERMODE_IDMASK;
  91:Core/Src/bootloader.c ****     can_filter.FilterScale = CAN_FILTERSCALE_32BIT;
  92:Core/Src/bootloader.c ****     /* For extended IDs: bits [28:13] in FilterIdHigh, bits [12:0] + IDE in FilterIdLow */
  93:Core/Src/bootloader.c ****     can_filter.FilterIdHigh = (CAN_HOST_ID >> 13) & 0xFFFF;
  94:Core/Src/bootloader.c ****     can_filter.FilterIdLow = ((CAN_HOST_ID << 3) & 0xFFF8) | 0x0004;  /* IDE bit set */
  95:Core/Src/bootloader.c ****     can_filter.FilterMaskIdHigh = 0xFFFF;  /* Match all upper bits */
  96:Core/Src/bootloader.c ****     can_filter.FilterMaskIdLow = 0xFFFC;   /* Match lower bits + IDE */
  97:Core/Src/bootloader.c ****     can_filter.FilterFIFOAssignment = CAN_RX_FIFO0;
  98:Core/Src/bootloader.c ****     can_filter.FilterActivation = ENABLE;
  99:Core/Src/bootloader.c ****     can_filter.SlaveStartFilterBank = 14;
 100:Core/Src/bootloader.c ****     
 101:Core/Src/bootloader.c ****     if (HAL_CAN_ConfigFilter(hcan_bootloader, &can_filter) != HAL_OK)
 102:Core/Src/bootloader.c ****     {
 103:Core/Src/bootloader.c ****         Error_Handler();
 104:Core/Src/bootloader.c ****     }
 105:Core/Src/bootloader.c **** }
 106:Core/Src/bootloader.c **** 
 107:Core/Src/bootloader.c **** /**
 108:Core/Src/bootloader.c ****   * @brief  Main bootloader loop
 109:Core/Src/bootloader.c ****   * @retval None
 110:Core/Src/bootloader.c ****   */
 111:Core/Src/bootloader.c **** void Bootloader_Main(void)
 112:Core/Src/bootloader.c **** {
 113:Core/Src/bootloader.c ****     uint32_t timeout_start = HAL_GetTick();
 114:Core/Src/bootloader.c ****     uint8_t timeout_expired = 0;
 115:Core/Src/bootloader.c ****     
 116:Core/Src/bootloader.c ****     /* Send ready message */
 117:Core/Src/bootloader.c ****     tx_data[0] = RESP_READY;
 118:Core/Src/bootloader.c ****     tx_data[1] = 0x01;  /* Bootloader version */
 119:Core/Src/bootloader.c ****     tx_data[2] = 0x00;  /* Bootloader subversion */
 120:Core/Src/bootloader.c ****     Bootloader_SendCANMessage(RESP_READY, tx_data, 3);
 121:Core/Src/bootloader.c ****     
 122:Core/Src/bootloader.c ****     /* Main bootloader loop with timeout */
 123:Core/Src/bootloader.c ****     while (1)
 124:Core/Src/bootloader.c ****     {
 125:Core/Src/bootloader.c ****         /* Check for timeout to auto-jump to application */
 126:Core/Src/bootloader.c ****         /* Only auto-jump if: timeout expired AND no CAN commands received AND valid app exists */
 127:Core/Src/bootloader.c ****         if (!timeout_expired && !can_command_received &&
 128:Core/Src/bootloader.c ****             (HAL_GetTick() - timeout_start >= BOOTLOADER_TIMEOUT_MS))
 129:Core/Src/bootloader.c ****         {
 130:Core/Src/bootloader.c ****             timeout_expired = 1;
 131:Core/Src/bootloader.c **** 
 132:Core/Src/bootloader.c ****             /* Only jump if we have a valid application flag set */
 133:Core/Src/bootloader.c ****             if (Bootloader_CheckApplicationValidFlag())
 134:Core/Src/bootloader.c ****             {
 135:Core/Src/bootloader.c ****                 /* Send timeout jump message */
 136:Core/Src/bootloader.c ****                 tx_data[0] = RESP_READY;
 137:Core/Src/bootloader.c ****                 tx_data[1] = 0xAA;  /* Special: Timeout auto-jump */
 138:Core/Src/bootloader.c ****                 tx_data[2] = 0x55;
 139:Core/Src/bootloader.c ****                 Bootloader_SendCANMessage(RESP_READY, tx_data, 3);
 140:Core/Src/bootloader.c **** 
 141:Core/Src/bootloader.c ****                 /* Wait for message to send */
 142:Core/Src/bootloader.c ****                 Bootloader_WaitForCANTransmission();
 143:Core/Src/bootloader.c ****                 HAL_Delay(10);
 144:Core/Src/bootloader.c **** 
ARM GAS  C:\Users\Ali\AppData\Local\Temp\ccszBmV3.s 			page 4


 145:Core/Src/bootloader.c ****                 /* Jump to application */
 146:Core/Src/bootloader.c ****                 Bootloader_JumpToApplication();
 147:Core/Src/bootloader.c ****             }
 148:Core/Src/bootloader.c ****             /* If no valid app, stay in bootloader mode indefinitely */
 149:Core/Src/bootloader.c ****         }
 150:Core/Src/bootloader.c ****         
 151:Core/Src/bootloader.c ****         /* Check if we should jump to application (from CAN command) */
 152:Core/Src/bootloader.c ****         if (jump_to_app_flag)
 153:Core/Src/bootloader.c ****         {
 154:Core/Src/bootloader.c ****             /* Send a pre-jump indicator message (using READY with special code) */
 155:Core/Src/bootloader.c ****             tx_data[0] = RESP_READY;
 156:Core/Src/bootloader.c ****             tx_data[1] = 0xFF;  /* Special: About to jump */
 157:Core/Src/bootloader.c ****             tx_data[2] = 0xFF;
 158:Core/Src/bootloader.c ****             Bootloader_SendCANMessage(RESP_READY, tx_data, 3);
 159:Core/Src/bootloader.c ****             
 160:Core/Src/bootloader.c ****             /* Wait for this message to be sent */
 161:Core/Src/bootloader.c ****             Bootloader_WaitForCANTransmission();
 162:Core/Src/bootloader.c ****             
 163:Core/Src/bootloader.c ****             /* Jump to application (this function should not return) */
 164:Core/Src/bootloader.c ****             Bootloader_JumpToApplication();
 165:Core/Src/bootloader.c ****             
 166:Core/Src/bootloader.c ****             /* If we get here, jump failed - reset the flag */
 167:Core/Src/bootloader.c ****             jump_to_app_flag = 0;
 168:Core/Src/bootloader.c ****         }
 169:Core/Src/bootloader.c ****         
 170:Core/Src/bootloader.c ****         /* Process received CAN messages (handled in interrupt) */
 171:Core/Src/bootloader.c ****         HAL_Delay(1);
 172:Core/Src/bootloader.c ****     }
 173:Core/Src/bootloader.c **** }
 174:Core/Src/bootloader.c **** 
 175:Core/Src/bootloader.c **** /**
 176:Core/Src/bootloader.c ****   * @brief  Process received CAN message
 177:Core/Src/bootloader.c ****   * @retval None
 178:Core/Src/bootloader.c ****   */
 179:Core/Src/bootloader.c **** void Bootloader_ProcessCANMessage(void)
 180:Core/Src/bootloader.c **** {
 181:Core/Src/bootloader.c ****     uint8_t command;
 182:Core/Src/bootloader.c ****     uint32_t address;
 183:Core/Src/bootloader.c ****     uint16_t length;
 184:Core/Src/bootloader.c ****     uint8_t result;
 185:Core/Src/bootloader.c **** 
 186:Core/Src/bootloader.c ****     /* Mark that a CAN command has been received - disable auto-jump timeout */
 187:Core/Src/bootloader.c ****     can_command_received = 1;
 188:Core/Src/bootloader.c **** 
 189:Core/Src/bootloader.c ****     /* Get the command byte */
 190:Core/Src/bootloader.c ****     command = rx_data[0];
 191:Core/Src/bootloader.c **** 
 192:Core/Src/bootloader.c ****     switch (command)
 193:Core/Src/bootloader.c ****     {
 194:Core/Src/bootloader.c ****         case CMD_GET_STATUS:
 195:Core/Src/bootloader.c ****             /* Send status information */
 196:Core/Src/bootloader.c ****             tx_data[0] = RESP_DATA;
 197:Core/Src/bootloader.c ****             tx_data[1] = bootloader_status.state;
 198:Core/Src/bootloader.c ****             tx_data[2] = bootloader_status.last_error;
 199:Core/Src/bootloader.c ****             tx_data[3] = (bootloader_status.bytes_written >> 24) & 0xFF;
 200:Core/Src/bootloader.c ****             tx_data[4] = (bootloader_status.bytes_written >> 16) & 0xFF;
 201:Core/Src/bootloader.c ****             tx_data[5] = (bootloader_status.bytes_written >> 8) & 0xFF;
ARM GAS  C:\Users\Ali\AppData\Local\Temp\ccszBmV3.s 			page 5


 202:Core/Src/bootloader.c ****             tx_data[6] = bootloader_status.bytes_written & 0xFF;
 203:Core/Src/bootloader.c ****             Bootloader_SendCANMessage(RESP_DATA, tx_data, 8);
 204:Core/Src/bootloader.c ****             break;
 205:Core/Src/bootloader.c ****             
 206:Core/Src/bootloader.c ****         case CMD_ERASE_FLASH:
 207:Core/Src/bootloader.c ****             /* Erase application flash area */
 208:Core/Src/bootloader.c ****             bootloader_status.state = BL_STATE_ERASING;
 209:Core/Src/bootloader.c ****             
 210:Core/Src/bootloader.c ****             /* Clear the application valid flag first */
 211:Core/Src/bootloader.c ****             Bootloader_ClearApplicationValidFlag();
 212:Core/Src/bootloader.c ****             
 213:Core/Src/bootloader.c ****             result = Bootloader_EraseApplicationFlash();
 214:Core/Src/bootloader.c ****             if (result == ERR_NONE)
 215:Core/Src/bootloader.c ****             {
 216:Core/Src/bootloader.c ****                 bootloader_status.bytes_written = 0;
 217:Core/Src/bootloader.c ****                 bootloader_status.current_address = APPLICATION_ADDRESS;
 218:Core/Src/bootloader.c ****                 Bootloader_SendACK();
 219:Core/Src/bootloader.c ****             }
 220:Core/Src/bootloader.c ****             else
 221:Core/Src/bootloader.c ****             {
 222:Core/Src/bootloader.c ****                 Bootloader_SendNACK(result);
 223:Core/Src/bootloader.c ****             }
 224:Core/Src/bootloader.c ****             bootloader_status.state = BL_STATE_IDLE;
 225:Core/Src/bootloader.c ****             break;
 226:Core/Src/bootloader.c ****             
 227:Core/Src/bootloader.c ****         case CMD_SET_ADDRESS:
 228:Core/Src/bootloader.c ****             /* Set the current write address */
 229:Core/Src/bootloader.c ****             address = (rx_data[1] << 24) | (rx_data[2] << 16) |
 230:Core/Src/bootloader.c ****                      (rx_data[3] << 8) | rx_data[4];
 231:Core/Src/bootloader.c **** 
 232:Core/Src/bootloader.c ****             /* Validate address is in application area (not in permanent storage) */
 233:Core/Src/bootloader.c ****             if (address >= APPLICATION_ADDRESS && address <= APPLICATION_END_ADDRESS)
 234:Core/Src/bootloader.c ****             {
 235:Core/Src/bootloader.c ****                 bootloader_status.current_address = address;
 236:Core/Src/bootloader.c ****                 buffer_index = 0;  /* Reset buffer */
 237:Core/Src/bootloader.c ****                 Bootloader_SendACK();
 238:Core/Src/bootloader.c ****             }
 239:Core/Src/bootloader.c ****             else
 240:Core/Src/bootloader.c ****             {
 241:Core/Src/bootloader.c ****                 Bootloader_SendNACK(ERR_INVALID_ADDRESS);
 242:Core/Src/bootloader.c ****             }
 243:Core/Src/bootloader.c ****             break;
 244:Core/Src/bootloader.c ****             
 245:Core/Src/bootloader.c ****         case CMD_WRITE_DATA:
 246:Core/Src/bootloader.c ****             /* Write data to flash at current address */
 247:Core/Src/bootloader.c ****             /* Expected format: [CMD] [0x04] [byte0] [byte1] [byte2] [byte3] ... */
 248:Core/Src/bootloader.c ****             /* Receives 4 bytes per message, buffers two messages (8 bytes) before writing */
 249:Core/Src/bootloader.c ****             bootloader_status.state = BL_STATE_WRITING;
 250:Core/Src/bootloader.c ****             length = rx_data[1];  /* Data length - should always be 4 */
 251:Core/Src/bootloader.c ****             
 252:Core/Src/bootloader.c ****             if (length != 4)
 253:Core/Src/bootloader.c ****             {
 254:Core/Src/bootloader.c ****                 Bootloader_SendNACK(ERR_INVALID_DATA_LENGTH);
 255:Core/Src/bootloader.c ****                 bootloader_status.state = BL_STATE_IDLE;
 256:Core/Src/bootloader.c ****                 buffer_index = 0;  /* Reset buffer on error */
 257:Core/Src/bootloader.c ****                 break;
 258:Core/Src/bootloader.c ****             }
ARM GAS  C:\Users\Ali\AppData\Local\Temp\ccszBmV3.s 			page 6


 259:Core/Src/bootloader.c ****             
 260:Core/Src/bootloader.c ****             /* Copy 4 bytes to buffer */
 261:Core/Src/bootloader.c ****             for (uint8_t i = 0; i < 4; i++)
 262:Core/Src/bootloader.c ****             {
 263:Core/Src/bootloader.c ****                 flash_buffer[buffer_index++] = rx_data[2 + i];
 264:Core/Src/bootloader.c ****             }
 265:Core/Src/bootloader.c ****             
 266:Core/Src/bootloader.c ****             /* Write to flash when we have 8 bytes (two 4-byte chunks) */
 267:Core/Src/bootloader.c ****             if (buffer_index >= 8)
 268:Core/Src/bootloader.c ****             {
 269:Core/Src/bootloader.c ****                 result = Bootloader_WriteFlash(bootloader_status.current_address, 
 270:Core/Src/bootloader.c ****                                                flash_buffer, 8);
 271:Core/Src/bootloader.c ****                 if (result == ERR_NONE)
 272:Core/Src/bootloader.c ****                 {
 273:Core/Src/bootloader.c ****                     bootloader_status.current_address += 8;
 274:Core/Src/bootloader.c ****                     bootloader_status.bytes_written += 8;
 275:Core/Src/bootloader.c ****                     buffer_index = 0;
 276:Core/Src/bootloader.c ****                     Bootloader_SendACK();
 277:Core/Src/bootloader.c ****                 }
 278:Core/Src/bootloader.c ****                 else
 279:Core/Src/bootloader.c ****                 {
 280:Core/Src/bootloader.c ****                     buffer_index = 0;  /* Reset buffer on write failure */
 281:Core/Src/bootloader.c ****                     Bootloader_SendNACK(result);
 282:Core/Src/bootloader.c ****                 }
 283:Core/Src/bootloader.c ****             }
 284:Core/Src/bootloader.c ****             else
 285:Core/Src/bootloader.c ****             {
 286:Core/Src/bootloader.c ****                 Bootloader_SendACK();  /* Data buffered, waiting for more */
 287:Core/Src/bootloader.c ****             }
 288:Core/Src/bootloader.c ****             
 289:Core/Src/bootloader.c ****             bootloader_status.state = BL_STATE_IDLE;
 290:Core/Src/bootloader.c ****             break;
 291:Core/Src/bootloader.c ****             
 292:Core/Src/bootloader.c ****         case CMD_WRITE_FLASH:
 293:Core/Src/bootloader.c ****             /* Legacy write command - write address and data in one message */
 294:Core/Src/bootloader.c ****             address = (rx_data[1] << 24) | (rx_data[2] << 16) |
 295:Core/Src/bootloader.c ****                      (rx_data[3] << 8) | rx_data[4];
 296:Core/Src/bootloader.c ****             length = rx_data[5];
 297:Core/Src/bootloader.c **** 
 298:Core/Src/bootloader.c ****             /* Validate address is in application area (not in permanent storage) */
 299:Core/Src/bootloader.c ****             if (address >= APPLICATION_ADDRESS && address <= APPLICATION_END_ADDRESS)
 300:Core/Src/bootloader.c ****             {
 301:Core/Src/bootloader.c ****                 bootloader_status.state = BL_STATE_WRITING;
 302:Core/Src/bootloader.c ****                 result = Bootloader_WriteFlash(address, &rx_data[6], length);
 303:Core/Src/bootloader.c ****                 if (result == ERR_NONE)
 304:Core/Src/bootloader.c ****                 {
 305:Core/Src/bootloader.c ****                     Bootloader_SendACK();
 306:Core/Src/bootloader.c ****                 }
 307:Core/Src/bootloader.c ****                 else
 308:Core/Src/bootloader.c ****                 {
 309:Core/Src/bootloader.c ****                     Bootloader_SendNACK(result);
 310:Core/Src/bootloader.c ****                 }
 311:Core/Src/bootloader.c ****                 bootloader_status.state = BL_STATE_IDLE;
 312:Core/Src/bootloader.c ****             }
 313:Core/Src/bootloader.c ****             else
 314:Core/Src/bootloader.c ****             {
 315:Core/Src/bootloader.c ****                 Bootloader_SendNACK(ERR_INVALID_ADDRESS);
ARM GAS  C:\Users\Ali\AppData\Local\Temp\ccszBmV3.s 			page 7


 316:Core/Src/bootloader.c ****             }
 317:Core/Src/bootloader.c ****             break;
 318:Core/Src/bootloader.c ****             
 319:Core/Src/bootloader.c ****         case CMD_READ_FLASH:
 320:Core/Src/bootloader.c ****             /* Read flash memory */
 321:Core/Src/bootloader.c ****             address = (rx_data[1] << 24) | (rx_data[2] << 16) |
 322:Core/Src/bootloader.c ****                      (rx_data[3] << 8) | rx_data[4];
 323:Core/Src/bootloader.c ****             length = rx_data[5];
 324:Core/Src/bootloader.c **** 
 325:Core/Src/bootloader.c ****             /* Allow reading from application area only (not permanent storage during flash ops) */
 326:Core/Src/bootloader.c ****             if (address >= APPLICATION_ADDRESS && address <= APPLICATION_END_ADDRESS && length <= 7
 327:Core/Src/bootloader.c ****             {
 328:Core/Src/bootloader.c ****                 bootloader_status.state = BL_STATE_READING;
 329:Core/Src/bootloader.c ****                 tx_data[0] = RESP_DATA;
 330:Core/Src/bootloader.c ****                 result = Bootloader_ReadFlash(address, &tx_data[1], length);
 331:Core/Src/bootloader.c ****                 if (result == ERR_NONE)
 332:Core/Src/bootloader.c ****                 {
 333:Core/Src/bootloader.c ****                     Bootloader_SendCANMessage(RESP_DATA, tx_data, length + 1);
 334:Core/Src/bootloader.c ****                 }
 335:Core/Src/bootloader.c ****                 else
 336:Core/Src/bootloader.c ****                 {
 337:Core/Src/bootloader.c ****                     Bootloader_SendNACK(result);
 338:Core/Src/bootloader.c ****                 }
 339:Core/Src/bootloader.c ****                 bootloader_status.state = BL_STATE_IDLE;
 340:Core/Src/bootloader.c ****             }
 341:Core/Src/bootloader.c ****             else
 342:Core/Src/bootloader.c ****             {
 343:Core/Src/bootloader.c ****                 Bootloader_SendNACK(ERR_INVALID_ADDRESS);
 344:Core/Src/bootloader.c ****             }
 345:Core/Src/bootloader.c ****             break;
 346:Core/Src/bootloader.c ****             
 347:Core/Src/bootloader.c ****         case CMD_JUMP_TO_APP:
 348:Core/Src/bootloader.c ****             /* Jump to application - set flag to jump from main loop, not from interrupt */
 349:Core/Src/bootloader.c ****             if (Bootloader_CheckValidApplication())
 350:Core/Src/bootloader.c ****             {
 351:Core/Src/bootloader.c ****                 /* Set the valid application flag in flash for future auto-boots */
 352:Core/Src/bootloader.c ****                 result = Bootloader_SetApplicationValidFlag();
 353:Core/Src/bootloader.c ****                 if (result != ERR_NONE)
 354:Core/Src/bootloader.c ****                 {
 355:Core/Src/bootloader.c ****                     /* Log error but still try to jump - flag write failure shouldn't prevent immed
 356:Core/Src/bootloader.c ****                     bootloader_status.last_error = result;
 357:Core/Src/bootloader.c ****                 }
 358:Core/Src/bootloader.c ****                 
 359:Core/Src/bootloader.c ****                 Bootloader_SendACK();
 360:Core/Src/bootloader.c ****                 jump_to_app_flag = 1;  /* Set flag to trigger jump from main loop */
 361:Core/Src/bootloader.c ****             }
 362:Core/Src/bootloader.c ****             else
 363:Core/Src/bootloader.c ****             {
 364:Core/Src/bootloader.c ****                 Bootloader_SendNACK(ERR_NO_VALID_APP);
 365:Core/Src/bootloader.c ****             }
 366:Core/Src/bootloader.c ****             break;
 367:Core/Src/bootloader.c ****             
 368:Core/Src/bootloader.c ****         default:
 369:Core/Src/bootloader.c ****             /* Unknown command */
 370:Core/Src/bootloader.c ****             Bootloader_SendNACK(ERR_INVALID_COMMAND);
 371:Core/Src/bootloader.c ****             break;
 372:Core/Src/bootloader.c ****     }
ARM GAS  C:\Users\Ali\AppData\Local\Temp\ccszBmV3.s 			page 8


 373:Core/Src/bootloader.c **** }
 374:Core/Src/bootloader.c **** 
 375:Core/Src/bootloader.c **** /**
 376:Core/Src/bootloader.c ****   * @brief  Erase application flash area
 377:Core/Src/bootloader.c ****   * @retval Error code
 378:Core/Src/bootloader.c ****   */
 379:Core/Src/bootloader.c **** static uint8_t Bootloader_EraseApplicationFlash(void)
 380:Core/Src/bootloader.c **** {
 381:Core/Src/bootloader.c ****     FLASH_EraseInitTypeDef erase_init;
 382:Core/Src/bootloader.c ****     uint32_t page_error;
 383:Core/Src/bootloader.c ****     HAL_StatusTypeDef status;
 384:Core/Src/bootloader.c ****     
 385:Core/Src/bootloader.c ****     /* Calculate first and last pages for application */
 386:Core/Src/bootloader.c ****     uint32_t first_page = (APPLICATION_ADDRESS - 0x08000000) / FLASH_PAGE_SIZE;
 387:Core/Src/bootloader.c ****     uint32_t num_pages = APPLICATION_SIZE / FLASH_PAGE_SIZE;
 388:Core/Src/bootloader.c ****     
 389:Core/Src/bootloader.c ****     /* Unlock flash */
 390:Core/Src/bootloader.c ****     HAL_FLASH_Unlock();
 391:Core/Src/bootloader.c ****     
 392:Core/Src/bootloader.c ****     /* Clear all flash flags */
 393:Core/Src/bootloader.c ****     __HAL_FLASH_CLEAR_FLAG(FLASH_FLAG_ALL_ERRORS);
 394:Core/Src/bootloader.c ****     
 395:Core/Src/bootloader.c ****     /* Configure erase */
 396:Core/Src/bootloader.c ****     erase_init.TypeErase = FLASH_TYPEERASE_PAGES;
 397:Core/Src/bootloader.c ****     erase_init.Banks = FLASH_BANK_1;
 398:Core/Src/bootloader.c ****     erase_init.Page = first_page;
 399:Core/Src/bootloader.c ****     erase_init.NbPages = num_pages;
 400:Core/Src/bootloader.c ****     
 401:Core/Src/bootloader.c ****     /* Perform erase */
 402:Core/Src/bootloader.c ****     status = HAL_FLASHEx_Erase(&erase_init, &page_error);
 403:Core/Src/bootloader.c ****     
 404:Core/Src/bootloader.c ****     /* Lock flash */
 405:Core/Src/bootloader.c ****     HAL_FLASH_Lock();
 406:Core/Src/bootloader.c ****     
 407:Core/Src/bootloader.c ****     if (status != HAL_OK)
 408:Core/Src/bootloader.c ****     {
 409:Core/Src/bootloader.c ****         bootloader_status.last_error = ERR_FLASH_ERASE_FAILED;
 410:Core/Src/bootloader.c ****         return ERR_FLASH_ERASE_FAILED;
 411:Core/Src/bootloader.c ****     }
 412:Core/Src/bootloader.c ****     
 413:Core/Src/bootloader.c ****     bootloader_status.last_error = ERR_NONE;
 414:Core/Src/bootloader.c ****     return ERR_NONE;
 415:Core/Src/bootloader.c **** }
 416:Core/Src/bootloader.c **** 
 417:Core/Src/bootloader.c **** /**
 418:Core/Src/bootloader.c ****   * @brief  Write data to flash
 419:Core/Src/bootloader.c ****   * @param  address: Flash address to write
 420:Core/Src/bootloader.c ****   * @param  data: Pointer to data buffer
 421:Core/Src/bootloader.c ****   * @param  length: Number of bytes to write (must be multiple of 8)
 422:Core/Src/bootloader.c ****   * @retval Error code
 423:Core/Src/bootloader.c ****   */
 424:Core/Src/bootloader.c **** static uint8_t Bootloader_WriteFlash(uint32_t address, uint8_t *data, uint16_t length)
 425:Core/Src/bootloader.c **** {
 426:Core/Src/bootloader.c ****     HAL_StatusTypeDef status = HAL_OK;
 427:Core/Src/bootloader.c ****     uint32_t i;
 428:Core/Src/bootloader.c ****     uint64_t data64;
 429:Core/Src/bootloader.c **** 
ARM GAS  C:\Users\Ali\AppData\Local\Temp\ccszBmV3.s 			page 9


 430:Core/Src/bootloader.c ****     /* Validate parameters - protect permanent storage area */
 431:Core/Src/bootloader.c ****     if (address < APPLICATION_ADDRESS || address > APPLICATION_END_ADDRESS)
 432:Core/Src/bootloader.c ****     {
 433:Core/Src/bootloader.c ****         bootloader_status.last_error = ERR_INVALID_ADDRESS;
 434:Core/Src/bootloader.c ****         return ERR_INVALID_ADDRESS;
 435:Core/Src/bootloader.c ****     }
 436:Core/Src/bootloader.c **** 
 437:Core/Src/bootloader.c ****     /* Ensure write doesn't overflow into permanent storage */
 438:Core/Src/bootloader.c ****     if ((address + length - 1) > APPLICATION_END_ADDRESS)
 439:Core/Src/bootloader.c ****     {
 440:Core/Src/bootloader.c ****         bootloader_status.last_error = ERR_INVALID_ADDRESS;
 441:Core/Src/bootloader.c ****         return ERR_INVALID_ADDRESS;
 442:Core/Src/bootloader.c ****     }
 443:Core/Src/bootloader.c ****     
 444:Core/Src/bootloader.c ****     /* Length must be multiple of 8 for double word programming */
 445:Core/Src/bootloader.c ****     if (length % 8 != 0)
 446:Core/Src/bootloader.c ****     {
 447:Core/Src/bootloader.c ****         bootloader_status.last_error = ERR_INVALID_DATA_LENGTH;
 448:Core/Src/bootloader.c ****         return ERR_INVALID_DATA_LENGTH;
 449:Core/Src/bootloader.c ****     }
 450:Core/Src/bootloader.c ****     
 451:Core/Src/bootloader.c ****     /* Unlock flash */
 452:Core/Src/bootloader.c ****     HAL_FLASH_Unlock();
 453:Core/Src/bootloader.c ****     
 454:Core/Src/bootloader.c ****     /* Clear all flash flags */
 455:Core/Src/bootloader.c ****     __HAL_FLASH_CLEAR_FLAG(FLASH_FLAG_ALL_ERRORS);
 456:Core/Src/bootloader.c ****     
 457:Core/Src/bootloader.c ****     /* Write data in 64-bit chunks */
 458:Core/Src/bootloader.c ****     for (i = 0; i < length; i += 8)
 459:Core/Src/bootloader.c ****     {
 460:Core/Src/bootloader.c ****         /* Combine 8 bytes into 64-bit value */
 461:Core/Src/bootloader.c ****         data64 = ((uint64_t)data[i + 0] << 0)  |
 462:Core/Src/bootloader.c ****                  ((uint64_t)data[i + 1] << 8)  |
 463:Core/Src/bootloader.c ****                  ((uint64_t)data[i + 2] << 16) |
 464:Core/Src/bootloader.c ****                  ((uint64_t)data[i + 3] << 24) |
 465:Core/Src/bootloader.c ****                  ((uint64_t)data[i + 4] << 32) |
 466:Core/Src/bootloader.c ****                  ((uint64_t)data[i + 5] << 40) |
 467:Core/Src/bootloader.c ****                  ((uint64_t)data[i + 6] << 48) |
 468:Core/Src/bootloader.c ****                  ((uint64_t)data[i + 7] << 56);
 469:Core/Src/bootloader.c ****         
 470:Core/Src/bootloader.c ****         status = HAL_FLASH_Program(FLASH_TYPEPROGRAM_DOUBLEWORD, address + i, data64);
 471:Core/Src/bootloader.c ****         
 472:Core/Src/bootloader.c ****         if (status != HAL_OK)
 473:Core/Src/bootloader.c ****         {
 474:Core/Src/bootloader.c ****             break;
 475:Core/Src/bootloader.c ****         }
 476:Core/Src/bootloader.c ****     }
 477:Core/Src/bootloader.c ****     
 478:Core/Src/bootloader.c ****     /* Lock flash */
 479:Core/Src/bootloader.c ****     HAL_FLASH_Lock();
 480:Core/Src/bootloader.c ****     
 481:Core/Src/bootloader.c ****     if (status != HAL_OK)
 482:Core/Src/bootloader.c ****     {
 483:Core/Src/bootloader.c ****         bootloader_status.last_error = ERR_FLASH_WRITE_FAILED;
 484:Core/Src/bootloader.c ****         return ERR_FLASH_WRITE_FAILED;
 485:Core/Src/bootloader.c ****     }
 486:Core/Src/bootloader.c ****     
ARM GAS  C:\Users\Ali\AppData\Local\Temp\ccszBmV3.s 			page 10


 487:Core/Src/bootloader.c ****     bootloader_status.last_error = ERR_NONE;
 488:Core/Src/bootloader.c ****     return ERR_NONE;
 489:Core/Src/bootloader.c **** }
 490:Core/Src/bootloader.c **** 
 491:Core/Src/bootloader.c **** /**
 492:Core/Src/bootloader.c ****   * @brief  Read data from flash
 493:Core/Src/bootloader.c ****   * @param  address: Flash address to read
 494:Core/Src/bootloader.c ****   * @param  data: Pointer to data buffer
 495:Core/Src/bootloader.c ****   * @param  length: Number of bytes to read
 496:Core/Src/bootloader.c ****   * @retval Error code
 497:Core/Src/bootloader.c ****   */
 498:Core/Src/bootloader.c **** static uint8_t Bootloader_ReadFlash(uint32_t address, uint8_t *data, uint16_t length)
 499:Core/Src/bootloader.c **** {
  29              		.loc 1 499 1 view -0
  30              		.cfi_startproc
  31              		@ args = 0, pretend = 0, frame = 0
  32              		@ frame_needed = 0, uses_anonymous_args = 0
  33              		@ link register save eliminated.
 500:Core/Src/bootloader.c ****     uint16_t i;
  34              		.loc 1 500 5 view .LVU1
 501:Core/Src/bootloader.c ****     uint8_t *flash_ptr = (uint8_t *)address;
  35              		.loc 1 501 5 view .LVU2
 502:Core/Src/bootloader.c **** 
 503:Core/Src/bootloader.c ****     /* Validate address - protect permanent storage area */
 504:Core/Src/bootloader.c ****     if (address < APPLICATION_ADDRESS || address > APPLICATION_END_ADDRESS)
  36              		.loc 1 504 5 view .LVU3
  37              		.loc 1 504 39 is_stmt 0 view .LVU4
  38 0000 00F17843 		add	r3, r0, #-134217728
  39 0004 A3F50043 		sub	r3, r3, #32768
  40              		.loc 1 504 8 view .LVU5
  41 0008 B3F5503F 		cmp	r3, #212992
  42 000c 13D2     		bcs	.L5
 499:Core/Src/bootloader.c ****     uint16_t i;
  43              		.loc 1 499 1 view .LVU6
  44 000e 10B4     		push	{r4}
  45              		.cfi_def_cfa_offset 4
  46              		.cfi_offset 4, -4
 505:Core/Src/bootloader.c ****     {
 506:Core/Src/bootloader.c ****         return ERR_INVALID_ADDRESS;
 507:Core/Src/bootloader.c ****     }
 508:Core/Src/bootloader.c **** 
 509:Core/Src/bootloader.c ****     /* Ensure read doesn't overflow into permanent storage */
 510:Core/Src/bootloader.c ****     if ((address + length - 1) > APPLICATION_END_ADDRESS)
  47              		.loc 1 510 5 is_stmt 1 view .LVU7
  48              		.loc 1 510 18 is_stmt 0 view .LVU8
  49 0010 1318     		adds	r3, r2, r0
  50              		.loc 1 510 27 view .LVU9
  51 0012 013B     		subs	r3, r3, #1
  52              		.loc 1 510 8 view .LVU10
  53 0014 0A4C     		ldr	r4, .L11
  54 0016 A342     		cmp	r3, r4
  55 0018 0FD2     		bcs	.L6
 511:Core/Src/bootloader.c ****     {
 512:Core/Src/bootloader.c ****         return ERR_INVALID_ADDRESS;
 513:Core/Src/bootloader.c ****     }
 514:Core/Src/bootloader.c ****     
 515:Core/Src/bootloader.c ****     /* Read data */
ARM GAS  C:\Users\Ali\AppData\Local\Temp\ccszBmV3.s 			page 11


 516:Core/Src/bootloader.c ****     for (i = 0; i < length; i++)
  56              		.loc 1 516 12 view .LVU11
  57 001a 0023     		movs	r3, #0
  58 001c 05E0     		b	.L3
  59              	.LVL1:
  60              	.L4:
 517:Core/Src/bootloader.c ****     {
 518:Core/Src/bootloader.c ****         data[i] = flash_ptr[i];
  61              		.loc 1 518 9 is_stmt 1 view .LVU12
  62              		.loc 1 518 28 is_stmt 0 view .LVU13
  63 001e 10F803C0 		ldrb	ip, [r0, r3]	@ zero_extendqisi2
  64              		.loc 1 518 17 view .LVU14
  65 0022 01F803C0 		strb	ip, [r1, r3]
 516:Core/Src/bootloader.c ****     {
  66              		.loc 1 516 30 is_stmt 1 discriminator 3 view .LVU15
  67 0026 0133     		adds	r3, r3, #1
  68              	.LVL2:
 516:Core/Src/bootloader.c ****     {
  69              		.loc 1 516 30 is_stmt 0 discriminator 3 view .LVU16
  70 0028 9BB2     		uxth	r3, r3
  71              	.LVL3:
  72              	.L3:
 516:Core/Src/bootloader.c ****     {
  73              		.loc 1 516 19 is_stmt 1 discriminator 1 view .LVU17
  74 002a 9342     		cmp	r3, r2
  75 002c F7D3     		bcc	.L4
 519:Core/Src/bootloader.c ****     }
 520:Core/Src/bootloader.c ****     
 521:Core/Src/bootloader.c ****     return ERR_NONE;
  76              		.loc 1 521 12 is_stmt 0 view .LVU18
  77 002e 0020     		movs	r0, #0
  78              	.LVL4:
  79              	.L2:
 522:Core/Src/bootloader.c **** }
  80              		.loc 1 522 1 view .LVU19
  81 0030 5DF8044B 		ldr	r4, [sp], #4
  82              		.cfi_restore 4
  83              		.cfi_def_cfa_offset 0
  84 0034 7047     		bx	lr
  85              	.LVL5:
  86              	.L5:
 506:Core/Src/bootloader.c ****     }
  87              		.loc 1 506 16 view .LVU20
  88 0036 0220     		movs	r0, #2
  89              	.LVL6:
  90              		.loc 1 522 1 view .LVU21
  91 0038 7047     		bx	lr
  92              	.LVL7:
  93              	.L6:
  94              		.cfi_def_cfa_offset 4
  95              		.cfi_offset 4, -4
 512:Core/Src/bootloader.c ****     }
  96              		.loc 1 512 16 view .LVU22
  97 003a 0220     		movs	r0, #2
  98              	.LVL8:
 512:Core/Src/bootloader.c ****     }
  99              		.loc 1 512 16 view .LVU23
ARM GAS  C:\Users\Ali\AppData\Local\Temp\ccszBmV3.s 			page 12


 100 003c F8E7     		b	.L2
 101              	.L12:
 102 003e 00BF     		.align	2
 103              	.L11:
 104 0040 00C00308 		.word	134463488
 105              		.cfi_endproc
 106              	.LFE138:
 108              		.section	.text.Bootloader_ConfigureCANFilter,"ax",%progbits
 109              		.align	1
 110              		.syntax unified
 111              		.thumb
 112              		.thumb_func
 114              	Bootloader_ConfigureCANFilter:
 115              	.LFB133:
  86:Core/Src/bootloader.c ****     CAN_FilterTypeDef can_filter;
 116              		.loc 1 86 1 is_stmt 1 view -0
 117              		.cfi_startproc
 118              		@ args = 0, pretend = 0, frame = 40
 119              		@ frame_needed = 0, uses_anonymous_args = 0
 120 0000 00B5     		push	{lr}
 121              		.cfi_def_cfa_offset 4
 122              		.cfi_offset 14, -4
 123 0002 8BB0     		sub	sp, sp, #44
 124              		.cfi_def_cfa_offset 48
  87:Core/Src/bootloader.c ****     
 125              		.loc 1 87 5 view .LVU25
  89:Core/Src/bootloader.c ****     can_filter.FilterMode = CAN_FILTERMODE_IDMASK;
 126              		.loc 1 89 5 view .LVU26
  89:Core/Src/bootloader.c ****     can_filter.FilterMode = CAN_FILTERMODE_IDMASK;
 127              		.loc 1 89 27 is_stmt 0 view .LVU27
 128 0004 0023     		movs	r3, #0
 129 0006 0593     		str	r3, [sp, #20]
  90:Core/Src/bootloader.c ****     can_filter.FilterScale = CAN_FILTERSCALE_32BIT;
 130              		.loc 1 90 5 is_stmt 1 view .LVU28
  90:Core/Src/bootloader.c ****     can_filter.FilterScale = CAN_FILTERSCALE_32BIT;
 131              		.loc 1 90 27 is_stmt 0 view .LVU29
 132 0008 0693     		str	r3, [sp, #24]
  91:Core/Src/bootloader.c ****     /* For extended IDs: bits [28:13] in FilterIdHigh, bits [12:0] + IDE in FilterIdLow */
 133              		.loc 1 91 5 is_stmt 1 view .LVU30
  91:Core/Src/bootloader.c ****     /* For extended IDs: bits [28:13] in FilterIdHigh, bits [12:0] + IDE in FilterIdLow */
 134              		.loc 1 91 28 is_stmt 0 view .LVU31
 135 000a 0122     		movs	r2, #1
 136 000c 0792     		str	r2, [sp, #28]
  93:Core/Src/bootloader.c ****     can_filter.FilterIdLow = ((CAN_HOST_ID << 3) & 0xFFF8) | 0x0004;  /* IDE bit set */
 137              		.loc 1 93 5 is_stmt 1 view .LVU32
  93:Core/Src/bootloader.c ****     can_filter.FilterIdLow = ((CAN_HOST_ID << 3) & 0xFFF8) | 0x0004;  /* IDE bit set */
 138              		.loc 1 93 29 is_stmt 0 view .LVU33
 139 000e 4FF44041 		mov	r1, #49152
 140 0012 0091     		str	r1, [sp]
  94:Core/Src/bootloader.c ****     can_filter.FilterMaskIdHigh = 0xFFFF;  /* Match all upper bits */
 141              		.loc 1 94 5 is_stmt 1 view .LVU34
  94:Core/Src/bootloader.c ****     can_filter.FilterMaskIdHigh = 0xFFFF;  /* Match all upper bits */
 142              		.loc 1 94 28 is_stmt 0 view .LVU35
 143 0014 43F60C01 		movw	r1, #14348
 144 0018 0191     		str	r1, [sp, #4]
  95:Core/Src/bootloader.c ****     can_filter.FilterMaskIdLow = 0xFFFC;   /* Match lower bits + IDE */
 145              		.loc 1 95 5 is_stmt 1 view .LVU36
ARM GAS  C:\Users\Ali\AppData\Local\Temp\ccszBmV3.s 			page 13


  95:Core/Src/bootloader.c ****     can_filter.FilterMaskIdLow = 0xFFFC;   /* Match lower bits + IDE */
 146              		.loc 1 95 33 is_stmt 0 view .LVU37
 147 001a 4FF6FF71 		movw	r1, #65535
 148 001e 0291     		str	r1, [sp, #8]
  96:Core/Src/bootloader.c ****     can_filter.FilterFIFOAssignment = CAN_RX_FIFO0;
 149              		.loc 1 96 5 is_stmt 1 view .LVU38
  96:Core/Src/bootloader.c ****     can_filter.FilterFIFOAssignment = CAN_RX_FIFO0;
 150              		.loc 1 96 32 is_stmt 0 view .LVU39
 151 0020 4FF6FC71 		movw	r1, #65532
 152 0024 0391     		str	r1, [sp, #12]
  97:Core/Src/bootloader.c ****     can_filter.FilterActivation = ENABLE;
 153              		.loc 1 97 5 is_stmt 1 view .LVU40
  97:Core/Src/bootloader.c ****     can_filter.FilterActivation = ENABLE;
 154              		.loc 1 97 37 is_stmt 0 view .LVU41
 155 0026 0493     		str	r3, [sp, #16]
  98:Core/Src/bootloader.c ****     can_filter.SlaveStartFilterBank = 14;
 156              		.loc 1 98 5 is_stmt 1 view .LVU42
  98:Core/Src/bootloader.c ****     can_filter.SlaveStartFilterBank = 14;
 157              		.loc 1 98 33 is_stmt 0 view .LVU43
 158 0028 0892     		str	r2, [sp, #32]
  99:Core/Src/bootloader.c ****     
 159              		.loc 1 99 5 is_stmt 1 view .LVU44
  99:Core/Src/bootloader.c ****     
 160              		.loc 1 99 37 is_stmt 0 view .LVU45
 161 002a 0E23     		movs	r3, #14
 162 002c 0993     		str	r3, [sp, #36]
 101:Core/Src/bootloader.c ****     {
 163              		.loc 1 101 5 is_stmt 1 view .LVU46
 101:Core/Src/bootloader.c ****     {
 164              		.loc 1 101 9 is_stmt 0 view .LVU47
 165 002e 6946     		mov	r1, sp
 166 0030 054B     		ldr	r3, .L17
 167 0032 1868     		ldr	r0, [r3]
 168 0034 FFF7FEFF 		bl	HAL_CAN_ConfigFilter
 169              	.LVL9:
 101:Core/Src/bootloader.c ****     {
 170              		.loc 1 101 8 discriminator 1 view .LVU48
 171 0038 10B9     		cbnz	r0, .L16
 172              	.L13:
 105:Core/Src/bootloader.c **** 
 173              		.loc 1 105 1 view .LVU49
 174 003a 0BB0     		add	sp, sp, #44
 175              		.cfi_remember_state
 176              		.cfi_def_cfa_offset 4
 177              		@ sp needed
 178 003c 5DF804FB 		ldr	pc, [sp], #4
 179              	.L16:
 180              		.cfi_restore_state
 103:Core/Src/bootloader.c ****     }
 181              		.loc 1 103 9 is_stmt 1 view .LVU50
 182 0040 FFF7FEFF 		bl	Error_Handler
 183              	.LVL10:
 105:Core/Src/bootloader.c **** 
 184              		.loc 1 105 1 is_stmt 0 view .LVU51
 185 0044 F9E7     		b	.L13
 186              	.L18:
 187 0046 00BF     		.align	2
ARM GAS  C:\Users\Ali\AppData\Local\Temp\ccszBmV3.s 			page 14


 188              	.L17:
 189 0048 00000000 		.word	hcan_bootloader
 190              		.cfi_endproc
 191              	.LFE133:
 193              		.section	.text.Bootloader_WaitForCANTransmission,"ax",%progbits
 194              		.align	1
 195              		.syntax unified
 196              		.thumb
 197              		.thumb_func
 199              	Bootloader_WaitForCANTransmission:
 200              	.LFB141:
 523:Core/Src/bootloader.c **** 
 524:Core/Src/bootloader.c **** /**
 525:Core/Src/bootloader.c ****   * @brief  Check if valid application exists
 526:Core/Src/bootloader.c ****   * @retval 1 if valid application, 0 otherwise
 527:Core/Src/bootloader.c ****   */
 528:Core/Src/bootloader.c **** uint8_t Bootloader_CheckValidApplication(void)
 529:Core/Src/bootloader.c **** {
 530:Core/Src/bootloader.c ****     uint32_t stack_pointer = *(__IO uint32_t *)APPLICATION_ADDRESS;
 531:Core/Src/bootloader.c ****     uint32_t reset_handler = *(__IO uint32_t *)(APPLICATION_ADDRESS + 4);
 532:Core/Src/bootloader.c ****     
 533:Core/Src/bootloader.c ****     /* Check if stack pointer is in valid RAM range */
 534:Core/Src/bootloader.c ****     if ((stack_pointer & 0xFFF00000) != 0x20000000)
 535:Core/Src/bootloader.c ****     {
 536:Core/Src/bootloader.c ****         return 0;
 537:Core/Src/bootloader.c ****     }
 538:Core/Src/bootloader.c ****     
 539:Core/Src/bootloader.c ****     /* Check if reset handler is in valid flash range (odd address for Thumb) */
 540:Core/Src/bootloader.c ****     if ((reset_handler & 0xFF000000) != 0x08000000 || (reset_handler & 0x01) == 0)
 541:Core/Src/bootloader.c ****     {
 542:Core/Src/bootloader.c ****         return 0;
 543:Core/Src/bootloader.c ****     }
 544:Core/Src/bootloader.c ****     
 545:Core/Src/bootloader.c ****     return 1;
 546:Core/Src/bootloader.c **** }
 547:Core/Src/bootloader.c **** 
 548:Core/Src/bootloader.c **** /**
 549:Core/Src/bootloader.c ****   * @brief  De-initialize peripherals before jumping to application
 550:Core/Src/bootloader.c ****   * @retval None
 551:Core/Src/bootloader.c ****   */
 552:Core/Src/bootloader.c **** static void Bootloader_DeInit(void)
 553:Core/Src/bootloader.c **** {
 554:Core/Src/bootloader.c ****     /* Disable CAN */
 555:Core/Src/bootloader.c ****     HAL_CAN_DeactivateNotification(hcan_bootloader, CAN_IT_RX_FIFO0_MSG_PENDING);
 556:Core/Src/bootloader.c ****     HAL_CAN_Stop(hcan_bootloader);
 557:Core/Src/bootloader.c ****     HAL_CAN_MspDeInit(hcan_bootloader);
 558:Core/Src/bootloader.c ****     
 559:Core/Src/bootloader.c ****     /* Disable SysTick */
 560:Core/Src/bootloader.c ****     SysTick->CTRL = 0;
 561:Core/Src/bootloader.c ****     SysTick->LOAD = 0;
 562:Core/Src/bootloader.c ****     SysTick->VAL = 0;
 563:Core/Src/bootloader.c ****     
 564:Core/Src/bootloader.c ****     /* Disable all interrupts */
 565:Core/Src/bootloader.c ****     __disable_irq();
 566:Core/Src/bootloader.c ****     
 567:Core/Src/bootloader.c ****     /* Disable all peripheral clocks */
 568:Core/Src/bootloader.c ****     __HAL_RCC_GPIOA_CLK_DISABLE();
ARM GAS  C:\Users\Ali\AppData\Local\Temp\ccszBmV3.s 			page 15


 569:Core/Src/bootloader.c ****     __HAL_RCC_CAN1_CLK_DISABLE();
 570:Core/Src/bootloader.c **** }
 571:Core/Src/bootloader.c **** 
 572:Core/Src/bootloader.c **** /**
 573:Core/Src/bootloader.c ****   * @brief  Wait for all CAN transmissions to complete
 574:Core/Src/bootloader.c ****   * @retval None
 575:Core/Src/bootloader.c ****   */
 576:Core/Src/bootloader.c **** static void Bootloader_WaitForCANTransmission(void)
 577:Core/Src/bootloader.c **** {
 201              		.loc 1 577 1 is_stmt 1 view -0
 202              		.cfi_startproc
 203              		@ args = 0, pretend = 0, frame = 0
 204              		@ frame_needed = 0, uses_anonymous_args = 0
 205 0000 10B5     		push	{r4, lr}
 206              		.cfi_def_cfa_offset 8
 207              		.cfi_offset 4, -8
 208              		.cfi_offset 14, -4
 578:Core/Src/bootloader.c ****     uint32_t timeout = 0;
 209              		.loc 1 578 5 view .LVU53
 210              	.LVL11:
 579:Core/Src/bootloader.c ****     
 580:Core/Src/bootloader.c ****     /* Wait until all 3 TX mailboxes are free (all transmissions complete) */
 581:Core/Src/bootloader.c ****     while (HAL_CAN_GetTxMailboxesFreeLevel(hcan_bootloader) != 3 && timeout < 1000000)
 211              		.loc 1 581 5 view .LVU54
 578:Core/Src/bootloader.c ****     uint32_t timeout = 0;
 212              		.loc 1 578 14 is_stmt 0 view .LVU55
 213 0002 0024     		movs	r4, #0
 214              	.LVL12:
 215              	.L20:
 216              		.loc 1 581 66 is_stmt 1 view .LVU56
 217              		.loc 1 581 12 is_stmt 0 view .LVU57
 218 0004 074B     		ldr	r3, .L24
 219 0006 1868     		ldr	r0, [r3]
 220 0008 FFF7FEFF 		bl	HAL_CAN_GetTxMailboxesFreeLevel
 221              	.LVL13:
 222              		.loc 1 581 66 discriminator 1 view .LVU58
 223 000c 0328     		cmp	r0, #3
 224 000e 04D0     		beq	.L21
 225 0010 054B     		ldr	r3, .L24+4
 226 0012 9C42     		cmp	r4, r3
 227 0014 01D8     		bhi	.L21
 582:Core/Src/bootloader.c ****     {
 583:Core/Src/bootloader.c ****         timeout++;
 228              		.loc 1 583 9 is_stmt 1 view .LVU59
 229              		.loc 1 583 16 is_stmt 0 view .LVU60
 230 0016 0134     		adds	r4, r4, #1
 231              	.LVL14:
 232              		.loc 1 583 16 view .LVU61
 233 0018 F4E7     		b	.L20
 234              	.LVL15:
 235              	.L21:
 584:Core/Src/bootloader.c ****     }
 585:Core/Src/bootloader.c ****     
 586:Core/Src/bootloader.c ****     /* Additional delay to ensure message physically leaves the CAN controller */
 587:Core/Src/bootloader.c ****     HAL_Delay(10);
 236              		.loc 1 587 5 is_stmt 1 view .LVU62
 237 001a 0A20     		movs	r0, #10
ARM GAS  C:\Users\Ali\AppData\Local\Temp\ccszBmV3.s 			page 16


 238 001c FFF7FEFF 		bl	HAL_Delay
 239              	.LVL16:
 588:Core/Src/bootloader.c **** }
 240              		.loc 1 588 1 is_stmt 0 view .LVU63
 241 0020 10BD     		pop	{r4, pc}
 242              	.LVL17:
 243              	.L25:
 244              		.loc 1 588 1 view .LVU64
 245 0022 00BF     		.align	2
 246              	.L24:
 247 0024 00000000 		.word	hcan_bootloader
 248 0028 3F420F00 		.word	999999
 249              		.cfi_endproc
 250              	.LFE141:
 252              		.section	.text.Bootloader_EraseApplicationFlash,"ax",%progbits
 253              		.align	1
 254              		.syntax unified
 255              		.thumb
 256              		.thumb_func
 258              	Bootloader_EraseApplicationFlash:
 259              	.LFB136:
 380:Core/Src/bootloader.c ****     FLASH_EraseInitTypeDef erase_init;
 260              		.loc 1 380 1 is_stmt 1 view -0
 261              		.cfi_startproc
 262              		@ args = 0, pretend = 0, frame = 24
 263              		@ frame_needed = 0, uses_anonymous_args = 0
 264 0000 10B5     		push	{r4, lr}
 265              		.cfi_def_cfa_offset 8
 266              		.cfi_offset 4, -8
 267              		.cfi_offset 14, -4
 268 0002 86B0     		sub	sp, sp, #24
 269              		.cfi_def_cfa_offset 32
 381:Core/Src/bootloader.c ****     uint32_t page_error;
 270              		.loc 1 381 5 view .LVU66
 382:Core/Src/bootloader.c ****     HAL_StatusTypeDef status;
 271              		.loc 1 382 5 view .LVU67
 383:Core/Src/bootloader.c ****     
 272              		.loc 1 383 5 view .LVU68
 386:Core/Src/bootloader.c ****     uint32_t num_pages = APPLICATION_SIZE / FLASH_PAGE_SIZE;
 273              		.loc 1 386 5 view .LVU69
 274              	.LVL18:
 387:Core/Src/bootloader.c ****     
 275              		.loc 1 387 5 view .LVU70
 390:Core/Src/bootloader.c ****     
 276              		.loc 1 390 5 view .LVU71
 277 0004 FFF7FEFF 		bl	HAL_FLASH_Unlock
 278              	.LVL19:
 393:Core/Src/bootloader.c ****     
 279              		.loc 1 393 5 view .LVU72
 393:Core/Src/bootloader.c ****     
 280              		.loc 1 393 5 view .LVU73
 393:Core/Src/bootloader.c ****     
 281              		.loc 1 393 5 discriminator 1 view .LVU74
 282 0008 104B     		ldr	r3, .L31
 283 000a 9A69     		ldr	r2, [r3, #24]
 284 000c 42F04042 		orr	r2, r2, #-1073741824
 285 0010 9A61     		str	r2, [r3, #24]
ARM GAS  C:\Users\Ali\AppData\Local\Temp\ccszBmV3.s 			page 17


 393:Core/Src/bootloader.c ****     
 286              		.loc 1 393 5 discriminator 3 view .LVU75
 393:Core/Src/bootloader.c ****     
 287              		.loc 1 393 5 discriminator 4 view .LVU76
 288 0012 4CF2FA32 		movw	r2, #50170
 289 0016 1A61     		str	r2, [r3, #16]
 393:Core/Src/bootloader.c ****     
 290              		.loc 1 393 5 discriminator 6 view .LVU77
 396:Core/Src/bootloader.c ****     erase_init.Banks = FLASH_BANK_1;
 291              		.loc 1 396 5 view .LVU78
 396:Core/Src/bootloader.c ****     erase_init.Banks = FLASH_BANK_1;
 292              		.loc 1 396 26 is_stmt 0 view .LVU79
 293 0018 0023     		movs	r3, #0
 294 001a 0293     		str	r3, [sp, #8]
 397:Core/Src/bootloader.c ****     erase_init.Page = first_page;
 295              		.loc 1 397 5 is_stmt 1 view .LVU80
 397:Core/Src/bootloader.c ****     erase_init.Page = first_page;
 296              		.loc 1 397 22 is_stmt 0 view .LVU81
 297 001c 0123     		movs	r3, #1
 298 001e 0393     		str	r3, [sp, #12]
 398:Core/Src/bootloader.c ****     erase_init.NbPages = num_pages;
 299              		.loc 1 398 5 is_stmt 1 view .LVU82
 398:Core/Src/bootloader.c ****     erase_init.NbPages = num_pages;
 300              		.loc 1 398 21 is_stmt 0 view .LVU83
 301 0020 1023     		movs	r3, #16
 302 0022 0493     		str	r3, [sp, #16]
 399:Core/Src/bootloader.c ****     
 303              		.loc 1 399 5 is_stmt 1 view .LVU84
 399:Core/Src/bootloader.c ****     
 304              		.loc 1 399 24 is_stmt 0 view .LVU85
 305 0024 6823     		movs	r3, #104
 306 0026 0593     		str	r3, [sp, #20]
 402:Core/Src/bootloader.c ****     
 307              		.loc 1 402 5 is_stmt 1 view .LVU86
 402:Core/Src/bootloader.c ****     
 308              		.loc 1 402 14 is_stmt 0 view .LVU87
 309 0028 01A9     		add	r1, sp, #4
 310 002a 02A8     		add	r0, sp, #8
 311 002c FFF7FEFF 		bl	HAL_FLASHEx_Erase
 312              	.LVL20:
 313 0030 0446     		mov	r4, r0
 314              	.LVL21:
 405:Core/Src/bootloader.c ****     
 315              		.loc 1 405 5 is_stmt 1 view .LVU88
 316 0032 FFF7FEFF 		bl	HAL_FLASH_Lock
 317              	.LVL22:
 407:Core/Src/bootloader.c ****     {
 318              		.loc 1 407 5 view .LVU89
 407:Core/Src/bootloader.c ****     {
 319              		.loc 1 407 8 is_stmt 0 view .LVU90
 320 0036 2CB9     		cbnz	r4, .L30
 413:Core/Src/bootloader.c ****     return ERR_NONE;
 321              		.loc 1 413 5 is_stmt 1 view .LVU91
 413:Core/Src/bootloader.c ****     return ERR_NONE;
 322              		.loc 1 413 34 is_stmt 0 view .LVU92
 323 0038 054B     		ldr	r3, .L31+4
 324 003a 0022     		movs	r2, #0
ARM GAS  C:\Users\Ali\AppData\Local\Temp\ccszBmV3.s 			page 18


 325 003c 1A74     		strb	r2, [r3, #16]
 414:Core/Src/bootloader.c **** }
 326              		.loc 1 414 5 is_stmt 1 view .LVU93
 327              	.LVL23:
 328              	.L28:
 415:Core/Src/bootloader.c **** 
 329              		.loc 1 415 1 is_stmt 0 view .LVU94
 330 003e 2046     		mov	r0, r4
 331 0040 06B0     		add	sp, sp, #24
 332              		.cfi_remember_state
 333              		.cfi_def_cfa_offset 8
 334              		@ sp needed
 335 0042 10BD     		pop	{r4, pc}
 336              	.LVL24:
 337              	.L30:
 338              		.cfi_restore_state
 409:Core/Src/bootloader.c ****         return ERR_FLASH_ERASE_FAILED;
 339              		.loc 1 409 9 is_stmt 1 view .LVU95
 409:Core/Src/bootloader.c ****         return ERR_FLASH_ERASE_FAILED;
 340              		.loc 1 409 38 is_stmt 0 view .LVU96
 341 0044 0324     		movs	r4, #3
 342              	.LVL25:
 409:Core/Src/bootloader.c ****         return ERR_FLASH_ERASE_FAILED;
 343              		.loc 1 409 38 view .LVU97
 344 0046 024B     		ldr	r3, .L31+4
 345 0048 1C74     		strb	r4, [r3, #16]
 410:Core/Src/bootloader.c ****     }
 346              		.loc 1 410 9 is_stmt 1 view .LVU98
 410:Core/Src/bootloader.c ****     }
 347              		.loc 1 410 16 is_stmt 0 view .LVU99
 348 004a F8E7     		b	.L28
 349              	.L32:
 350              		.align	2
 351              	.L31:
 352 004c 00200240 		.word	1073881088
 353 0050 00000000 		.word	bootloader_status
 354              		.cfi_endproc
 355              	.LFE136:
 357              		.section	.text.Bootloader_WriteFlash,"ax",%progbits
 358              		.align	1
 359              		.syntax unified
 360              		.thumb
 361              		.thumb_func
 363              	Bootloader_WriteFlash:
 364              	.LVL26:
 365              	.LFB137:
 425:Core/Src/bootloader.c ****     HAL_StatusTypeDef status = HAL_OK;
 366              		.loc 1 425 1 is_stmt 1 view -0
 367              		.cfi_startproc
 368              		@ args = 0, pretend = 0, frame = 0
 369              		@ frame_needed = 0, uses_anonymous_args = 0
 425:Core/Src/bootloader.c ****     HAL_StatusTypeDef status = HAL_OK;
 370              		.loc 1 425 1 is_stmt 0 view .LVU101
 371 0000 2DE9F041 		push	{r4, r5, r6, r7, r8, lr}
 372              		.cfi_def_cfa_offset 24
 373              		.cfi_offset 4, -24
 374              		.cfi_offset 5, -20
ARM GAS  C:\Users\Ali\AppData\Local\Temp\ccszBmV3.s 			page 19


 375              		.cfi_offset 6, -16
 376              		.cfi_offset 7, -12
 377              		.cfi_offset 8, -8
 378              		.cfi_offset 14, -4
 426:Core/Src/bootloader.c ****     uint32_t i;
 379              		.loc 1 426 5 is_stmt 1 view .LVU102
 380              	.LVL27:
 427:Core/Src/bootloader.c ****     uint64_t data64;
 381              		.loc 1 427 5 view .LVU103
 428:Core/Src/bootloader.c **** 
 382              		.loc 1 428 5 view .LVU104
 431:Core/Src/bootloader.c ****     {
 383              		.loc 1 431 5 view .LVU105
 431:Core/Src/bootloader.c ****     {
 384              		.loc 1 431 39 is_stmt 0 view .LVU106
 385 0004 00F17843 		add	r3, r0, #-134217728
 386 0008 A3F50043 		sub	r3, r3, #32768
 431:Core/Src/bootloader.c ****     {
 387              		.loc 1 431 8 view .LVU107
 388 000c B3F5503F 		cmp	r3, #212992
 389 0010 3DD2     		bcs	.L43
 390 0012 0646     		mov	r6, r0
 391 0014 0D46     		mov	r5, r1
 392 0016 1746     		mov	r7, r2
 438:Core/Src/bootloader.c ****     {
 393              		.loc 1 438 5 is_stmt 1 view .LVU108
 438:Core/Src/bootloader.c ****     {
 394              		.loc 1 438 18 is_stmt 0 view .LVU109
 395 0018 1318     		adds	r3, r2, r0
 438:Core/Src/bootloader.c ****     {
 396              		.loc 1 438 27 view .LVU110
 397 001a 013B     		subs	r3, r3, #1
 438:Core/Src/bootloader.c ****     {
 398              		.loc 1 438 8 view .LVU111
 399 001c 2D4A     		ldr	r2, .L47
 400              	.LVL28:
 438:Core/Src/bootloader.c ****     {
 401              		.loc 1 438 8 view .LVU112
 402 001e 9342     		cmp	r3, r2
 403 0020 3BD2     		bcs	.L44
 445:Core/Src/bootloader.c ****     {
 404              		.loc 1 445 5 is_stmt 1 view .LVU113
 445:Core/Src/bootloader.c ****     {
 405              		.loc 1 445 8 is_stmt 0 view .LVU114
 406 0022 17F0070F 		tst	r7, #7
 407 0026 3ED1     		bne	.L45
 452:Core/Src/bootloader.c ****     
 408              		.loc 1 452 5 is_stmt 1 view .LVU115
 409 0028 FFF7FEFF 		bl	HAL_FLASH_Unlock
 410              	.LVL29:
 455:Core/Src/bootloader.c ****     
 411              		.loc 1 455 5 view .LVU116
 455:Core/Src/bootloader.c ****     
 412              		.loc 1 455 5 view .LVU117
 455:Core/Src/bootloader.c ****     
 413              		.loc 1 455 5 discriminator 1 view .LVU118
 414 002c 2A4B     		ldr	r3, .L47+4
ARM GAS  C:\Users\Ali\AppData\Local\Temp\ccszBmV3.s 			page 20


 415 002e 9A69     		ldr	r2, [r3, #24]
 416 0030 42F04042 		orr	r2, r2, #-1073741824
 417 0034 9A61     		str	r2, [r3, #24]
 455:Core/Src/bootloader.c ****     
 418              		.loc 1 455 5 discriminator 3 view .LVU119
 455:Core/Src/bootloader.c ****     
 419              		.loc 1 455 5 discriminator 4 view .LVU120
 420 0036 4CF2FA32 		movw	r2, #50170
 421 003a 1A61     		str	r2, [r3, #16]
 455:Core/Src/bootloader.c ****     
 422              		.loc 1 455 5 discriminator 6 view .LVU121
 458:Core/Src/bootloader.c ****     {
 423              		.loc 1 458 5 view .LVU122
 424              	.LVL30:
 458:Core/Src/bootloader.c ****     {
 425              		.loc 1 458 12 is_stmt 0 view .LVU123
 426 003c 0024     		movs	r4, #0
 426:Core/Src/bootloader.c ****     uint32_t i;
 427              		.loc 1 426 23 view .LVU124
 428 003e A046     		mov	r8, r4
 429              	.LVL31:
 430              	.L38:
 458:Core/Src/bootloader.c ****     {
 431              		.loc 1 458 19 is_stmt 1 discriminator 1 view .LVU125
 432 0040 A742     		cmp	r7, r4
 433 0042 36D9     		bls	.L39
 461:Core/Src/bootloader.c ****                  ((uint64_t)data[i + 1] << 8)  |
 434              		.loc 1 461 9 view .LVU126
 461:Core/Src/bootloader.c ****                  ((uint64_t)data[i + 1] << 8)  |
 435              		.loc 1 461 33 is_stmt 0 view .LVU127
 436 0044 2A5D     		ldrb	r2, [r5, r4]	@ zero_extendqisi2
 462:Core/Src/bootloader.c ****                  ((uint64_t)data[i + 2] << 16) |
 437              		.loc 1 462 33 view .LVU128
 438 0046 05EB040C 		add	ip, r5, r4
 439 004a 9CF80130 		ldrb	r3, [ip, #1]	@ zero_extendqisi2
 461:Core/Src/bootloader.c ****                  ((uint64_t)data[i + 1] << 8)  |
 440              		.loc 1 461 48 view .LVU129
 441 004e 42EA0322 		orr	r2, r2, r3, lsl #8
 463:Core/Src/bootloader.c ****                  ((uint64_t)data[i + 3] << 24) |
 442              		.loc 1 463 33 view .LVU130
 443 0052 9CF80230 		ldrb	r3, [ip, #2]	@ zero_extendqisi2
 462:Core/Src/bootloader.c ****                  ((uint64_t)data[i + 2] << 16) |
 444              		.loc 1 462 48 view .LVU131
 445 0056 42EA0342 		orr	r2, r2, r3, lsl #16
 464:Core/Src/bootloader.c ****                  ((uint64_t)data[i + 4] << 32) |
 446              		.loc 1 464 33 view .LVU132
 447 005a 9CF80300 		ldrb	r0, [ip, #3]	@ zero_extendqisi2
 464:Core/Src/bootloader.c ****                  ((uint64_t)data[i + 4] << 32) |
 448              		.loc 1 464 48 view .LVU133
 449 005e 9CF80430 		ldrb	r3, [ip, #4]	@ zero_extendqisi2
 466:Core/Src/bootloader.c ****                  ((uint64_t)data[i + 6] << 48) |
 450              		.loc 1 466 33 view .LVU134
 451 0062 9CF80510 		ldrb	r1, [ip, #5]	@ zero_extendqisi2
 465:Core/Src/bootloader.c ****                  ((uint64_t)data[i + 5] << 40) |
 452              		.loc 1 465 48 view .LVU135
 453 0066 43EA0123 		orr	r3, r3, r1, lsl #8
 467:Core/Src/bootloader.c ****                  ((uint64_t)data[i + 7] << 56);
ARM GAS  C:\Users\Ali\AppData\Local\Temp\ccszBmV3.s 			page 21


 454              		.loc 1 467 33 view .LVU136
 455 006a 9CF80610 		ldrb	r1, [ip, #6]	@ zero_extendqisi2
 466:Core/Src/bootloader.c ****                  ((uint64_t)data[i + 6] << 48) |
 456              		.loc 1 466 48 view .LVU137
 457 006e 43EA0143 		orr	r3, r3, r1, lsl #16
 468:Core/Src/bootloader.c ****         
 458              		.loc 1 468 33 view .LVU138
 459 0072 9CF80710 		ldrb	r1, [ip, #7]	@ zero_extendqisi2
 460              	.LVL32:
 470:Core/Src/bootloader.c ****         
 461              		.loc 1 470 9 is_stmt 1 view .LVU139
 470:Core/Src/bootloader.c ****         
 462              		.loc 1 470 18 is_stmt 0 view .LVU140
 463 0076 42EA0062 		orr	r2, r2, r0, lsl #24
 464              	.LVL33:
 470:Core/Src/bootloader.c ****         
 465              		.loc 1 470 18 view .LVU141
 466 007a 43EA0163 		orr	r3, r3, r1, lsl #24
 467              	.LVL34:
 470:Core/Src/bootloader.c ****         
 468              		.loc 1 470 18 view .LVU142
 469 007e A119     		adds	r1, r4, r6
 470 0080 0020     		movs	r0, #0
 471 0082 FFF7FEFF 		bl	HAL_FLASH_Program
 472              	.LVL35:
 472:Core/Src/bootloader.c ****         {
 473              		.loc 1 472 9 is_stmt 1 view .LVU143
 472:Core/Src/bootloader.c ****         {
 474              		.loc 1 472 12 is_stmt 0 view .LVU144
 475 0086 8046     		mov	r8, r0
 476 0088 98B9     		cbnz	r0, .L39
 458:Core/Src/bootloader.c ****     {
 477              		.loc 1 458 31 is_stmt 1 discriminator 2 view .LVU145
 478 008a 0834     		adds	r4, r4, #8
 479              	.LVL36:
 458:Core/Src/bootloader.c ****     {
 480              		.loc 1 458 31 is_stmt 0 discriminator 2 view .LVU146
 481 008c D8E7     		b	.L38
 482              	.LVL37:
 483              	.L43:
 433:Core/Src/bootloader.c ****         return ERR_INVALID_ADDRESS;
 484              		.loc 1 433 9 is_stmt 1 view .LVU147
 433:Core/Src/bootloader.c ****         return ERR_INVALID_ADDRESS;
 485              		.loc 1 433 38 is_stmt 0 view .LVU148
 486 008e 4FF00208 		mov	r8, #2
 487 0092 124B     		ldr	r3, .L47+8
 488 0094 83F81080 		strb	r8, [r3, #16]
 434:Core/Src/bootloader.c ****     }
 489              		.loc 1 434 9 is_stmt 1 view .LVU149
 434:Core/Src/bootloader.c ****     }
 490              		.loc 1 434 16 is_stmt 0 view .LVU150
 491 0098 13E0     		b	.L35
 492              	.LVL38:
 493              	.L44:
 440:Core/Src/bootloader.c ****         return ERR_INVALID_ADDRESS;
 494              		.loc 1 440 9 is_stmt 1 view .LVU151
 440:Core/Src/bootloader.c ****         return ERR_INVALID_ADDRESS;
ARM GAS  C:\Users\Ali\AppData\Local\Temp\ccszBmV3.s 			page 22


 495              		.loc 1 440 38 is_stmt 0 view .LVU152
 496 009a 4FF00208 		mov	r8, #2
 497 009e 0F4B     		ldr	r3, .L47+8
 498 00a0 83F81080 		strb	r8, [r3, #16]
 441:Core/Src/bootloader.c ****     }
 499              		.loc 1 441 9 is_stmt 1 view .LVU153
 441:Core/Src/bootloader.c ****     }
 500              		.loc 1 441 16 is_stmt 0 view .LVU154
 501 00a4 0DE0     		b	.L35
 502              	.L45:
 447:Core/Src/bootloader.c ****         return ERR_INVALID_DATA_LENGTH;
 503              		.loc 1 447 9 is_stmt 1 view .LVU155
 447:Core/Src/bootloader.c ****         return ERR_INVALID_DATA_LENGTH;
 504              		.loc 1 447 38 is_stmt 0 view .LVU156
 505 00a6 4FF00508 		mov	r8, #5
 506 00aa 0C4B     		ldr	r3, .L47+8
 507 00ac 83F81080 		strb	r8, [r3, #16]
 448:Core/Src/bootloader.c ****     }
 508              		.loc 1 448 9 is_stmt 1 view .LVU157
 448:Core/Src/bootloader.c ****     }
 509              		.loc 1 448 16 is_stmt 0 view .LVU158
 510 00b0 07E0     		b	.L35
 511              	.LVL39:
 512              	.L39:
 479:Core/Src/bootloader.c ****     
 513              		.loc 1 479 5 is_stmt 1 view .LVU159
 514 00b2 FFF7FEFF 		bl	HAL_FLASH_Lock
 515              	.LVL40:
 481:Core/Src/bootloader.c ****     {
 516              		.loc 1 481 5 view .LVU160
 481:Core/Src/bootloader.c ****     {
 517              		.loc 1 481 8 is_stmt 0 view .LVU161
 518 00b6 B8F1000F 		cmp	r8, #0
 519 00ba 05D1     		bne	.L46
 487:Core/Src/bootloader.c ****     return ERR_NONE;
 520              		.loc 1 487 5 is_stmt 1 view .LVU162
 487:Core/Src/bootloader.c ****     return ERR_NONE;
 521              		.loc 1 487 34 is_stmt 0 view .LVU163
 522 00bc 074B     		ldr	r3, .L47+8
 523 00be 0022     		movs	r2, #0
 524 00c0 1A74     		strb	r2, [r3, #16]
 488:Core/Src/bootloader.c **** }
 525              		.loc 1 488 5 is_stmt 1 view .LVU164
 526              	.LVL41:
 527              	.L35:
 489:Core/Src/bootloader.c **** 
 528              		.loc 1 489 1 is_stmt 0 view .LVU165
 529 00c2 4046     		mov	r0, r8
 530 00c4 BDE8F081 		pop	{r4, r5, r6, r7, r8, pc}
 531              	.LVL42:
 532              	.L46:
 483:Core/Src/bootloader.c ****         return ERR_FLASH_WRITE_FAILED;
 533              		.loc 1 483 9 is_stmt 1 view .LVU166
 483:Core/Src/bootloader.c ****         return ERR_FLASH_WRITE_FAILED;
 534              		.loc 1 483 38 is_stmt 0 view .LVU167
 535 00c8 4FF00408 		mov	r8, #4
 536              	.LVL43:
ARM GAS  C:\Users\Ali\AppData\Local\Temp\ccszBmV3.s 			page 23


 483:Core/Src/bootloader.c ****         return ERR_FLASH_WRITE_FAILED;
 537              		.loc 1 483 38 view .LVU168
 538 00cc 034B     		ldr	r3, .L47+8
 539 00ce 83F81080 		strb	r8, [r3, #16]
 484:Core/Src/bootloader.c ****     }
 540              		.loc 1 484 9 is_stmt 1 view .LVU169
 484:Core/Src/bootloader.c ****     }
 541              		.loc 1 484 16 is_stmt 0 view .LVU170
 542 00d2 F6E7     		b	.L35
 543              	.L48:
 544              		.align	2
 545              	.L47:
 546 00d4 00C00308 		.word	134463488
 547 00d8 00200240 		.word	1073881088
 548 00dc 00000000 		.word	bootloader_status
 549              		.cfi_endproc
 550              	.LFE137:
 552              		.section	.text.Bootloader_DeInit,"ax",%progbits
 553              		.align	1
 554              		.syntax unified
 555              		.thumb
 556              		.thumb_func
 558              	Bootloader_DeInit:
 559              	.LFB140:
 553:Core/Src/bootloader.c ****     /* Disable CAN */
 560              		.loc 1 553 1 is_stmt 1 view -0
 561              		.cfi_startproc
 562              		@ args = 0, pretend = 0, frame = 0
 563              		@ frame_needed = 0, uses_anonymous_args = 0
 564 0000 10B5     		push	{r4, lr}
 565              		.cfi_def_cfa_offset 8
 566              		.cfi_offset 4, -8
 567              		.cfi_offset 14, -4
 555:Core/Src/bootloader.c ****     HAL_CAN_Stop(hcan_bootloader);
 568              		.loc 1 555 5 view .LVU172
 569 0002 0F4C     		ldr	r4, .L51
 570 0004 0221     		movs	r1, #2
 571 0006 2068     		ldr	r0, [r4]
 572 0008 FFF7FEFF 		bl	HAL_CAN_DeactivateNotification
 573              	.LVL44:
 556:Core/Src/bootloader.c ****     HAL_CAN_MspDeInit(hcan_bootloader);
 574              		.loc 1 556 5 view .LVU173
 575 000c 2068     		ldr	r0, [r4]
 576 000e FFF7FEFF 		bl	HAL_CAN_Stop
 577              	.LVL45:
 557:Core/Src/bootloader.c ****     
 578              		.loc 1 557 5 view .LVU174
 579 0012 2068     		ldr	r0, [r4]
 580 0014 FFF7FEFF 		bl	HAL_CAN_MspDeInit
 581              	.LVL46:
 560:Core/Src/bootloader.c ****     SysTick->LOAD = 0;
 582              		.loc 1 560 5 view .LVU175
 560:Core/Src/bootloader.c ****     SysTick->LOAD = 0;
 583              		.loc 1 560 19 is_stmt 0 view .LVU176
 584 0018 4FF0E023 		mov	r3, #-536813568
 585 001c 0022     		movs	r2, #0
 586 001e 1A61     		str	r2, [r3, #16]
ARM GAS  C:\Users\Ali\AppData\Local\Temp\ccszBmV3.s 			page 24


 561:Core/Src/bootloader.c ****     SysTick->VAL = 0;
 587              		.loc 1 561 5 is_stmt 1 view .LVU177
 561:Core/Src/bootloader.c ****     SysTick->VAL = 0;
 588              		.loc 1 561 19 is_stmt 0 view .LVU178
 589 0020 5A61     		str	r2, [r3, #20]
 562:Core/Src/bootloader.c ****     
 590              		.loc 1 562 5 is_stmt 1 view .LVU179
 562:Core/Src/bootloader.c ****     
 591              		.loc 1 562 18 is_stmt 0 view .LVU180
 592 0022 9A61     		str	r2, [r3, #24]
 565:Core/Src/bootloader.c ****     
 593              		.loc 1 565 5 is_stmt 1 view .LVU181
 594              	.LBB6:
 595              	.LBI6:
 596              		.file 2 "Drivers/CMSIS/Include/cmsis_gcc.h"
   1:Drivers/CMSIS/Include/cmsis_gcc.h **** /**************************************************************************//**
   2:Drivers/CMSIS/Include/cmsis_gcc.h ****  * @file     cmsis_gcc.h
   3:Drivers/CMSIS/Include/cmsis_gcc.h ****  * @brief    CMSIS compiler GCC header file
   4:Drivers/CMSIS/Include/cmsis_gcc.h ****  * @version  V5.2.0
   5:Drivers/CMSIS/Include/cmsis_gcc.h ****  * @date     08. May 2019
   6:Drivers/CMSIS/Include/cmsis_gcc.h ****  ******************************************************************************/
   7:Drivers/CMSIS/Include/cmsis_gcc.h **** /*
   8:Drivers/CMSIS/Include/cmsis_gcc.h ****  * Copyright (c) 2009-2019 Arm Limited. All rights reserved.
   9:Drivers/CMSIS/Include/cmsis_gcc.h ****  *
  10:Drivers/CMSIS/Include/cmsis_gcc.h ****  * SPDX-License-Identifier: Apache-2.0
  11:Drivers/CMSIS/Include/cmsis_gcc.h ****  *
  12:Drivers/CMSIS/Include/cmsis_gcc.h ****  * Licensed under the Apache License, Version 2.0 (the License); you may
  13:Drivers/CMSIS/Include/cmsis_gcc.h ****  * not use this file except in compliance with the License.
  14:Drivers/CMSIS/Include/cmsis_gcc.h ****  * You may obtain a copy of the License at
  15:Drivers/CMSIS/Include/cmsis_gcc.h ****  *
  16:Drivers/CMSIS/Include/cmsis_gcc.h ****  * www.apache.org/licenses/LICENSE-2.0
  17:Drivers/CMSIS/Include/cmsis_gcc.h ****  *
  18:Drivers/CMSIS/Include/cmsis_gcc.h ****  * Unless required by applicable law or agreed to in writing, software
  19:Drivers/CMSIS/Include/cmsis_gcc.h ****  * distributed under the License is distributed on an AS IS BASIS, WITHOUT
  20:Drivers/CMSIS/Include/cmsis_gcc.h ****  * WARRANTIES OR CONDITIONS OF ANY KIND, either express or implied.
  21:Drivers/CMSIS/Include/cmsis_gcc.h ****  * See the License for the specific language governing permissions and
  22:Drivers/CMSIS/Include/cmsis_gcc.h ****  * limitations under the License.
  23:Drivers/CMSIS/Include/cmsis_gcc.h ****  */
  24:Drivers/CMSIS/Include/cmsis_gcc.h **** 
  25:Drivers/CMSIS/Include/cmsis_gcc.h **** #ifndef __CMSIS_GCC_H
  26:Drivers/CMSIS/Include/cmsis_gcc.h **** #define __CMSIS_GCC_H
  27:Drivers/CMSIS/Include/cmsis_gcc.h **** 
  28:Drivers/CMSIS/Include/cmsis_gcc.h **** /* ignore some GCC warnings */
  29:Drivers/CMSIS/Include/cmsis_gcc.h **** #pragma GCC diagnostic push
  30:Drivers/CMSIS/Include/cmsis_gcc.h **** #pragma GCC diagnostic ignored "-Wsign-conversion"
  31:Drivers/CMSIS/Include/cmsis_gcc.h **** #pragma GCC diagnostic ignored "-Wconversion"
  32:Drivers/CMSIS/Include/cmsis_gcc.h **** #pragma GCC diagnostic ignored "-Wunused-parameter"
  33:Drivers/CMSIS/Include/cmsis_gcc.h **** 
  34:Drivers/CMSIS/Include/cmsis_gcc.h **** /* Fallback for __has_builtin */
  35:Drivers/CMSIS/Include/cmsis_gcc.h **** #ifndef __has_builtin
  36:Drivers/CMSIS/Include/cmsis_gcc.h ****   #define __has_builtin(x) (0)
  37:Drivers/CMSIS/Include/cmsis_gcc.h **** #endif
  38:Drivers/CMSIS/Include/cmsis_gcc.h **** 
  39:Drivers/CMSIS/Include/cmsis_gcc.h **** /* CMSIS compiler specific defines */
  40:Drivers/CMSIS/Include/cmsis_gcc.h **** #ifndef   __ASM
  41:Drivers/CMSIS/Include/cmsis_gcc.h ****   #define __ASM                                  __asm
  42:Drivers/CMSIS/Include/cmsis_gcc.h **** #endif
ARM GAS  C:\Users\Ali\AppData\Local\Temp\ccszBmV3.s 			page 25


  43:Drivers/CMSIS/Include/cmsis_gcc.h **** #ifndef   __INLINE
  44:Drivers/CMSIS/Include/cmsis_gcc.h ****   #define __INLINE                               inline
  45:Drivers/CMSIS/Include/cmsis_gcc.h **** #endif
  46:Drivers/CMSIS/Include/cmsis_gcc.h **** #ifndef   __STATIC_INLINE
  47:Drivers/CMSIS/Include/cmsis_gcc.h ****   #define __STATIC_INLINE                        static inline
  48:Drivers/CMSIS/Include/cmsis_gcc.h **** #endif
  49:Drivers/CMSIS/Include/cmsis_gcc.h **** #ifndef   __STATIC_FORCEINLINE                 
  50:Drivers/CMSIS/Include/cmsis_gcc.h ****   #define __STATIC_FORCEINLINE                   __attribute__((always_inline)) static inline
  51:Drivers/CMSIS/Include/cmsis_gcc.h **** #endif                                           
  52:Drivers/CMSIS/Include/cmsis_gcc.h **** #ifndef   __NO_RETURN
  53:Drivers/CMSIS/Include/cmsis_gcc.h ****   #define __NO_RETURN                            __attribute__((__noreturn__))
  54:Drivers/CMSIS/Include/cmsis_gcc.h **** #endif
  55:Drivers/CMSIS/Include/cmsis_gcc.h **** #ifndef   __USED
  56:Drivers/CMSIS/Include/cmsis_gcc.h ****   #define __USED                                 __attribute__((used))
  57:Drivers/CMSIS/Include/cmsis_gcc.h **** #endif
  58:Drivers/CMSIS/Include/cmsis_gcc.h **** #ifndef   __WEAK
  59:Drivers/CMSIS/Include/cmsis_gcc.h ****   #define __WEAK                                 __attribute__((weak))
  60:Drivers/CMSIS/Include/cmsis_gcc.h **** #endif
  61:Drivers/CMSIS/Include/cmsis_gcc.h **** #ifndef   __PACKED
  62:Drivers/CMSIS/Include/cmsis_gcc.h ****   #define __PACKED                               __attribute__((packed, aligned(1)))
  63:Drivers/CMSIS/Include/cmsis_gcc.h **** #endif
  64:Drivers/CMSIS/Include/cmsis_gcc.h **** #ifndef   __PACKED_STRUCT
  65:Drivers/CMSIS/Include/cmsis_gcc.h ****   #define __PACKED_STRUCT                        struct __attribute__((packed, aligned(1)))
  66:Drivers/CMSIS/Include/cmsis_gcc.h **** #endif
  67:Drivers/CMSIS/Include/cmsis_gcc.h **** #ifndef   __PACKED_UNION
  68:Drivers/CMSIS/Include/cmsis_gcc.h ****   #define __PACKED_UNION                         union __attribute__((packed, aligned(1)))
  69:Drivers/CMSIS/Include/cmsis_gcc.h **** #endif
  70:Drivers/CMSIS/Include/cmsis_gcc.h **** #ifndef   __UNALIGNED_UINT32        /* deprecated */
  71:Drivers/CMSIS/Include/cmsis_gcc.h ****   #pragma GCC diagnostic push
  72:Drivers/CMSIS/Include/cmsis_gcc.h ****   #pragma GCC diagnostic ignored "-Wpacked"
  73:Drivers/CMSIS/Include/cmsis_gcc.h ****   #pragma GCC diagnostic ignored "-Wattributes"
  74:Drivers/CMSIS/Include/cmsis_gcc.h ****   struct __attribute__((packed)) T_UINT32 { uint32_t v; };
  75:Drivers/CMSIS/Include/cmsis_gcc.h ****   #pragma GCC diagnostic pop
  76:Drivers/CMSIS/Include/cmsis_gcc.h ****   #define __UNALIGNED_UINT32(x)                  (((struct T_UINT32 *)(x))->v)
  77:Drivers/CMSIS/Include/cmsis_gcc.h **** #endif
  78:Drivers/CMSIS/Include/cmsis_gcc.h **** #ifndef   __UNALIGNED_UINT16_WRITE
  79:Drivers/CMSIS/Include/cmsis_gcc.h ****   #pragma GCC diagnostic push
  80:Drivers/CMSIS/Include/cmsis_gcc.h ****   #pragma GCC diagnostic ignored "-Wpacked"
  81:Drivers/CMSIS/Include/cmsis_gcc.h ****   #pragma GCC diagnostic ignored "-Wattributes"
  82:Drivers/CMSIS/Include/cmsis_gcc.h ****   __PACKED_STRUCT T_UINT16_WRITE { uint16_t v; };
  83:Drivers/CMSIS/Include/cmsis_gcc.h ****   #pragma GCC diagnostic pop
  84:Drivers/CMSIS/Include/cmsis_gcc.h ****   #define __UNALIGNED_UINT16_WRITE(addr, val)    (void)((((struct T_UINT16_WRITE *)(void *)(addr))-
  85:Drivers/CMSIS/Include/cmsis_gcc.h **** #endif
  86:Drivers/CMSIS/Include/cmsis_gcc.h **** #ifndef   __UNALIGNED_UINT16_READ
  87:Drivers/CMSIS/Include/cmsis_gcc.h ****   #pragma GCC diagnostic push
  88:Drivers/CMSIS/Include/cmsis_gcc.h ****   #pragma GCC diagnostic ignored "-Wpacked"
  89:Drivers/CMSIS/Include/cmsis_gcc.h ****   #pragma GCC diagnostic ignored "-Wattributes"
  90:Drivers/CMSIS/Include/cmsis_gcc.h ****   __PACKED_STRUCT T_UINT16_READ { uint16_t v; };
  91:Drivers/CMSIS/Include/cmsis_gcc.h ****   #pragma GCC diagnostic pop
  92:Drivers/CMSIS/Include/cmsis_gcc.h ****   #define __UNALIGNED_UINT16_READ(addr)          (((const struct T_UINT16_READ *)(const void *)(add
  93:Drivers/CMSIS/Include/cmsis_gcc.h **** #endif
  94:Drivers/CMSIS/Include/cmsis_gcc.h **** #ifndef   __UNALIGNED_UINT32_WRITE
  95:Drivers/CMSIS/Include/cmsis_gcc.h ****   #pragma GCC diagnostic push
  96:Drivers/CMSIS/Include/cmsis_gcc.h ****   #pragma GCC diagnostic ignored "-Wpacked"
  97:Drivers/CMSIS/Include/cmsis_gcc.h ****   #pragma GCC diagnostic ignored "-Wattributes"
  98:Drivers/CMSIS/Include/cmsis_gcc.h ****   __PACKED_STRUCT T_UINT32_WRITE { uint32_t v; };
  99:Drivers/CMSIS/Include/cmsis_gcc.h ****   #pragma GCC diagnostic pop
ARM GAS  C:\Users\Ali\AppData\Local\Temp\ccszBmV3.s 			page 26


 100:Drivers/CMSIS/Include/cmsis_gcc.h ****   #define __UNALIGNED_UINT32_WRITE(addr, val)    (void)((((struct T_UINT32_WRITE *)(void *)(addr))-
 101:Drivers/CMSIS/Include/cmsis_gcc.h **** #endif
 102:Drivers/CMSIS/Include/cmsis_gcc.h **** #ifndef   __UNALIGNED_UINT32_READ
 103:Drivers/CMSIS/Include/cmsis_gcc.h ****   #pragma GCC diagnostic push
 104:Drivers/CMSIS/Include/cmsis_gcc.h ****   #pragma GCC diagnostic ignored "-Wpacked"
 105:Drivers/CMSIS/Include/cmsis_gcc.h ****   #pragma GCC diagnostic ignored "-Wattributes"
 106:Drivers/CMSIS/Include/cmsis_gcc.h ****   __PACKED_STRUCT T_UINT32_READ { uint32_t v; };
 107:Drivers/CMSIS/Include/cmsis_gcc.h ****   #pragma GCC diagnostic pop
 108:Drivers/CMSIS/Include/cmsis_gcc.h ****   #define __UNALIGNED_UINT32_READ(addr)          (((const struct T_UINT32_READ *)(const void *)(add
 109:Drivers/CMSIS/Include/cmsis_gcc.h **** #endif
 110:Drivers/CMSIS/Include/cmsis_gcc.h **** #ifndef   __ALIGNED
 111:Drivers/CMSIS/Include/cmsis_gcc.h ****   #define __ALIGNED(x)                           __attribute__((aligned(x)))
 112:Drivers/CMSIS/Include/cmsis_gcc.h **** #endif
 113:Drivers/CMSIS/Include/cmsis_gcc.h **** #ifndef   __RESTRICT
 114:Drivers/CMSIS/Include/cmsis_gcc.h ****   #define __RESTRICT                             __restrict
 115:Drivers/CMSIS/Include/cmsis_gcc.h **** #endif
 116:Drivers/CMSIS/Include/cmsis_gcc.h **** #ifndef   __COMPILER_BARRIER
 117:Drivers/CMSIS/Include/cmsis_gcc.h ****   #define __COMPILER_BARRIER()                   __ASM volatile("":::"memory")
 118:Drivers/CMSIS/Include/cmsis_gcc.h **** #endif
 119:Drivers/CMSIS/Include/cmsis_gcc.h **** 
 120:Drivers/CMSIS/Include/cmsis_gcc.h **** /* #########################  Startup and Lowlevel Init  ######################## */
 121:Drivers/CMSIS/Include/cmsis_gcc.h **** 
 122:Drivers/CMSIS/Include/cmsis_gcc.h **** #ifndef __PROGRAM_START
 123:Drivers/CMSIS/Include/cmsis_gcc.h **** 
 124:Drivers/CMSIS/Include/cmsis_gcc.h **** /**
 125:Drivers/CMSIS/Include/cmsis_gcc.h ****   \brief   Initializes data and bss sections
 126:Drivers/CMSIS/Include/cmsis_gcc.h ****   \details This default implementations initialized all data and additional bss
 127:Drivers/CMSIS/Include/cmsis_gcc.h ****            sections relying on .copy.table and .zero.table specified properly
 128:Drivers/CMSIS/Include/cmsis_gcc.h ****            in the used linker script.
 129:Drivers/CMSIS/Include/cmsis_gcc.h ****   
 130:Drivers/CMSIS/Include/cmsis_gcc.h ****  */
 131:Drivers/CMSIS/Include/cmsis_gcc.h **** __STATIC_FORCEINLINE __NO_RETURN void __cmsis_start(void)
 132:Drivers/CMSIS/Include/cmsis_gcc.h **** {
 133:Drivers/CMSIS/Include/cmsis_gcc.h ****   extern void _start(void) __NO_RETURN;
 134:Drivers/CMSIS/Include/cmsis_gcc.h ****   
 135:Drivers/CMSIS/Include/cmsis_gcc.h ****   typedef struct {
 136:Drivers/CMSIS/Include/cmsis_gcc.h ****     uint32_t const* src;
 137:Drivers/CMSIS/Include/cmsis_gcc.h ****     uint32_t* dest;
 138:Drivers/CMSIS/Include/cmsis_gcc.h ****     uint32_t  wlen;
 139:Drivers/CMSIS/Include/cmsis_gcc.h ****   } __copy_table_t;
 140:Drivers/CMSIS/Include/cmsis_gcc.h ****   
 141:Drivers/CMSIS/Include/cmsis_gcc.h ****   typedef struct {
 142:Drivers/CMSIS/Include/cmsis_gcc.h ****     uint32_t* dest;
 143:Drivers/CMSIS/Include/cmsis_gcc.h ****     uint32_t  wlen;
 144:Drivers/CMSIS/Include/cmsis_gcc.h ****   } __zero_table_t;
 145:Drivers/CMSIS/Include/cmsis_gcc.h ****   
 146:Drivers/CMSIS/Include/cmsis_gcc.h ****   extern const __copy_table_t __copy_table_start__;
 147:Drivers/CMSIS/Include/cmsis_gcc.h ****   extern const __copy_table_t __copy_table_end__;
 148:Drivers/CMSIS/Include/cmsis_gcc.h ****   extern const __zero_table_t __zero_table_start__;
 149:Drivers/CMSIS/Include/cmsis_gcc.h ****   extern const __zero_table_t __zero_table_end__;
 150:Drivers/CMSIS/Include/cmsis_gcc.h **** 
 151:Drivers/CMSIS/Include/cmsis_gcc.h ****   for (__copy_table_t const* pTable = &__copy_table_start__; pTable < &__copy_table_end__; ++pTable
 152:Drivers/CMSIS/Include/cmsis_gcc.h ****     for(uint32_t i=0u; i<pTable->wlen; ++i) {
 153:Drivers/CMSIS/Include/cmsis_gcc.h ****       pTable->dest[i] = pTable->src[i];
 154:Drivers/CMSIS/Include/cmsis_gcc.h ****     }
 155:Drivers/CMSIS/Include/cmsis_gcc.h ****   }
 156:Drivers/CMSIS/Include/cmsis_gcc.h ****  
ARM GAS  C:\Users\Ali\AppData\Local\Temp\ccszBmV3.s 			page 27


 157:Drivers/CMSIS/Include/cmsis_gcc.h ****   for (__zero_table_t const* pTable = &__zero_table_start__; pTable < &__zero_table_end__; ++pTable
 158:Drivers/CMSIS/Include/cmsis_gcc.h ****     for(uint32_t i=0u; i<pTable->wlen; ++i) {
 159:Drivers/CMSIS/Include/cmsis_gcc.h ****       pTable->dest[i] = 0u;
 160:Drivers/CMSIS/Include/cmsis_gcc.h ****     }
 161:Drivers/CMSIS/Include/cmsis_gcc.h ****   }
 162:Drivers/CMSIS/Include/cmsis_gcc.h ****  
 163:Drivers/CMSIS/Include/cmsis_gcc.h ****   _start();
 164:Drivers/CMSIS/Include/cmsis_gcc.h **** }
 165:Drivers/CMSIS/Include/cmsis_gcc.h ****   
 166:Drivers/CMSIS/Include/cmsis_gcc.h **** #define __PROGRAM_START           __cmsis_start
 167:Drivers/CMSIS/Include/cmsis_gcc.h **** #endif
 168:Drivers/CMSIS/Include/cmsis_gcc.h **** 
 169:Drivers/CMSIS/Include/cmsis_gcc.h **** #ifndef __INITIAL_SP
 170:Drivers/CMSIS/Include/cmsis_gcc.h **** #define __INITIAL_SP              __StackTop
 171:Drivers/CMSIS/Include/cmsis_gcc.h **** #endif
 172:Drivers/CMSIS/Include/cmsis_gcc.h **** 
 173:Drivers/CMSIS/Include/cmsis_gcc.h **** #ifndef __STACK_LIMIT
 174:Drivers/CMSIS/Include/cmsis_gcc.h **** #define __STACK_LIMIT             __StackLimit
 175:Drivers/CMSIS/Include/cmsis_gcc.h **** #endif
 176:Drivers/CMSIS/Include/cmsis_gcc.h **** 
 177:Drivers/CMSIS/Include/cmsis_gcc.h **** #ifndef __VECTOR_TABLE
 178:Drivers/CMSIS/Include/cmsis_gcc.h **** #define __VECTOR_TABLE            __Vectors
 179:Drivers/CMSIS/Include/cmsis_gcc.h **** #endif
 180:Drivers/CMSIS/Include/cmsis_gcc.h **** 
 181:Drivers/CMSIS/Include/cmsis_gcc.h **** #ifndef __VECTOR_TABLE_ATTRIBUTE
 182:Drivers/CMSIS/Include/cmsis_gcc.h **** #define __VECTOR_TABLE_ATTRIBUTE  __attribute((used, section(".vectors")))
 183:Drivers/CMSIS/Include/cmsis_gcc.h **** #endif
 184:Drivers/CMSIS/Include/cmsis_gcc.h **** 
 185:Drivers/CMSIS/Include/cmsis_gcc.h **** /* ###########################  Core Function Access  ########################### */
 186:Drivers/CMSIS/Include/cmsis_gcc.h **** /** \ingroup  CMSIS_Core_FunctionInterface
 187:Drivers/CMSIS/Include/cmsis_gcc.h ****     \defgroup CMSIS_Core_RegAccFunctions CMSIS Core Register Access Functions
 188:Drivers/CMSIS/Include/cmsis_gcc.h ****   @{
 189:Drivers/CMSIS/Include/cmsis_gcc.h ****  */
 190:Drivers/CMSIS/Include/cmsis_gcc.h **** 
 191:Drivers/CMSIS/Include/cmsis_gcc.h **** /**
 192:Drivers/CMSIS/Include/cmsis_gcc.h ****   \brief   Enable IRQ Interrupts
 193:Drivers/CMSIS/Include/cmsis_gcc.h ****   \details Enables IRQ interrupts by clearing the I-bit in the CPSR.
 194:Drivers/CMSIS/Include/cmsis_gcc.h ****            Can only be executed in Privileged modes.
 195:Drivers/CMSIS/Include/cmsis_gcc.h ****  */
 196:Drivers/CMSIS/Include/cmsis_gcc.h **** __STATIC_FORCEINLINE void __enable_irq(void)
 197:Drivers/CMSIS/Include/cmsis_gcc.h **** {
 198:Drivers/CMSIS/Include/cmsis_gcc.h ****   __ASM volatile ("cpsie i" : : : "memory");
 199:Drivers/CMSIS/Include/cmsis_gcc.h **** }
 200:Drivers/CMSIS/Include/cmsis_gcc.h **** 
 201:Drivers/CMSIS/Include/cmsis_gcc.h **** 
 202:Drivers/CMSIS/Include/cmsis_gcc.h **** /**
 203:Drivers/CMSIS/Include/cmsis_gcc.h ****   \brief   Disable IRQ Interrupts
 204:Drivers/CMSIS/Include/cmsis_gcc.h ****   \details Disables IRQ interrupts by setting the I-bit in the CPSR.
 205:Drivers/CMSIS/Include/cmsis_gcc.h ****            Can only be executed in Privileged modes.
 206:Drivers/CMSIS/Include/cmsis_gcc.h ****  */
 207:Drivers/CMSIS/Include/cmsis_gcc.h **** __STATIC_FORCEINLINE void __disable_irq(void)
 597              		.loc 2 207 27 view .LVU182
 598              	.LBB7:
 208:Drivers/CMSIS/Include/cmsis_gcc.h **** {
 209:Drivers/CMSIS/Include/cmsis_gcc.h ****   __ASM volatile ("cpsid i" : : : "memory");
 599              		.loc 2 209 3 view .LVU183
 600              		.syntax unified
ARM GAS  C:\Users\Ali\AppData\Local\Temp\ccszBmV3.s 			page 28


 601              	@ 209 "Drivers/CMSIS/Include/cmsis_gcc.h" 1
 602 0024 72B6     		cpsid i
 603              	@ 0 "" 2
 604              		.thumb
 605              		.syntax unified
 606              	.LBE7:
 607              	.LBE6:
 568:Core/Src/bootloader.c ****     __HAL_RCC_CAN1_CLK_DISABLE();
 608              		.loc 1 568 5 view .LVU184
 609 0026 03F1C043 		add	r3, r3, #1610612736
 610 002a 03F59833 		add	r3, r3, #77824
 611 002e DA6C     		ldr	r2, [r3, #76]
 612 0030 22F00102 		bic	r2, r2, #1
 613 0034 DA64     		str	r2, [r3, #76]
 569:Core/Src/bootloader.c **** }
 614              		.loc 1 569 5 view .LVU185
 615 0036 9A6D     		ldr	r2, [r3, #88]
 616 0038 22F00072 		bic	r2, r2, #33554432
 617 003c 9A65     		str	r2, [r3, #88]
 570:Core/Src/bootloader.c **** 
 618              		.loc 1 570 1 is_stmt 0 view .LVU186
 619 003e 10BD     		pop	{r4, pc}
 620              	.L52:
 621              		.align	2
 622              	.L51:
 623 0040 00000000 		.word	hcan_bootloader
 624              		.cfi_endproc
 625              	.LFE140:
 627              		.section	.text.Bootloader_Init,"ax",%progbits
 628              		.align	1
 629              		.global	Bootloader_Init
 630              		.syntax unified
 631              		.thumb
 632              		.thumb_func
 634              	Bootloader_Init:
 635              	.LVL47:
 636              	.LFB132:
  49:Core/Src/bootloader.c ****     hcan_bootloader = hcan;
 637              		.loc 1 49 1 is_stmt 1 view -0
 638              		.cfi_startproc
 639              		@ args = 0, pretend = 0, frame = 0
 640              		@ frame_needed = 0, uses_anonymous_args = 0
  49:Core/Src/bootloader.c ****     hcan_bootloader = hcan;
 641              		.loc 1 49 1 is_stmt 0 view .LVU188
 642 0000 10B5     		push	{r4, lr}
 643              		.cfi_def_cfa_offset 8
 644              		.cfi_offset 4, -8
 645              		.cfi_offset 14, -4
  50:Core/Src/bootloader.c ****     
 646              		.loc 1 50 5 is_stmt 1 view .LVU189
  50:Core/Src/bootloader.c ****     
 647              		.loc 1 50 21 is_stmt 0 view .LVU190
 648 0002 144C     		ldr	r4, .L59
 649 0004 2060     		str	r0, [r4]
  53:Core/Src/bootloader.c ****     bootloader_status.state = BL_STATE_IDLE;
 650              		.loc 1 53 5 is_stmt 1 view .LVU191
 651 0006 144B     		ldr	r3, .L59+4
ARM GAS  C:\Users\Ali\AppData\Local\Temp\ccszBmV3.s 			page 29


 652 0008 0022     		movs	r2, #0
 653 000a 1A60     		str	r2, [r3]
 654 000c 5A60     		str	r2, [r3, #4]
 655 000e 9A60     		str	r2, [r3, #8]
 656 0010 DA60     		str	r2, [r3, #12]
 657 0012 1A61     		str	r2, [r3, #16]
  54:Core/Src/bootloader.c ****     bootloader_status.current_address = APPLICATION_ADDRESS;
 658              		.loc 1 54 5 view .LVU192
  55:Core/Src/bootloader.c ****     
 659              		.loc 1 55 5 view .LVU193
  55:Core/Src/bootloader.c ****     
 660              		.loc 1 55 39 is_stmt 0 view .LVU194
 661 0014 114A     		ldr	r2, .L59+8
 662 0016 5A60     		str	r2, [r3, #4]
  58:Core/Src/bootloader.c ****     
 663              		.loc 1 58 5 is_stmt 1 view .LVU195
 664 0018 FFF7FEFF 		bl	Bootloader_ConfigureCANFilter
 665              	.LVL48:
  61:Core/Src/bootloader.c ****     {
 666              		.loc 1 61 5 view .LVU196
  61:Core/Src/bootloader.c ****     {
 667              		.loc 1 61 9 is_stmt 0 view .LVU197
 668 001c 2068     		ldr	r0, [r4]
 669 001e FFF7FEFF 		bl	HAL_CAN_Start
 670              	.LVL49:
  61:Core/Src/bootloader.c ****     {
 671              		.loc 1 61 8 discriminator 1 view .LVU198
 672 0022 88B9     		cbnz	r0, .L57
 673              	.L54:
  67:Core/Src/bootloader.c ****     {
 674              		.loc 1 67 5 is_stmt 1 view .LVU199
  67:Core/Src/bootloader.c ****     {
 675              		.loc 1 67 9 is_stmt 0 view .LVU200
 676 0024 0221     		movs	r1, #2
 677 0026 0B4B     		ldr	r3, .L59
 678 0028 1868     		ldr	r0, [r3]
 679 002a FFF7FEFF 		bl	HAL_CAN_ActivateNotification
 680              	.LVL50:
  67:Core/Src/bootloader.c ****     {
 681              		.loc 1 67 8 discriminator 1 view .LVU201
 682 002e 70B9     		cbnz	r0, .L58
 683              	.L55:
  73:Core/Src/bootloader.c ****     tx_header.ExtId = CAN_BOOTLOADER_ID;
 684              		.loc 1 73 5 is_stmt 1 view .LVU202
  73:Core/Src/bootloader.c ****     tx_header.ExtId = CAN_BOOTLOADER_ID;
 685              		.loc 1 73 21 is_stmt 0 view .LVU203
 686 0030 0B4B     		ldr	r3, .L59+12
 687 0032 0022     		movs	r2, #0
 688 0034 1A60     		str	r2, [r3]
  74:Core/Src/bootloader.c ****     tx_header.IDE = CAN_ID_EXT;
 689              		.loc 1 74 5 is_stmt 1 view .LVU204
  74:Core/Src/bootloader.c ****     tx_header.IDE = CAN_ID_EXT;
 690              		.loc 1 74 21 is_stmt 0 view .LVU205
 691 0036 0B49     		ldr	r1, .L59+16
 692 0038 5960     		str	r1, [r3, #4]
  75:Core/Src/bootloader.c ****     tx_header.RTR = CAN_RTR_DATA;
 693              		.loc 1 75 5 is_stmt 1 view .LVU206
ARM GAS  C:\Users\Ali\AppData\Local\Temp\ccszBmV3.s 			page 30


  75:Core/Src/bootloader.c ****     tx_header.RTR = CAN_RTR_DATA;
 694              		.loc 1 75 19 is_stmt 0 view .LVU207
 695 003a 0421     		movs	r1, #4
 696 003c 9960     		str	r1, [r3, #8]
  76:Core/Src/bootloader.c ****     tx_header.DLC = 8;
 697              		.loc 1 76 5 is_stmt 1 view .LVU208
  76:Core/Src/bootloader.c ****     tx_header.DLC = 8;
 698              		.loc 1 76 19 is_stmt 0 view .LVU209
 699 003e DA60     		str	r2, [r3, #12]
  77:Core/Src/bootloader.c ****     tx_header.TransmitGlobalTime = DISABLE;
 700              		.loc 1 77 5 is_stmt 1 view .LVU210
  77:Core/Src/bootloader.c ****     tx_header.TransmitGlobalTime = DISABLE;
 701              		.loc 1 77 19 is_stmt 0 view .LVU211
 702 0040 0821     		movs	r1, #8
 703 0042 1961     		str	r1, [r3, #16]
  78:Core/Src/bootloader.c **** }
 704              		.loc 1 78 5 is_stmt 1 view .LVU212
  78:Core/Src/bootloader.c **** }
 705              		.loc 1 78 34 is_stmt 0 view .LVU213
 706 0044 1A75     		strb	r2, [r3, #20]
  79:Core/Src/bootloader.c **** 
 707              		.loc 1 79 1 view .LVU214
 708 0046 10BD     		pop	{r4, pc}
 709              	.L57:
  63:Core/Src/bootloader.c ****     }
 710              		.loc 1 63 9 is_stmt 1 view .LVU215
 711 0048 FFF7FEFF 		bl	Error_Handler
 712              	.LVL51:
 713 004c EAE7     		b	.L54
 714              	.L58:
  69:Core/Src/bootloader.c ****     }
 715              		.loc 1 69 9 view .LVU216
 716 004e FFF7FEFF 		bl	Error_Handler
 717              	.LVL52:
 718 0052 EDE7     		b	.L55
 719              	.L60:
 720              		.align	2
 721              	.L59:
 722 0054 00000000 		.word	hcan_bootloader
 723 0058 00000000 		.word	bootloader_status
 724 005c 00800008 		.word	134250496
 725 0060 00000000 		.word	tx_header
 726 0064 00070018 		.word	402654976
 727              		.cfi_endproc
 728              	.LFE132:
 730              		.section	.text.Bootloader_CheckValidApplication,"ax",%progbits
 731              		.align	1
 732              		.global	Bootloader_CheckValidApplication
 733              		.syntax unified
 734              		.thumb
 735              		.thumb_func
 737              	Bootloader_CheckValidApplication:
 738              	.LFB139:
 529:Core/Src/bootloader.c ****     uint32_t stack_pointer = *(__IO uint32_t *)APPLICATION_ADDRESS;
 739              		.loc 1 529 1 view -0
 740              		.cfi_startproc
 741              		@ args = 0, pretend = 0, frame = 0
ARM GAS  C:\Users\Ali\AppData\Local\Temp\ccszBmV3.s 			page 31


 742              		@ frame_needed = 0, uses_anonymous_args = 0
 743              		@ link register save eliminated.
 530:Core/Src/bootloader.c ****     uint32_t reset_handler = *(__IO uint32_t *)(APPLICATION_ADDRESS + 4);
 744              		.loc 1 530 5 view .LVU218
 530:Core/Src/bootloader.c ****     uint32_t reset_handler = *(__IO uint32_t *)(APPLICATION_ADDRESS + 4);
 745              		.loc 1 530 14 is_stmt 0 view .LVU219
 746 0000 094A     		ldr	r2, .L65
 747 0002 1368     		ldr	r3, [r2]
 748              	.LVL53:
 531:Core/Src/bootloader.c ****     
 749              		.loc 1 531 5 is_stmt 1 view .LVU220
 531:Core/Src/bootloader.c ****     
 750              		.loc 1 531 14 is_stmt 0 view .LVU221
 751 0004 5268     		ldr	r2, [r2, #4]
 752              	.LVL54:
 534:Core/Src/bootloader.c ****     {
 753              		.loc 1 534 5 is_stmt 1 view .LVU222
 534:Core/Src/bootloader.c ****     {
 754              		.loc 1 534 24 is_stmt 0 view .LVU223
 755 0006 6FF31303 		bfc	r3, #0, #20
 756              	.LVL55:
 534:Core/Src/bootloader.c ****     {
 757              		.loc 1 534 8 view .LVU224
 758 000a B3F1005F 		cmp	r3, #536870912
 759 000e 06D1     		bne	.L63
 540:Core/Src/bootloader.c ****     {
 760              		.loc 1 540 5 is_stmt 1 view .LVU225
 540:Core/Src/bootloader.c ****     {
 761              		.loc 1 540 52 is_stmt 0 view .LVU226
 762 0010 6FF35702 		bfc	r2, #1, #23
 763              	.LVL56:
 540:Core/Src/bootloader.c ****     {
 764              		.loc 1 540 8 view .LVU227
 765 0014 054B     		ldr	r3, .L65+4
 766 0016 9A42     		cmp	r2, r3
 767 0018 03D1     		bne	.L64
 545:Core/Src/bootloader.c **** }
 768              		.loc 1 545 12 view .LVU228
 769 001a 0120     		movs	r0, #1
 770 001c 7047     		bx	lr
 771              	.LVL57:
 772              	.L63:
 536:Core/Src/bootloader.c ****     }
 773              		.loc 1 536 16 view .LVU229
 774 001e 0020     		movs	r0, #0
 775 0020 7047     		bx	lr
 776              	.LVL58:
 777              	.L64:
 542:Core/Src/bootloader.c ****     }
 778              		.loc 1 542 16 view .LVU230
 779 0022 0020     		movs	r0, #0
 546:Core/Src/bootloader.c **** 
 780              		.loc 1 546 1 view .LVU231
 781 0024 7047     		bx	lr
 782              	.L66:
 783 0026 00BF     		.align	2
 784              	.L65:
ARM GAS  C:\Users\Ali\AppData\Local\Temp\ccszBmV3.s 			page 32


 785 0028 00800008 		.word	134250496
 786 002c 01000008 		.word	134217729
 787              		.cfi_endproc
 788              	.LFE139:
 790              		.section	.text.Bootloader_SendCANMessage,"ax",%progbits
 791              		.align	1
 792              		.global	Bootloader_SendCANMessage
 793              		.syntax unified
 794              		.thumb
 795              		.thumb_func
 797              	Bootloader_SendCANMessage:
 798              	.LVL59:
 799              	.LFB145:
 589:Core/Src/bootloader.c **** 
 590:Core/Src/bootloader.c **** /**
 591:Core/Src/bootloader.c ****   * @brief  Jump to application
 592:Core/Src/bootloader.c ****   * @retval Error code (if returns, jump failed)
 593:Core/Src/bootloader.c ****   */
 594:Core/Src/bootloader.c **** uint8_t Bootloader_JumpToApplication(void)
 595:Core/Src/bootloader.c **** {
 596:Core/Src/bootloader.c ****     typedef void (*pFunction)(void);
 597:Core/Src/bootloader.c ****     pFunction jump_to_application;
 598:Core/Src/bootloader.c ****     uint32_t jump_address;
 599:Core/Src/bootloader.c ****     uint32_t app_stack_pointer;
 600:Core/Src/bootloader.c ****     uint8_t jump_info[8];
 601:Core/Src/bootloader.c ****     
 602:Core/Src/bootloader.c ****     /* Check if valid application exists */
 603:Core/Src/bootloader.c ****     if (!Bootloader_CheckValidApplication())
 604:Core/Src/bootloader.c ****     {
 605:Core/Src/bootloader.c ****         return ERR_NO_VALID_APP;
 606:Core/Src/bootloader.c ****     }
 607:Core/Src/bootloader.c ****     
 608:Core/Src/bootloader.c ****     /* Read application vector table */
 609:Core/Src/bootloader.c ****     app_stack_pointer = *(__IO uint32_t *)APPLICATION_ADDRESS;
 610:Core/Src/bootloader.c ****     jump_address = *(__IO uint32_t *)(APPLICATION_ADDRESS + 4);
 611:Core/Src/bootloader.c ****     
 612:Core/Src/bootloader.c ****     /* Send detailed jump information before jumping */
 613:Core/Src/bootloader.c ****     jump_info[0] = RESP_JUMP_INFO;
 614:Core/Src/bootloader.c ****     jump_info[1] = (app_stack_pointer >> 24) & 0xFF;  /* Stack pointer MSB */
 615:Core/Src/bootloader.c ****     jump_info[2] = (app_stack_pointer >> 16) & 0xFF;
 616:Core/Src/bootloader.c ****     jump_info[3] = (app_stack_pointer >> 8) & 0xFF;
 617:Core/Src/bootloader.c ****     jump_info[4] = app_stack_pointer & 0xFF;          /* Stack pointer LSB */
 618:Core/Src/bootloader.c ****     jump_info[5] = (jump_address >> 16) & 0xFF;       /* Reset vector high word */
 619:Core/Src/bootloader.c ****     jump_info[6] = (jump_address >> 8) & 0xFF;
 620:Core/Src/bootloader.c ****     jump_info[7] = jump_address & 0xFF;               /* Reset vector LSB */
 621:Core/Src/bootloader.c ****     
 622:Core/Src/bootloader.c ****     Bootloader_SendCANMessage(RESP_JUMP_INFO, jump_info, 8);
 623:Core/Src/bootloader.c ****     
 624:Core/Src/bootloader.c ****     /* Wait for CAN transmission to complete */
 625:Core/Src/bootloader.c ****     Bootloader_WaitForCANTransmission();
 626:Core/Src/bootloader.c ****     
 627:Core/Src/bootloader.c ****     bootloader_status.state = BL_STATE_JUMPING;
 628:Core/Src/bootloader.c ****     
 629:Core/Src/bootloader.c ****     /* De-initialize peripherals */
 630:Core/Src/bootloader.c ****     Bootloader_DeInit();
 631:Core/Src/bootloader.c ****     
 632:Core/Src/bootloader.c ****     /* Get the application stack pointer */
ARM GAS  C:\Users\Ali\AppData\Local\Temp\ccszBmV3.s 			page 33


 633:Core/Src/bootloader.c ****     __set_MSP(app_stack_pointer);
 634:Core/Src/bootloader.c ****     
 635:Core/Src/bootloader.c ****     /* Cast to function pointer */
 636:Core/Src/bootloader.c ****     jump_to_application = (pFunction)jump_address;
 637:Core/Src/bootloader.c ****     
 638:Core/Src/bootloader.c ****     /* Relocate vector table */
 639:Core/Src/bootloader.c ****     SCB->VTOR = APPLICATION_ADDRESS;
 640:Core/Src/bootloader.c ****     
 641:Core/Src/bootloader.c ****     /* Jump to application */
 642:Core/Src/bootloader.c ****     jump_to_application();
 643:Core/Src/bootloader.c ****     
 644:Core/Src/bootloader.c ****     /* Should never reach here */
 645:Core/Src/bootloader.c ****     return ERR_NONE;
 646:Core/Src/bootloader.c **** }
 647:Core/Src/bootloader.c **** 
 648:Core/Src/bootloader.c **** /**
 649:Core/Src/bootloader.c ****   * @brief  Send ACK message
 650:Core/Src/bootloader.c ****   * @retval None
 651:Core/Src/bootloader.c ****   */
 652:Core/Src/bootloader.c **** static void Bootloader_SendACK(void)
 653:Core/Src/bootloader.c **** {
 654:Core/Src/bootloader.c ****     tx_data[0] = RESP_ACK;
 655:Core/Src/bootloader.c ****     tx_data[1] = bootloader_status.last_error;
 656:Core/Src/bootloader.c ****     Bootloader_SendCANMessage(RESP_ACK, tx_data, 2);
 657:Core/Src/bootloader.c **** }
 658:Core/Src/bootloader.c **** 
 659:Core/Src/bootloader.c **** /**
 660:Core/Src/bootloader.c ****   * @brief  Send NACK message
 661:Core/Src/bootloader.c ****   * @param  error_code: Error code to send
 662:Core/Src/bootloader.c ****   * @retval None
 663:Core/Src/bootloader.c ****   */
 664:Core/Src/bootloader.c **** static void Bootloader_SendNACK(uint8_t error_code)
 665:Core/Src/bootloader.c **** {
 666:Core/Src/bootloader.c ****     bootloader_status.last_error = error_code;
 667:Core/Src/bootloader.c ****     tx_data[0] = RESP_NACK;
 668:Core/Src/bootloader.c ****     tx_data[1] = error_code;
 669:Core/Src/bootloader.c ****     Bootloader_SendCANMessage(RESP_NACK, tx_data, 2);
 670:Core/Src/bootloader.c **** }
 671:Core/Src/bootloader.c **** 
 672:Core/Src/bootloader.c **** /**
 673:Core/Src/bootloader.c ****   * @brief  Send CAN message
 674:Core/Src/bootloader.c ****   * @param  cmd: Command/response byte
 675:Core/Src/bootloader.c ****   * @param  data: Pointer to data buffer
 676:Core/Src/bootloader.c ****   * @param  length: Data length
 677:Core/Src/bootloader.c ****   * @retval None
 678:Core/Src/bootloader.c ****   */
 679:Core/Src/bootloader.c **** void Bootloader_SendCANMessage(uint8_t cmd, uint8_t *data, uint8_t length)
 680:Core/Src/bootloader.c **** {
 800              		.loc 1 680 1 is_stmt 1 view -0
 801              		.cfi_startproc
 802              		@ args = 0, pretend = 0, frame = 8
 803              		@ frame_needed = 0, uses_anonymous_args = 0
 804              		.loc 1 680 1 is_stmt 0 view .LVU233
 805 0000 00B5     		push	{lr}
 806              		.cfi_def_cfa_offset 4
 807              		.cfi_offset 14, -4
 808 0002 83B0     		sub	sp, sp, #12
ARM GAS  C:\Users\Ali\AppData\Local\Temp\ccszBmV3.s 			page 34


 809              		.cfi_def_cfa_offset 16
 681:Core/Src/bootloader.c ****     uint8_t i;
 810              		.loc 1 681 5 is_stmt 1 view .LVU234
 682:Core/Src/bootloader.c ****     uint8_t tx_buffer[8] = {0};
 811              		.loc 1 682 5 view .LVU235
 812              		.loc 1 682 13 is_stmt 0 view .LVU236
 813 0004 0023     		movs	r3, #0
 814 0006 0093     		str	r3, [sp]
 815 0008 0193     		str	r3, [sp, #4]
 683:Core/Src/bootloader.c ****     
 684:Core/Src/bootloader.c ****     /* Copy data to TX buffer */
 685:Core/Src/bootloader.c ****     for (i = 0; i < length && i < 8; i++)
 816              		.loc 1 685 5 is_stmt 1 view .LVU237
 817              	.LVL60:
 818              		.loc 1 685 5 is_stmt 0 view .LVU238
 819 000a 08E0     		b	.L68
 820              	.LVL61:
 821              	.L70:
 686:Core/Src/bootloader.c ****     {
 687:Core/Src/bootloader.c ****         tx_buffer[i] = data[i];
 822              		.loc 1 687 9 is_stmt 1 view .LVU239
 823              		.loc 1 687 28 is_stmt 0 view .LVU240
 824 000c 11F803C0 		ldrb	ip, [r1, r3]	@ zero_extendqisi2
 825              		.loc 1 687 22 view .LVU241
 826 0010 03F10800 		add	r0, r3, #8
 827 0014 6844     		add	r0, sp, r0
 828 0016 00F808CC 		strb	ip, [r0, #-8]
 685:Core/Src/bootloader.c ****     {
 829              		.loc 1 685 39 is_stmt 1 discriminator 4 view .LVU242
 830 001a 0133     		adds	r3, r3, #1
 831              	.LVL62:
 685:Core/Src/bootloader.c ****     {
 832              		.loc 1 685 39 is_stmt 0 discriminator 4 view .LVU243
 833 001c DBB2     		uxtb	r3, r3
 834              	.LVL63:
 835              	.L68:
 685:Core/Src/bootloader.c ****     {
 836              		.loc 1 685 28 is_stmt 1 discriminator 1 view .LVU244
 837 001e 9342     		cmp	r3, r2
 838 0020 01D2     		bcs	.L69
 685:Core/Src/bootloader.c ****     {
 839              		.loc 1 685 28 is_stmt 0 discriminator 3 view .LVU245
 840 0022 072B     		cmp	r3, #7
 841 0024 F2D9     		bls	.L70
 842              	.L69:
 688:Core/Src/bootloader.c ****     }
 689:Core/Src/bootloader.c ****     
 690:Core/Src/bootloader.c ****     /* Set DLC */
 691:Core/Src/bootloader.c ****     tx_header.DLC = length;
 843              		.loc 1 691 5 is_stmt 1 view .LVU246
 844              		.loc 1 691 19 is_stmt 0 view .LVU247
 845 0026 0549     		ldr	r1, .L72
 846              	.LVL64:
 847              		.loc 1 691 19 view .LVU248
 848 0028 0A61     		str	r2, [r1, #16]
 692:Core/Src/bootloader.c ****     
 693:Core/Src/bootloader.c ****     /* Send message */
ARM GAS  C:\Users\Ali\AppData\Local\Temp\ccszBmV3.s 			page 35


 694:Core/Src/bootloader.c ****     HAL_CAN_AddTxMessage(hcan_bootloader, &tx_header, tx_buffer, &tx_mailbox);
 849              		.loc 1 694 5 is_stmt 1 view .LVU249
 850 002a 054B     		ldr	r3, .L72+4
 851              	.LVL65:
 852              		.loc 1 694 5 is_stmt 0 view .LVU250
 853 002c 6A46     		mov	r2, sp
 854              	.LVL66:
 855              		.loc 1 694 5 view .LVU251
 856 002e 0548     		ldr	r0, .L72+8
 857 0030 0068     		ldr	r0, [r0]
 858 0032 FFF7FEFF 		bl	HAL_CAN_AddTxMessage
 859              	.LVL67:
 695:Core/Src/bootloader.c **** }
 860              		.loc 1 695 1 view .LVU252
 861 0036 03B0     		add	sp, sp, #12
 862              		.cfi_def_cfa_offset 4
 863              		@ sp needed
 864 0038 5DF804FB 		ldr	pc, [sp], #4
 865              	.L73:
 866              		.align	2
 867              	.L72:
 868 003c 00000000 		.word	tx_header
 869 0040 00000000 		.word	tx_mailbox
 870 0044 00000000 		.word	hcan_bootloader
 871              		.cfi_endproc
 872              	.LFE145:
 874              		.section	.text.Bootloader_SendACK,"ax",%progbits
 875              		.align	1
 876              		.syntax unified
 877              		.thumb
 878              		.thumb_func
 880              	Bootloader_SendACK:
 881              	.LFB143:
 653:Core/Src/bootloader.c ****     tx_data[0] = RESP_ACK;
 882              		.loc 1 653 1 is_stmt 1 view -0
 883              		.cfi_startproc
 884              		@ args = 0, pretend = 0, frame = 0
 885              		@ frame_needed = 0, uses_anonymous_args = 0
 886 0000 08B5     		push	{r3, lr}
 887              		.cfi_def_cfa_offset 8
 888              		.cfi_offset 3, -8
 889              		.cfi_offset 14, -4
 654:Core/Src/bootloader.c ****     tx_data[1] = bootloader_status.last_error;
 890              		.loc 1 654 5 view .LVU254
 654:Core/Src/bootloader.c ****     tx_data[1] = bootloader_status.last_error;
 891              		.loc 1 654 16 is_stmt 0 view .LVU255
 892 0002 0549     		ldr	r1, .L76
 893 0004 1020     		movs	r0, #16
 894 0006 0870     		strb	r0, [r1]
 655:Core/Src/bootloader.c ****     Bootloader_SendCANMessage(RESP_ACK, tx_data, 2);
 895              		.loc 1 655 5 is_stmt 1 view .LVU256
 655:Core/Src/bootloader.c ****     Bootloader_SendCANMessage(RESP_ACK, tx_data, 2);
 896              		.loc 1 655 35 is_stmt 0 view .LVU257
 897 0008 044B     		ldr	r3, .L76+4
 898 000a 1B7C     		ldrb	r3, [r3, #16]	@ zero_extendqisi2
 655:Core/Src/bootloader.c ****     Bootloader_SendCANMessage(RESP_ACK, tx_data, 2);
 899              		.loc 1 655 16 view .LVU258
ARM GAS  C:\Users\Ali\AppData\Local\Temp\ccszBmV3.s 			page 36


 900 000c 4B70     		strb	r3, [r1, #1]
 656:Core/Src/bootloader.c **** }
 901              		.loc 1 656 5 is_stmt 1 view .LVU259
 902 000e 0222     		movs	r2, #2
 903 0010 FFF7FEFF 		bl	Bootloader_SendCANMessage
 904              	.LVL68:
 657:Core/Src/bootloader.c **** 
 905              		.loc 1 657 1 is_stmt 0 view .LVU260
 906 0014 08BD     		pop	{r3, pc}
 907              	.L77:
 908 0016 00BF     		.align	2
 909              	.L76:
 910 0018 00000000 		.word	tx_data
 911 001c 00000000 		.word	bootloader_status
 912              		.cfi_endproc
 913              	.LFE143:
 915              		.section	.text.Bootloader_SendNACK,"ax",%progbits
 916              		.align	1
 917              		.syntax unified
 918              		.thumb
 919              		.thumb_func
 921              	Bootloader_SendNACK:
 922              	.LVL69:
 923              	.LFB144:
 665:Core/Src/bootloader.c ****     bootloader_status.last_error = error_code;
 924              		.loc 1 665 1 is_stmt 1 view -0
 925              		.cfi_startproc
 926              		@ args = 0, pretend = 0, frame = 0
 927              		@ frame_needed = 0, uses_anonymous_args = 0
 665:Core/Src/bootloader.c ****     bootloader_status.last_error = error_code;
 928              		.loc 1 665 1 is_stmt 0 view .LVU262
 929 0000 08B5     		push	{r3, lr}
 930              		.cfi_def_cfa_offset 8
 931              		.cfi_offset 3, -8
 932              		.cfi_offset 14, -4
 933 0002 0346     		mov	r3, r0
 666:Core/Src/bootloader.c ****     tx_data[0] = RESP_NACK;
 934              		.loc 1 666 5 is_stmt 1 view .LVU263
 666:Core/Src/bootloader.c ****     tx_data[0] = RESP_NACK;
 935              		.loc 1 666 34 is_stmt 0 view .LVU264
 936 0004 044A     		ldr	r2, .L80
 937 0006 1074     		strb	r0, [r2, #16]
 667:Core/Src/bootloader.c ****     tx_data[1] = error_code;
 938              		.loc 1 667 5 is_stmt 1 view .LVU265
 667:Core/Src/bootloader.c ****     tx_data[1] = error_code;
 939              		.loc 1 667 16 is_stmt 0 view .LVU266
 940 0008 0449     		ldr	r1, .L80+4
 941 000a 1120     		movs	r0, #17
 942              	.LVL70:
 667:Core/Src/bootloader.c ****     tx_data[1] = error_code;
 943              		.loc 1 667 16 view .LVU267
 944 000c 0870     		strb	r0, [r1]
 668:Core/Src/bootloader.c ****     Bootloader_SendCANMessage(RESP_NACK, tx_data, 2);
 945              		.loc 1 668 5 is_stmt 1 view .LVU268
 668:Core/Src/bootloader.c ****     Bootloader_SendCANMessage(RESP_NACK, tx_data, 2);
 946              		.loc 1 668 16 is_stmt 0 view .LVU269
 947 000e 4B70     		strb	r3, [r1, #1]
ARM GAS  C:\Users\Ali\AppData\Local\Temp\ccszBmV3.s 			page 37


 669:Core/Src/bootloader.c **** }
 948              		.loc 1 669 5 is_stmt 1 view .LVU270
 949 0010 0222     		movs	r2, #2
 669:Core/Src/bootloader.c **** }
 950              		.loc 1 669 5 is_stmt 0 view .LVU271
 951 0012 FFF7FEFF 		bl	Bootloader_SendCANMessage
 952              	.LVL71:
 670:Core/Src/bootloader.c **** 
 953              		.loc 1 670 1 view .LVU272
 954 0016 08BD     		pop	{r3, pc}
 955              	.L81:
 956              		.align	2
 957              	.L80:
 958 0018 00000000 		.word	bootloader_status
 959 001c 00000000 		.word	tx_data
 960              		.cfi_endproc
 961              	.LFE144:
 963              		.section	.text.Bootloader_JumpToApplication,"ax",%progbits
 964              		.align	1
 965              		.global	Bootloader_JumpToApplication
 966              		.syntax unified
 967              		.thumb
 968              		.thumb_func
 970              	Bootloader_JumpToApplication:
 971              	.LFB142:
 595:Core/Src/bootloader.c ****     typedef void (*pFunction)(void);
 972              		.loc 1 595 1 is_stmt 1 view -0
 973              		.cfi_startproc
 974              		@ args = 0, pretend = 0, frame = 8
 975              		@ frame_needed = 0, uses_anonymous_args = 0
 976 0000 70B5     		push	{r4, r5, r6, lr}
 977              		.cfi_def_cfa_offset 16
 978              		.cfi_offset 4, -16
 979              		.cfi_offset 5, -12
 980              		.cfi_offset 6, -8
 981              		.cfi_offset 14, -4
 982 0002 82B0     		sub	sp, sp, #8
 983              		.cfi_def_cfa_offset 24
 596:Core/Src/bootloader.c ****     pFunction jump_to_application;
 984              		.loc 1 596 5 view .LVU274
 597:Core/Src/bootloader.c ****     uint32_t jump_address;
 985              		.loc 1 597 5 view .LVU275
 598:Core/Src/bootloader.c ****     uint32_t app_stack_pointer;
 986              		.loc 1 598 5 view .LVU276
 599:Core/Src/bootloader.c ****     uint8_t jump_info[8];
 987              		.loc 1 599 5 view .LVU277
 600:Core/Src/bootloader.c ****     
 988              		.loc 1 600 5 view .LVU278
 603:Core/Src/bootloader.c ****     {
 989              		.loc 1 603 5 view .LVU279
 603:Core/Src/bootloader.c ****     {
 990              		.loc 1 603 10 is_stmt 0 view .LVU280
 991 0004 FFF7FEFF 		bl	Bootloader_CheckValidApplication
 992              	.LVL72:
 603:Core/Src/bootloader.c ****     {
 993              		.loc 1 603 8 discriminator 1 view .LVU281
 994 0008 58B3     		cbz	r0, .L84
ARM GAS  C:\Users\Ali\AppData\Local\Temp\ccszBmV3.s 			page 38


 609:Core/Src/bootloader.c ****     jump_address = *(__IO uint32_t *)(APPLICATION_ADDRESS + 4);
 995              		.loc 1 609 5 is_stmt 1 view .LVU282
 609:Core/Src/bootloader.c ****     jump_address = *(__IO uint32_t *)(APPLICATION_ADDRESS + 4);
 996              		.loc 1 609 23 is_stmt 0 view .LVU283
 997 000a 174E     		ldr	r6, .L86
 998 000c 3468     		ldr	r4, [r6]
 999              	.LVL73:
 610:Core/Src/bootloader.c ****     
 1000              		.loc 1 610 5 is_stmt 1 view .LVU284
 610:Core/Src/bootloader.c ****     
 1001              		.loc 1 610 18 is_stmt 0 view .LVU285
 1002 000e 7568     		ldr	r5, [r6, #4]
 1003              	.LVL74:
 613:Core/Src/bootloader.c ****     jump_info[1] = (app_stack_pointer >> 24) & 0xFF;  /* Stack pointer MSB */
 1004              		.loc 1 613 5 is_stmt 1 view .LVU286
 613:Core/Src/bootloader.c ****     jump_info[1] = (app_stack_pointer >> 24) & 0xFF;  /* Stack pointer MSB */
 1005              		.loc 1 613 18 is_stmt 0 view .LVU287
 1006 0010 1620     		movs	r0, #22
 1007 0012 8DF80000 		strb	r0, [sp]
 614:Core/Src/bootloader.c ****     jump_info[2] = (app_stack_pointer >> 16) & 0xFF;
 1008              		.loc 1 614 5 is_stmt 1 view .LVU288
 614:Core/Src/bootloader.c ****     jump_info[2] = (app_stack_pointer >> 16) & 0xFF;
 1009              		.loc 1 614 39 is_stmt 0 view .LVU289
 1010 0016 230E     		lsrs	r3, r4, #24
 614:Core/Src/bootloader.c ****     jump_info[2] = (app_stack_pointer >> 16) & 0xFF;
 1011              		.loc 1 614 18 view .LVU290
 1012 0018 8DF80130 		strb	r3, [sp, #1]
 615:Core/Src/bootloader.c ****     jump_info[3] = (app_stack_pointer >> 8) & 0xFF;
 1013              		.loc 1 615 5 is_stmt 1 view .LVU291
 615:Core/Src/bootloader.c ****     jump_info[3] = (app_stack_pointer >> 8) & 0xFF;
 1014              		.loc 1 615 39 is_stmt 0 view .LVU292
 1015 001c 230C     		lsrs	r3, r4, #16
 615:Core/Src/bootloader.c ****     jump_info[3] = (app_stack_pointer >> 8) & 0xFF;
 1016              		.loc 1 615 18 view .LVU293
 1017 001e 8DF80230 		strb	r3, [sp, #2]
 616:Core/Src/bootloader.c ****     jump_info[4] = app_stack_pointer & 0xFF;          /* Stack pointer LSB */
 1018              		.loc 1 616 5 is_stmt 1 view .LVU294
 616:Core/Src/bootloader.c ****     jump_info[4] = app_stack_pointer & 0xFF;          /* Stack pointer LSB */
 1019              		.loc 1 616 39 is_stmt 0 view .LVU295
 1020 0022 230A     		lsrs	r3, r4, #8
 616:Core/Src/bootloader.c ****     jump_info[4] = app_stack_pointer & 0xFF;          /* Stack pointer LSB */
 1021              		.loc 1 616 18 view .LVU296
 1022 0024 8DF80330 		strb	r3, [sp, #3]
 617:Core/Src/bootloader.c ****     jump_info[5] = (jump_address >> 16) & 0xFF;       /* Reset vector high word */
 1023              		.loc 1 617 5 is_stmt 1 view .LVU297
 617:Core/Src/bootloader.c ****     jump_info[5] = (jump_address >> 16) & 0xFF;       /* Reset vector high word */
 1024              		.loc 1 617 18 is_stmt 0 view .LVU298
 1025 0028 8DF80440 		strb	r4, [sp, #4]
 618:Core/Src/bootloader.c ****     jump_info[6] = (jump_address >> 8) & 0xFF;
 1026              		.loc 1 618 5 is_stmt 1 view .LVU299
 618:Core/Src/bootloader.c ****     jump_info[6] = (jump_address >> 8) & 0xFF;
 1027              		.loc 1 618 34 is_stmt 0 view .LVU300
 1028 002c 2B0C     		lsrs	r3, r5, #16
 618:Core/Src/bootloader.c ****     jump_info[6] = (jump_address >> 8) & 0xFF;
 1029              		.loc 1 618 18 view .LVU301
 1030 002e 8DF80530 		strb	r3, [sp, #5]
 619:Core/Src/bootloader.c ****     jump_info[7] = jump_address & 0xFF;               /* Reset vector LSB */
ARM GAS  C:\Users\Ali\AppData\Local\Temp\ccszBmV3.s 			page 39


 1031              		.loc 1 619 5 is_stmt 1 view .LVU302
 619:Core/Src/bootloader.c ****     jump_info[7] = jump_address & 0xFF;               /* Reset vector LSB */
 1032              		.loc 1 619 34 is_stmt 0 view .LVU303
 1033 0032 2B0A     		lsrs	r3, r5, #8
 619:Core/Src/bootloader.c ****     jump_info[7] = jump_address & 0xFF;               /* Reset vector LSB */
 1034              		.loc 1 619 18 view .LVU304
 1035 0034 8DF80630 		strb	r3, [sp, #6]
 620:Core/Src/bootloader.c ****     
 1036              		.loc 1 620 5 is_stmt 1 view .LVU305
 620:Core/Src/bootloader.c ****     
 1037              		.loc 1 620 18 is_stmt 0 view .LVU306
 1038 0038 8DF80750 		strb	r5, [sp, #7]
 622:Core/Src/bootloader.c ****     
 1039              		.loc 1 622 5 is_stmt 1 view .LVU307
 1040 003c 0822     		movs	r2, #8
 1041 003e 6946     		mov	r1, sp
 1042 0040 FFF7FEFF 		bl	Bootloader_SendCANMessage
 1043              	.LVL75:
 625:Core/Src/bootloader.c ****     
 1044              		.loc 1 625 5 view .LVU308
 1045 0044 FFF7FEFF 		bl	Bootloader_WaitForCANTransmission
 1046              	.LVL76:
 627:Core/Src/bootloader.c ****     
 1047              		.loc 1 627 5 view .LVU309
 627:Core/Src/bootloader.c ****     
 1048              		.loc 1 627 29 is_stmt 0 view .LVU310
 1049 0048 084B     		ldr	r3, .L86+4
 1050 004a 0522     		movs	r2, #5
 1051 004c 1A70     		strb	r2, [r3]
 630:Core/Src/bootloader.c ****     
 1052              		.loc 1 630 5 is_stmt 1 view .LVU311
 1053 004e FFF7FEFF 		bl	Bootloader_DeInit
 1054              	.LVL77:
 633:Core/Src/bootloader.c ****     
 1055              		.loc 1 633 5 view .LVU312
 1056              	.LBB8:
 1057              	.LBI8:
 210:Drivers/CMSIS/Include/cmsis_gcc.h **** }
 211:Drivers/CMSIS/Include/cmsis_gcc.h **** 
 212:Drivers/CMSIS/Include/cmsis_gcc.h **** 
 213:Drivers/CMSIS/Include/cmsis_gcc.h **** /**
 214:Drivers/CMSIS/Include/cmsis_gcc.h ****   \brief   Get Control Register
 215:Drivers/CMSIS/Include/cmsis_gcc.h ****   \details Returns the content of the Control Register.
 216:Drivers/CMSIS/Include/cmsis_gcc.h ****   \return               Control Register value
 217:Drivers/CMSIS/Include/cmsis_gcc.h ****  */
 218:Drivers/CMSIS/Include/cmsis_gcc.h **** __STATIC_FORCEINLINE uint32_t __get_CONTROL(void)
 219:Drivers/CMSIS/Include/cmsis_gcc.h **** {
 220:Drivers/CMSIS/Include/cmsis_gcc.h ****   uint32_t result;
 221:Drivers/CMSIS/Include/cmsis_gcc.h **** 
 222:Drivers/CMSIS/Include/cmsis_gcc.h ****   __ASM volatile ("MRS %0, control" : "=r" (result) );
 223:Drivers/CMSIS/Include/cmsis_gcc.h ****   return(result);
 224:Drivers/CMSIS/Include/cmsis_gcc.h **** }
 225:Drivers/CMSIS/Include/cmsis_gcc.h **** 
 226:Drivers/CMSIS/Include/cmsis_gcc.h **** 
 227:Drivers/CMSIS/Include/cmsis_gcc.h **** #if (defined (__ARM_FEATURE_CMSE ) && (__ARM_FEATURE_CMSE == 3))
 228:Drivers/CMSIS/Include/cmsis_gcc.h **** /**
 229:Drivers/CMSIS/Include/cmsis_gcc.h ****   \brief   Get Control Register (non-secure)
ARM GAS  C:\Users\Ali\AppData\Local\Temp\ccszBmV3.s 			page 40


 230:Drivers/CMSIS/Include/cmsis_gcc.h ****   \details Returns the content of the non-secure Control Register when in secure mode.
 231:Drivers/CMSIS/Include/cmsis_gcc.h ****   \return               non-secure Control Register value
 232:Drivers/CMSIS/Include/cmsis_gcc.h ****  */
 233:Drivers/CMSIS/Include/cmsis_gcc.h **** __STATIC_FORCEINLINE uint32_t __TZ_get_CONTROL_NS(void)
 234:Drivers/CMSIS/Include/cmsis_gcc.h **** {
 235:Drivers/CMSIS/Include/cmsis_gcc.h ****   uint32_t result;
 236:Drivers/CMSIS/Include/cmsis_gcc.h **** 
 237:Drivers/CMSIS/Include/cmsis_gcc.h ****   __ASM volatile ("MRS %0, control_ns" : "=r" (result) );
 238:Drivers/CMSIS/Include/cmsis_gcc.h ****   return(result);
 239:Drivers/CMSIS/Include/cmsis_gcc.h **** }
 240:Drivers/CMSIS/Include/cmsis_gcc.h **** #endif
 241:Drivers/CMSIS/Include/cmsis_gcc.h **** 
 242:Drivers/CMSIS/Include/cmsis_gcc.h **** 
 243:Drivers/CMSIS/Include/cmsis_gcc.h **** /**
 244:Drivers/CMSIS/Include/cmsis_gcc.h ****   \brief   Set Control Register
 245:Drivers/CMSIS/Include/cmsis_gcc.h ****   \details Writes the given value to the Control Register.
 246:Drivers/CMSIS/Include/cmsis_gcc.h ****   \param [in]    control  Control Register value to set
 247:Drivers/CMSIS/Include/cmsis_gcc.h ****  */
 248:Drivers/CMSIS/Include/cmsis_gcc.h **** __STATIC_FORCEINLINE void __set_CONTROL(uint32_t control)
 249:Drivers/CMSIS/Include/cmsis_gcc.h **** {
 250:Drivers/CMSIS/Include/cmsis_gcc.h ****   __ASM volatile ("MSR control, %0" : : "r" (control) : "memory");
 251:Drivers/CMSIS/Include/cmsis_gcc.h **** }
 252:Drivers/CMSIS/Include/cmsis_gcc.h **** 
 253:Drivers/CMSIS/Include/cmsis_gcc.h **** 
 254:Drivers/CMSIS/Include/cmsis_gcc.h **** #if (defined (__ARM_FEATURE_CMSE ) && (__ARM_FEATURE_CMSE == 3))
 255:Drivers/CMSIS/Include/cmsis_gcc.h **** /**
 256:Drivers/CMSIS/Include/cmsis_gcc.h ****   \brief   Set Control Register (non-secure)
 257:Drivers/CMSIS/Include/cmsis_gcc.h ****   \details Writes the given value to the non-secure Control Register when in secure state.
 258:Drivers/CMSIS/Include/cmsis_gcc.h ****   \param [in]    control  Control Register value to set
 259:Drivers/CMSIS/Include/cmsis_gcc.h ****  */
 260:Drivers/CMSIS/Include/cmsis_gcc.h **** __STATIC_FORCEINLINE void __TZ_set_CONTROL_NS(uint32_t control)
 261:Drivers/CMSIS/Include/cmsis_gcc.h **** {
 262:Drivers/CMSIS/Include/cmsis_gcc.h ****   __ASM volatile ("MSR control_ns, %0" : : "r" (control) : "memory");
 263:Drivers/CMSIS/Include/cmsis_gcc.h **** }
 264:Drivers/CMSIS/Include/cmsis_gcc.h **** #endif
 265:Drivers/CMSIS/Include/cmsis_gcc.h **** 
 266:Drivers/CMSIS/Include/cmsis_gcc.h **** 
 267:Drivers/CMSIS/Include/cmsis_gcc.h **** /**
 268:Drivers/CMSIS/Include/cmsis_gcc.h ****   \brief   Get IPSR Register
 269:Drivers/CMSIS/Include/cmsis_gcc.h ****   \details Returns the content of the IPSR Register.
 270:Drivers/CMSIS/Include/cmsis_gcc.h ****   \return               IPSR Register value
 271:Drivers/CMSIS/Include/cmsis_gcc.h ****  */
 272:Drivers/CMSIS/Include/cmsis_gcc.h **** __STATIC_FORCEINLINE uint32_t __get_IPSR(void)
 273:Drivers/CMSIS/Include/cmsis_gcc.h **** {
 274:Drivers/CMSIS/Include/cmsis_gcc.h ****   uint32_t result;
 275:Drivers/CMSIS/Include/cmsis_gcc.h **** 
 276:Drivers/CMSIS/Include/cmsis_gcc.h ****   __ASM volatile ("MRS %0, ipsr" : "=r" (result) );
 277:Drivers/CMSIS/Include/cmsis_gcc.h ****   return(result);
 278:Drivers/CMSIS/Include/cmsis_gcc.h **** }
 279:Drivers/CMSIS/Include/cmsis_gcc.h **** 
 280:Drivers/CMSIS/Include/cmsis_gcc.h **** 
 281:Drivers/CMSIS/Include/cmsis_gcc.h **** /**
 282:Drivers/CMSIS/Include/cmsis_gcc.h ****   \brief   Get APSR Register
 283:Drivers/CMSIS/Include/cmsis_gcc.h ****   \details Returns the content of the APSR Register.
 284:Drivers/CMSIS/Include/cmsis_gcc.h ****   \return               APSR Register value
 285:Drivers/CMSIS/Include/cmsis_gcc.h ****  */
 286:Drivers/CMSIS/Include/cmsis_gcc.h **** __STATIC_FORCEINLINE uint32_t __get_APSR(void)
ARM GAS  C:\Users\Ali\AppData\Local\Temp\ccszBmV3.s 			page 41


 287:Drivers/CMSIS/Include/cmsis_gcc.h **** {
 288:Drivers/CMSIS/Include/cmsis_gcc.h ****   uint32_t result;
 289:Drivers/CMSIS/Include/cmsis_gcc.h **** 
 290:Drivers/CMSIS/Include/cmsis_gcc.h ****   __ASM volatile ("MRS %0, apsr" : "=r" (result) );
 291:Drivers/CMSIS/Include/cmsis_gcc.h ****   return(result);
 292:Drivers/CMSIS/Include/cmsis_gcc.h **** }
 293:Drivers/CMSIS/Include/cmsis_gcc.h **** 
 294:Drivers/CMSIS/Include/cmsis_gcc.h **** 
 295:Drivers/CMSIS/Include/cmsis_gcc.h **** /**
 296:Drivers/CMSIS/Include/cmsis_gcc.h ****   \brief   Get xPSR Register
 297:Drivers/CMSIS/Include/cmsis_gcc.h ****   \details Returns the content of the xPSR Register.
 298:Drivers/CMSIS/Include/cmsis_gcc.h ****   \return               xPSR Register value
 299:Drivers/CMSIS/Include/cmsis_gcc.h ****  */
 300:Drivers/CMSIS/Include/cmsis_gcc.h **** __STATIC_FORCEINLINE uint32_t __get_xPSR(void)
 301:Drivers/CMSIS/Include/cmsis_gcc.h **** {
 302:Drivers/CMSIS/Include/cmsis_gcc.h ****   uint32_t result;
 303:Drivers/CMSIS/Include/cmsis_gcc.h **** 
 304:Drivers/CMSIS/Include/cmsis_gcc.h ****   __ASM volatile ("MRS %0, xpsr" : "=r" (result) );
 305:Drivers/CMSIS/Include/cmsis_gcc.h ****   return(result);
 306:Drivers/CMSIS/Include/cmsis_gcc.h **** }
 307:Drivers/CMSIS/Include/cmsis_gcc.h **** 
 308:Drivers/CMSIS/Include/cmsis_gcc.h **** 
 309:Drivers/CMSIS/Include/cmsis_gcc.h **** /**
 310:Drivers/CMSIS/Include/cmsis_gcc.h ****   \brief   Get Process Stack Pointer
 311:Drivers/CMSIS/Include/cmsis_gcc.h ****   \details Returns the current value of the Process Stack Pointer (PSP).
 312:Drivers/CMSIS/Include/cmsis_gcc.h ****   \return               PSP Register value
 313:Drivers/CMSIS/Include/cmsis_gcc.h ****  */
 314:Drivers/CMSIS/Include/cmsis_gcc.h **** __STATIC_FORCEINLINE uint32_t __get_PSP(void)
 315:Drivers/CMSIS/Include/cmsis_gcc.h **** {
 316:Drivers/CMSIS/Include/cmsis_gcc.h ****   uint32_t result;
 317:Drivers/CMSIS/Include/cmsis_gcc.h **** 
 318:Drivers/CMSIS/Include/cmsis_gcc.h ****   __ASM volatile ("MRS %0, psp"  : "=r" (result) );
 319:Drivers/CMSIS/Include/cmsis_gcc.h ****   return(result);
 320:Drivers/CMSIS/Include/cmsis_gcc.h **** }
 321:Drivers/CMSIS/Include/cmsis_gcc.h **** 
 322:Drivers/CMSIS/Include/cmsis_gcc.h **** 
 323:Drivers/CMSIS/Include/cmsis_gcc.h **** #if (defined (__ARM_FEATURE_CMSE ) && (__ARM_FEATURE_CMSE == 3))
 324:Drivers/CMSIS/Include/cmsis_gcc.h **** /**
 325:Drivers/CMSIS/Include/cmsis_gcc.h ****   \brief   Get Process Stack Pointer (non-secure)
 326:Drivers/CMSIS/Include/cmsis_gcc.h ****   \details Returns the current value of the non-secure Process Stack Pointer (PSP) when in secure s
 327:Drivers/CMSIS/Include/cmsis_gcc.h ****   \return               PSP Register value
 328:Drivers/CMSIS/Include/cmsis_gcc.h ****  */
 329:Drivers/CMSIS/Include/cmsis_gcc.h **** __STATIC_FORCEINLINE uint32_t __TZ_get_PSP_NS(void)
 330:Drivers/CMSIS/Include/cmsis_gcc.h **** {
 331:Drivers/CMSIS/Include/cmsis_gcc.h ****   uint32_t result;
 332:Drivers/CMSIS/Include/cmsis_gcc.h **** 
 333:Drivers/CMSIS/Include/cmsis_gcc.h ****   __ASM volatile ("MRS %0, psp_ns"  : "=r" (result) );
 334:Drivers/CMSIS/Include/cmsis_gcc.h ****   return(result);
 335:Drivers/CMSIS/Include/cmsis_gcc.h **** }
 336:Drivers/CMSIS/Include/cmsis_gcc.h **** #endif
 337:Drivers/CMSIS/Include/cmsis_gcc.h **** 
 338:Drivers/CMSIS/Include/cmsis_gcc.h **** 
 339:Drivers/CMSIS/Include/cmsis_gcc.h **** /**
 340:Drivers/CMSIS/Include/cmsis_gcc.h ****   \brief   Set Process Stack Pointer
 341:Drivers/CMSIS/Include/cmsis_gcc.h ****   \details Assigns the given value to the Process Stack Pointer (PSP).
 342:Drivers/CMSIS/Include/cmsis_gcc.h ****   \param [in]    topOfProcStack  Process Stack Pointer value to set
 343:Drivers/CMSIS/Include/cmsis_gcc.h ****  */
ARM GAS  C:\Users\Ali\AppData\Local\Temp\ccszBmV3.s 			page 42


 344:Drivers/CMSIS/Include/cmsis_gcc.h **** __STATIC_FORCEINLINE void __set_PSP(uint32_t topOfProcStack)
 345:Drivers/CMSIS/Include/cmsis_gcc.h **** {
 346:Drivers/CMSIS/Include/cmsis_gcc.h ****   __ASM volatile ("MSR psp, %0" : : "r" (topOfProcStack) : );
 347:Drivers/CMSIS/Include/cmsis_gcc.h **** }
 348:Drivers/CMSIS/Include/cmsis_gcc.h **** 
 349:Drivers/CMSIS/Include/cmsis_gcc.h **** 
 350:Drivers/CMSIS/Include/cmsis_gcc.h **** #if (defined (__ARM_FEATURE_CMSE ) && (__ARM_FEATURE_CMSE == 3))
 351:Drivers/CMSIS/Include/cmsis_gcc.h **** /**
 352:Drivers/CMSIS/Include/cmsis_gcc.h ****   \brief   Set Process Stack Pointer (non-secure)
 353:Drivers/CMSIS/Include/cmsis_gcc.h ****   \details Assigns the given value to the non-secure Process Stack Pointer (PSP) when in secure sta
 354:Drivers/CMSIS/Include/cmsis_gcc.h ****   \param [in]    topOfProcStack  Process Stack Pointer value to set
 355:Drivers/CMSIS/Include/cmsis_gcc.h ****  */
 356:Drivers/CMSIS/Include/cmsis_gcc.h **** __STATIC_FORCEINLINE void __TZ_set_PSP_NS(uint32_t topOfProcStack)
 357:Drivers/CMSIS/Include/cmsis_gcc.h **** {
 358:Drivers/CMSIS/Include/cmsis_gcc.h ****   __ASM volatile ("MSR psp_ns, %0" : : "r" (topOfProcStack) : );
 359:Drivers/CMSIS/Include/cmsis_gcc.h **** }
 360:Drivers/CMSIS/Include/cmsis_gcc.h **** #endif
 361:Drivers/CMSIS/Include/cmsis_gcc.h **** 
 362:Drivers/CMSIS/Include/cmsis_gcc.h **** 
 363:Drivers/CMSIS/Include/cmsis_gcc.h **** /**
 364:Drivers/CMSIS/Include/cmsis_gcc.h ****   \brief   Get Main Stack Pointer
 365:Drivers/CMSIS/Include/cmsis_gcc.h ****   \details Returns the current value of the Main Stack Pointer (MSP).
 366:Drivers/CMSIS/Include/cmsis_gcc.h ****   \return               MSP Register value
 367:Drivers/CMSIS/Include/cmsis_gcc.h ****  */
 368:Drivers/CMSIS/Include/cmsis_gcc.h **** __STATIC_FORCEINLINE uint32_t __get_MSP(void)
 369:Drivers/CMSIS/Include/cmsis_gcc.h **** {
 370:Drivers/CMSIS/Include/cmsis_gcc.h ****   uint32_t result;
 371:Drivers/CMSIS/Include/cmsis_gcc.h **** 
 372:Drivers/CMSIS/Include/cmsis_gcc.h ****   __ASM volatile ("MRS %0, msp" : "=r" (result) );
 373:Drivers/CMSIS/Include/cmsis_gcc.h ****   return(result);
 374:Drivers/CMSIS/Include/cmsis_gcc.h **** }
 375:Drivers/CMSIS/Include/cmsis_gcc.h **** 
 376:Drivers/CMSIS/Include/cmsis_gcc.h **** 
 377:Drivers/CMSIS/Include/cmsis_gcc.h **** #if (defined (__ARM_FEATURE_CMSE ) && (__ARM_FEATURE_CMSE == 3))
 378:Drivers/CMSIS/Include/cmsis_gcc.h **** /**
 379:Drivers/CMSIS/Include/cmsis_gcc.h ****   \brief   Get Main Stack Pointer (non-secure)
 380:Drivers/CMSIS/Include/cmsis_gcc.h ****   \details Returns the current value of the non-secure Main Stack Pointer (MSP) when in secure stat
 381:Drivers/CMSIS/Include/cmsis_gcc.h ****   \return               MSP Register value
 382:Drivers/CMSIS/Include/cmsis_gcc.h ****  */
 383:Drivers/CMSIS/Include/cmsis_gcc.h **** __STATIC_FORCEINLINE uint32_t __TZ_get_MSP_NS(void)
 384:Drivers/CMSIS/Include/cmsis_gcc.h **** {
 385:Drivers/CMSIS/Include/cmsis_gcc.h ****   uint32_t result;
 386:Drivers/CMSIS/Include/cmsis_gcc.h **** 
 387:Drivers/CMSIS/Include/cmsis_gcc.h ****   __ASM volatile ("MRS %0, msp_ns" : "=r" (result) );
 388:Drivers/CMSIS/Include/cmsis_gcc.h ****   return(result);
 389:Drivers/CMSIS/Include/cmsis_gcc.h **** }
 390:Drivers/CMSIS/Include/cmsis_gcc.h **** #endif
 391:Drivers/CMSIS/Include/cmsis_gcc.h **** 
 392:Drivers/CMSIS/Include/cmsis_gcc.h **** 
 393:Drivers/CMSIS/Include/cmsis_gcc.h **** /**
 394:Drivers/CMSIS/Include/cmsis_gcc.h ****   \brief   Set Main Stack Pointer
 395:Drivers/CMSIS/Include/cmsis_gcc.h ****   \details Assigns the given value to the Main Stack Pointer (MSP).
 396:Drivers/CMSIS/Include/cmsis_gcc.h ****   \param [in]    topOfMainStack  Main Stack Pointer value to set
 397:Drivers/CMSIS/Include/cmsis_gcc.h ****  */
 398:Drivers/CMSIS/Include/cmsis_gcc.h **** __STATIC_FORCEINLINE void __set_MSP(uint32_t topOfMainStack)
 1058              		.loc 2 398 27 view .LVU313
 1059              	.LBB9:
ARM GAS  C:\Users\Ali\AppData\Local\Temp\ccszBmV3.s 			page 43


 399:Drivers/CMSIS/Include/cmsis_gcc.h **** {
 400:Drivers/CMSIS/Include/cmsis_gcc.h ****   __ASM volatile ("MSR msp, %0" : : "r" (topOfMainStack) : );
 1060              		.loc 2 400 3 view .LVU314
 1061              		.syntax unified
 1062              	@ 400 "Drivers/CMSIS/Include/cmsis_gcc.h" 1
 1063 0052 84F30888 		MSR msp, r4
 1064              	@ 0 "" 2
 1065              	.LVL78:
 1066              		.loc 2 400 3 is_stmt 0 view .LVU315
 1067              		.thumb
 1068              		.syntax unified
 1069              	.LBE9:
 1070              	.LBE8:
 636:Core/Src/bootloader.c ****     
 1071              		.loc 1 636 5 is_stmt 1 view .LVU316
 639:Core/Src/bootloader.c ****     
 1072              		.loc 1 639 5 view .LVU317
 639:Core/Src/bootloader.c ****     
 1073              		.loc 1 639 15 is_stmt 0 view .LVU318
 1074 0056 064B     		ldr	r3, .L86+8
 1075 0058 9E60     		str	r6, [r3, #8]
 642:Core/Src/bootloader.c ****     
 1076              		.loc 1 642 5 is_stmt 1 view .LVU319
 1077 005a A847     		blx	r5
 1078              	.LVL79:
 645:Core/Src/bootloader.c **** }
 1079              		.loc 1 645 5 view .LVU320
 645:Core/Src/bootloader.c **** }
 1080              		.loc 1 645 12 is_stmt 0 view .LVU321
 1081 005c 0020     		movs	r0, #0
 1082              	.LVL80:
 1083              	.L83:
 646:Core/Src/bootloader.c **** 
 1084              		.loc 1 646 1 view .LVU322
 1085 005e 02B0     		add	sp, sp, #8
 1086              		.cfi_remember_state
 1087              		.cfi_def_cfa_offset 16
 1088              		@ sp needed
 1089 0060 70BD     		pop	{r4, r5, r6, pc}
 1090              	.L84:
 1091              		.cfi_restore_state
 605:Core/Src/bootloader.c ****     }
 1092              		.loc 1 605 16 view .LVU323
 1093 0062 0620     		movs	r0, #6
 1094 0064 FBE7     		b	.L83
 1095              	.L87:
 1096 0066 00BF     		.align	2
 1097              	.L86:
 1098 0068 00800008 		.word	134250496
 1099 006c 00000000 		.word	bootloader_status
 1100 0070 00ED00E0 		.word	-536810240
 1101              		.cfi_endproc
 1102              	.LFE142:
 1104              		.section	.text.Bootloader_SetApplicationValidFlag,"ax",%progbits
 1105              		.align	1
 1106              		.global	Bootloader_SetApplicationValidFlag
 1107              		.syntax unified
ARM GAS  C:\Users\Ali\AppData\Local\Temp\ccszBmV3.s 			page 44


 1108              		.thumb
 1109              		.thumb_func
 1111              	Bootloader_SetApplicationValidFlag:
 1112              	.LFB146:
 696:Core/Src/bootloader.c **** 
 697:Core/Src/bootloader.c **** /**
 698:Core/Src/bootloader.c ****   * @brief  Set application valid flag in flash
 699:Core/Src/bootloader.c ****   * @retval ERR_NONE if successful, error code otherwise
 700:Core/Src/bootloader.c ****   */
 701:Core/Src/bootloader.c **** uint8_t Bootloader_SetApplicationValidFlag(void)
 702:Core/Src/bootloader.c **** {
 1113              		.loc 1 702 1 is_stmt 1 view -0
 1114              		.cfi_startproc
 1115              		@ args = 0, pretend = 0, frame = 32
 1116              		@ frame_needed = 0, uses_anonymous_args = 0
 1117 0000 10B5     		push	{r4, lr}
 1118              		.cfi_def_cfa_offset 8
 1119              		.cfi_offset 4, -8
 1120              		.cfi_offset 14, -4
 1121 0002 88B0     		sub	sp, sp, #32
 1122              		.cfi_def_cfa_offset 40
 703:Core/Src/bootloader.c ****     HAL_StatusTypeDef status;
 1123              		.loc 1 703 5 view .LVU325
 704:Core/Src/bootloader.c ****     uint32_t magic_data[2];
 1124              		.loc 1 704 5 view .LVU326
 705:Core/Src/bootloader.c ****     uint64_t data_to_write;
 1125              		.loc 1 705 5 view .LVU327
 706:Core/Src/bootloader.c ****     
 707:Core/Src/bootloader.c ****     magic_data[0] = APP_VALID_MAGIC_NUMBER;
 1126              		.loc 1 707 5 view .LVU328
 1127              		.loc 1 707 19 is_stmt 0 view .LVU329
 1128 0004 164B     		ldr	r3, .L95+8
 1129 0006 0693     		str	r3, [sp, #24]
 708:Core/Src/bootloader.c ****     magic_data[1] = APP_VALID_FLAG_COMPLEMENT;
 1130              		.loc 1 708 5 is_stmt 1 view .LVU330
 1131              		.loc 1 708 19 is_stmt 0 view .LVU331
 1132 0008 164B     		ldr	r3, .L95+12
 1133 000a 0793     		str	r3, [sp, #28]
 709:Core/Src/bootloader.c ****     
 710:Core/Src/bootloader.c ****     /* Unlock flash */
 711:Core/Src/bootloader.c ****     HAL_FLASH_Unlock();
 1134              		.loc 1 711 5 is_stmt 1 view .LVU332
 1135 000c FFF7FEFF 		bl	HAL_FLASH_Unlock
 1136              	.LVL81:
 712:Core/Src/bootloader.c ****     
 713:Core/Src/bootloader.c ****     /* Erase the page containing the flag (Page 63 - last page before application) */
 714:Core/Src/bootloader.c ****     FLASH_EraseInitTypeDef erase_init;
 1137              		.loc 1 714 5 view .LVU333
 715:Core/Src/bootloader.c ****     uint32_t page_error;
 1138              		.loc 1 715 5 view .LVU334
 716:Core/Src/bootloader.c ****     
 717:Core/Src/bootloader.c ****     erase_init.TypeErase = FLASH_TYPEERASE_PAGES;
 1139              		.loc 1 717 5 view .LVU335
 1140              		.loc 1 717 26 is_stmt 0 view .LVU336
 1141 0010 0023     		movs	r3, #0
 1142 0012 0293     		str	r3, [sp, #8]
 718:Core/Src/bootloader.c ****     erase_init.Page = 63;  /* Last page of bootloader area (32KB / 2KB per page = page 0-15, but fl
ARM GAS  C:\Users\Ali\AppData\Local\Temp\ccszBmV3.s 			page 45


 1143              		.loc 1 718 5 is_stmt 1 view .LVU337
 1144              		.loc 1 718 21 is_stmt 0 view .LVU338
 1145 0014 3F23     		movs	r3, #63
 1146 0016 0493     		str	r3, [sp, #16]
 719:Core/Src/bootloader.c ****     erase_init.NbPages = 1;
 1147              		.loc 1 719 5 is_stmt 1 view .LVU339
 1148              		.loc 1 719 24 is_stmt 0 view .LVU340
 1149 0018 0123     		movs	r3, #1
 1150 001a 0593     		str	r3, [sp, #20]
 720:Core/Src/bootloader.c ****     
 721:Core/Src/bootloader.c ****     status = HAL_FLASHEx_Erase(&erase_init, &page_error);
 1151              		.loc 1 721 5 is_stmt 1 view .LVU341
 1152              		.loc 1 721 14 is_stmt 0 view .LVU342
 1153 001c 01A9     		add	r1, sp, #4
 1154 001e 02A8     		add	r0, sp, #8
 1155 0020 FFF7FEFF 		bl	HAL_FLASHEx_Erase
 1156              	.LVL82:
 722:Core/Src/bootloader.c ****     if (status != HAL_OK)
 1157              		.loc 1 722 5 is_stmt 1 view .LVU343
 1158              		.loc 1 722 8 is_stmt 0 view .LVU344
 1159 0024 68B9     		cbnz	r0, .L93
 723:Core/Src/bootloader.c ****     {
 724:Core/Src/bootloader.c ****         HAL_FLASH_Lock();
 725:Core/Src/bootloader.c ****         return ERR_FLASH_ERASE_FAILED;
 726:Core/Src/bootloader.c ****     }
 727:Core/Src/bootloader.c ****     
 728:Core/Src/bootloader.c ****     /* Write magic number (first 4 bytes) */
 729:Core/Src/bootloader.c ****     status = HAL_FLASH_Program(FLASH_TYPEPROGRAM_DOUBLEWORD, APP_VALID_FLAG_ADDRESS, 
 1160              		.loc 1 729 5 is_stmt 1 view .LVU345
 1161              		.loc 1 729 14 is_stmt 0 view .LVU346
 1162 0026 0CA3     		adr	r3, .L95
 1163 0028 D3E90023 		ldrd	r2, [r3]
 1164 002c 0E49     		ldr	r1, .L95+16
 1165 002e 0020     		movs	r0, #0
 1166              	.LVL83:
 1167              		.loc 1 729 14 view .LVU347
 1168 0030 FFF7FEFF 		bl	HAL_FLASH_Program
 1169              	.LVL84:
 730:Core/Src/bootloader.c ****                                 *((uint64_t*)magic_data));
 731:Core/Src/bootloader.c ****     
 732:Core/Src/bootloader.c ****     if (status != HAL_OK)
 1170              		.loc 1 732 5 is_stmt 1 view .LVU348
 1171              		.loc 1 732 8 is_stmt 0 view .LVU349
 1172 0034 0446     		mov	r4, r0
 1173 0036 40B9     		cbnz	r0, .L94
 733:Core/Src/bootloader.c ****     {
 734:Core/Src/bootloader.c ****         HAL_FLASH_Lock();
 735:Core/Src/bootloader.c ****         return ERR_FLASH_WRITE_FAILED;
 736:Core/Src/bootloader.c ****     }
 737:Core/Src/bootloader.c ****     
 738:Core/Src/bootloader.c ****     /* Lock flash */
 739:Core/Src/bootloader.c ****     HAL_FLASH_Lock();
 1174              		.loc 1 739 5 is_stmt 1 view .LVU350
 1175 0038 FFF7FEFF 		bl	HAL_FLASH_Lock
 1176              	.LVL85:
 740:Core/Src/bootloader.c ****     
 741:Core/Src/bootloader.c ****     return ERR_NONE;
ARM GAS  C:\Users\Ali\AppData\Local\Temp\ccszBmV3.s 			page 46


 1177              		.loc 1 741 5 view .LVU351
 1178              	.L90:
 742:Core/Src/bootloader.c **** }
 1179              		.loc 1 742 1 is_stmt 0 view .LVU352
 1180 003c 2046     		mov	r0, r4
 1181 003e 08B0     		add	sp, sp, #32
 1182              		.cfi_remember_state
 1183              		.cfi_def_cfa_offset 8
 1184              		@ sp needed
 1185 0040 10BD     		pop	{r4, pc}
 1186              	.LVL86:
 1187              	.L93:
 1188              		.cfi_restore_state
 724:Core/Src/bootloader.c ****         return ERR_FLASH_ERASE_FAILED;
 1189              		.loc 1 724 9 is_stmt 1 view .LVU353
 1190 0042 FFF7FEFF 		bl	HAL_FLASH_Lock
 1191              	.LVL87:
 725:Core/Src/bootloader.c ****     }
 1192              		.loc 1 725 9 view .LVU354
 725:Core/Src/bootloader.c ****     }
 1193              		.loc 1 725 16 is_stmt 0 view .LVU355
 1194 0046 0324     		movs	r4, #3
 1195 0048 F8E7     		b	.L90
 1196              	.LVL88:
 1197              	.L94:
 734:Core/Src/bootloader.c ****         return ERR_FLASH_WRITE_FAILED;
 1198              		.loc 1 734 9 is_stmt 1 view .LVU356
 1199 004a FFF7FEFF 		bl	HAL_FLASH_Lock
 1200              	.LVL89:
 735:Core/Src/bootloader.c ****     }
 1201              		.loc 1 735 9 view .LVU357
 735:Core/Src/bootloader.c ****     }
 1202              		.loc 1 735 16 is_stmt 0 view .LVU358
 1203 004e 0424     		movs	r4, #4
 1204              	.LVL90:
 735:Core/Src/bootloader.c ****     }
 1205              		.loc 1 735 16 view .LVU359
 1206 0050 F4E7     		b	.L90
 1207              	.L96:
 1208 0052 00BFAFF3 		.align	3
 1208      0080
 1209              	.L95:
 1210 0058 EFBEADDE 		.word	-559038737
 1211 005c 10415221 		.word	559038736
 1212 0060 EFBEADDE 		.word	-559038737
 1213 0064 10415221 		.word	559038736
 1214 0068 F87F0008 		.word	134250488
 1215              		.cfi_endproc
 1216              	.LFE146:
 1218              		.section	.text.Bootloader_CheckApplicationValidFlag,"ax",%progbits
 1219              		.align	1
 1220              		.global	Bootloader_CheckApplicationValidFlag
 1221              		.syntax unified
 1222              		.thumb
 1223              		.thumb_func
 1225              	Bootloader_CheckApplicationValidFlag:
 1226              	.LFB147:
ARM GAS  C:\Users\Ali\AppData\Local\Temp\ccszBmV3.s 			page 47


 743:Core/Src/bootloader.c **** 
 744:Core/Src/bootloader.c **** /**
 745:Core/Src/bootloader.c ****   * @brief  Check if application valid flag is set
 746:Core/Src/bootloader.c ****   * @retval 1 if valid, 0 if not valid
 747:Core/Src/bootloader.c ****   */
 748:Core/Src/bootloader.c **** uint8_t Bootloader_CheckApplicationValidFlag(void)
 749:Core/Src/bootloader.c **** {
 1227              		.loc 1 749 1 is_stmt 1 view -0
 1228              		.cfi_startproc
 1229              		@ args = 0, pretend = 0, frame = 0
 1230              		@ frame_needed = 0, uses_anonymous_args = 0
 1231              		@ link register save eliminated.
 750:Core/Src/bootloader.c ****     uint32_t *flag_ptr = (uint32_t *)APP_VALID_FLAG_ADDRESS;
 1232              		.loc 1 750 5 view .LVU361
 1233              	.LVL91:
 751:Core/Src/bootloader.c ****     
 752:Core/Src/bootloader.c ****     /* Check if both magic number and complement are present */
 753:Core/Src/bootloader.c ****     if (flag_ptr[0] == APP_VALID_MAGIC_NUMBER && 
 1234              		.loc 1 753 5 view .LVU362
 1235              		.loc 1 753 17 is_stmt 0 view .LVU363
 1236 0000 084B     		ldr	r3, .L102
 1237 0002 D3F8F82F 		ldr	r2, [r3, #4088]
 1238              		.loc 1 753 8 view .LVU364
 1239 0006 084B     		ldr	r3, .L102+4
 1240 0008 9A42     		cmp	r2, r3
 1241 000a 01D0     		beq	.L101
 754:Core/Src/bootloader.c ****         flag_ptr[1] == APP_VALID_FLAG_COMPLEMENT)
 755:Core/Src/bootloader.c ****     {
 756:Core/Src/bootloader.c ****         return 1;  /* Valid flag found */
 757:Core/Src/bootloader.c ****     }
 758:Core/Src/bootloader.c ****     
 759:Core/Src/bootloader.c ****     return 0;  /* No valid flag */
 1242              		.loc 1 759 12 view .LVU365
 1243 000c 0020     		movs	r0, #0
 1244 000e 7047     		bx	lr
 1245              	.L101:
 754:Core/Src/bootloader.c ****         flag_ptr[1] == APP_VALID_FLAG_COMPLEMENT)
 1246              		.loc 1 754 17 view .LVU366
 1247 0010 044B     		ldr	r3, .L102
 1248 0012 D3F8FC2F 		ldr	r2, [r3, #4092]
 753:Core/Src/bootloader.c ****         flag_ptr[1] == APP_VALID_FLAG_COMPLEMENT)
 1249              		.loc 1 753 47 discriminator 1 view .LVU367
 1250 0016 054B     		ldr	r3, .L102+8
 1251 0018 9A42     		cmp	r2, r3
 1252 001a 01D0     		beq	.L100
 1253              		.loc 1 759 12 view .LVU368
 1254 001c 0020     		movs	r0, #0
 1255 001e 7047     		bx	lr
 1256              	.L100:
 756:Core/Src/bootloader.c ****     }
 1257              		.loc 1 756 16 view .LVU369
 1258 0020 0120     		movs	r0, #1
 760:Core/Src/bootloader.c **** }
 1259              		.loc 1 760 1 view .LVU370
 1260 0022 7047     		bx	lr
 1261              	.L103:
 1262              		.align	2
ARM GAS  C:\Users\Ali\AppData\Local\Temp\ccszBmV3.s 			page 48


 1263              	.L102:
 1264 0024 00700008 		.word	134246400
 1265 0028 EFBEADDE 		.word	-559038737
 1266 002c 10415221 		.word	559038736
 1267              		.cfi_endproc
 1268              	.LFE147:
 1270              		.section	.text.Bootloader_Main,"ax",%progbits
 1271              		.align	1
 1272              		.global	Bootloader_Main
 1273              		.syntax unified
 1274              		.thumb
 1275              		.thumb_func
 1277              	Bootloader_Main:
 1278              	.LFB134:
 112:Core/Src/bootloader.c ****     uint32_t timeout_start = HAL_GetTick();
 1279              		.loc 1 112 1 is_stmt 1 view -0
 1280              		.cfi_startproc
 1281              		@ args = 0, pretend = 0, frame = 0
 1282              		@ frame_needed = 0, uses_anonymous_args = 0
 1283 0000 38B5     		push	{r3, r4, r5, lr}
 1284              		.cfi_def_cfa_offset 16
 1285              		.cfi_offset 3, -16
 1286              		.cfi_offset 4, -12
 1287              		.cfi_offset 5, -8
 1288              		.cfi_offset 14, -4
 113:Core/Src/bootloader.c ****     uint8_t timeout_expired = 0;
 1289              		.loc 1 113 5 view .LVU372
 113:Core/Src/bootloader.c ****     uint8_t timeout_expired = 0;
 1290              		.loc 1 113 30 is_stmt 0 view .LVU373
 1291 0002 FFF7FEFF 		bl	HAL_GetTick
 1292              	.LVL92:
 1293 0006 0546     		mov	r5, r0
 1294              	.LVL93:
 114:Core/Src/bootloader.c ****     
 1295              		.loc 1 114 5 is_stmt 1 view .LVU374
 117:Core/Src/bootloader.c ****     tx_data[1] = 0x01;  /* Bootloader version */
 1296              		.loc 1 117 5 view .LVU375
 117:Core/Src/bootloader.c ****     tx_data[1] = 0x01;  /* Bootloader version */
 1297              		.loc 1 117 16 is_stmt 0 view .LVU376
 1298 0008 2249     		ldr	r1, .L111
 1299 000a 1420     		movs	r0, #20
 1300              	.LVL94:
 117:Core/Src/bootloader.c ****     tx_data[1] = 0x01;  /* Bootloader version */
 1301              		.loc 1 117 16 view .LVU377
 1302 000c 0870     		strb	r0, [r1]
 118:Core/Src/bootloader.c ****     tx_data[2] = 0x00;  /* Bootloader subversion */
 1303              		.loc 1 118 5 is_stmt 1 view .LVU378
 118:Core/Src/bootloader.c ****     tx_data[2] = 0x00;  /* Bootloader subversion */
 1304              		.loc 1 118 16 is_stmt 0 view .LVU379
 1305 000e 0123     		movs	r3, #1
 1306 0010 4B70     		strb	r3, [r1, #1]
 119:Core/Src/bootloader.c ****     Bootloader_SendCANMessage(RESP_READY, tx_data, 3);
 1307              		.loc 1 119 5 is_stmt 1 view .LVU380
 119:Core/Src/bootloader.c ****     Bootloader_SendCANMessage(RESP_READY, tx_data, 3);
 1308              		.loc 1 119 16 is_stmt 0 view .LVU381
 1309 0012 0024     		movs	r4, #0
 1310 0014 8C70     		strb	r4, [r1, #2]
ARM GAS  C:\Users\Ali\AppData\Local\Temp\ccszBmV3.s 			page 49


 120:Core/Src/bootloader.c ****     
 1311              		.loc 1 120 5 is_stmt 1 view .LVU382
 1312 0016 0322     		movs	r2, #3
 1313 0018 FFF7FEFF 		bl	Bootloader_SendCANMessage
 1314              	.LVL95:
 1315 001c 27E0     		b	.L107
 1316              	.LVL96:
 1317              	.L110:
 136:Core/Src/bootloader.c ****                 tx_data[1] = 0xAA;  /* Special: Timeout auto-jump */
 1318              		.loc 1 136 17 view .LVU383
 136:Core/Src/bootloader.c ****                 tx_data[1] = 0xAA;  /* Special: Timeout auto-jump */
 1319              		.loc 1 136 28 is_stmt 0 view .LVU384
 1320 001e 1D49     		ldr	r1, .L111
 1321 0020 1420     		movs	r0, #20
 1322 0022 0870     		strb	r0, [r1]
 137:Core/Src/bootloader.c ****                 tx_data[2] = 0x55;
 1323              		.loc 1 137 17 is_stmt 1 view .LVU385
 137:Core/Src/bootloader.c ****                 tx_data[2] = 0x55;
 1324              		.loc 1 137 28 is_stmt 0 view .LVU386
 1325 0024 AA23     		movs	r3, #170
 1326 0026 4B70     		strb	r3, [r1, #1]
 138:Core/Src/bootloader.c ****                 Bootloader_SendCANMessage(RESP_READY, tx_data, 3);
 1327              		.loc 1 138 17 is_stmt 1 view .LVU387
 138:Core/Src/bootloader.c ****                 Bootloader_SendCANMessage(RESP_READY, tx_data, 3);
 1328              		.loc 1 138 28 is_stmt 0 view .LVU388
 1329 0028 5523     		movs	r3, #85
 1330 002a 8B70     		strb	r3, [r1, #2]
 139:Core/Src/bootloader.c **** 
 1331              		.loc 1 139 17 is_stmt 1 view .LVU389
 1332 002c 0322     		movs	r2, #3
 1333 002e FFF7FEFF 		bl	Bootloader_SendCANMessage
 1334              	.LVL97:
 142:Core/Src/bootloader.c ****                 HAL_Delay(10);
 1335              		.loc 1 142 17 view .LVU390
 1336 0032 FFF7FEFF 		bl	Bootloader_WaitForCANTransmission
 1337              	.LVL98:
 143:Core/Src/bootloader.c **** 
 1338              		.loc 1 143 17 view .LVU391
 1339 0036 0A20     		movs	r0, #10
 1340 0038 FFF7FEFF 		bl	HAL_Delay
 1341              	.LVL99:
 146:Core/Src/bootloader.c ****             }
 1342              		.loc 1 146 17 view .LVU392
 1343 003c FFF7FEFF 		bl	Bootloader_JumpToApplication
 1344              	.LVL100:
 130:Core/Src/bootloader.c **** 
 1345              		.loc 1 130 29 is_stmt 0 view .LVU393
 1346 0040 0124     		movs	r4, #1
 1347              	.LVL101:
 1348              	.L105:
 152:Core/Src/bootloader.c ****         {
 1349              		.loc 1 152 9 is_stmt 1 view .LVU394
 152:Core/Src/bootloader.c ****         {
 1350              		.loc 1 152 13 is_stmt 0 view .LVU395
 1351 0042 154B     		ldr	r3, .L111+4
 1352 0044 1B78     		ldrb	r3, [r3]	@ zero_extendqisi2
 152:Core/Src/bootloader.c ****         {
ARM GAS  C:\Users\Ali\AppData\Local\Temp\ccszBmV3.s 			page 50


 1353              		.loc 1 152 12 view .LVU396
 1354 0046 7BB1     		cbz	r3, .L106
 155:Core/Src/bootloader.c ****             tx_data[1] = 0xFF;  /* Special: About to jump */
 1355              		.loc 1 155 13 is_stmt 1 view .LVU397
 155:Core/Src/bootloader.c ****             tx_data[1] = 0xFF;  /* Special: About to jump */
 1356              		.loc 1 155 24 is_stmt 0 view .LVU398
 1357 0048 1249     		ldr	r1, .L111
 1358 004a 1420     		movs	r0, #20
 1359 004c 0870     		strb	r0, [r1]
 156:Core/Src/bootloader.c ****             tx_data[2] = 0xFF;
 1360              		.loc 1 156 13 is_stmt 1 view .LVU399
 156:Core/Src/bootloader.c ****             tx_data[2] = 0xFF;
 1361              		.loc 1 156 24 is_stmt 0 view .LVU400
 1362 004e FF23     		movs	r3, #255
 1363 0050 4B70     		strb	r3, [r1, #1]
 157:Core/Src/bootloader.c ****             Bootloader_SendCANMessage(RESP_READY, tx_data, 3);
 1364              		.loc 1 157 13 is_stmt 1 view .LVU401
 157:Core/Src/bootloader.c ****             Bootloader_SendCANMessage(RESP_READY, tx_data, 3);
 1365              		.loc 1 157 24 is_stmt 0 view .LVU402
 1366 0052 8B70     		strb	r3, [r1, #2]
 158:Core/Src/bootloader.c ****             
 1367              		.loc 1 158 13 is_stmt 1 view .LVU403
 1368 0054 0322     		movs	r2, #3
 1369 0056 FFF7FEFF 		bl	Bootloader_SendCANMessage
 1370              	.LVL102:
 161:Core/Src/bootloader.c ****             
 1371              		.loc 1 161 13 view .LVU404
 1372 005a FFF7FEFF 		bl	Bootloader_WaitForCANTransmission
 1373              	.LVL103:
 164:Core/Src/bootloader.c ****             
 1374              		.loc 1 164 13 view .LVU405
 1375 005e FFF7FEFF 		bl	Bootloader_JumpToApplication
 1376              	.LVL104:
 167:Core/Src/bootloader.c ****         }
 1377              		.loc 1 167 13 view .LVU406
 167:Core/Src/bootloader.c ****         }
 1378              		.loc 1 167 30 is_stmt 0 view .LVU407
 1379 0062 0D4B     		ldr	r3, .L111+4
 1380 0064 0022     		movs	r2, #0
 1381 0066 1A70     		strb	r2, [r3]
 1382              	.L106:
 171:Core/Src/bootloader.c ****     }
 1383              		.loc 1 171 9 is_stmt 1 view .LVU408
 1384 0068 0120     		movs	r0, #1
 1385 006a FFF7FEFF 		bl	HAL_Delay
 1386              	.LVL105:
 123:Core/Src/bootloader.c ****     {
 1387              		.loc 1 123 11 view .LVU409
 1388              	.L107:
 123:Core/Src/bootloader.c ****     {
 1389              		.loc 1 123 5 view .LVU410
 127:Core/Src/bootloader.c ****             (HAL_GetTick() - timeout_start >= BOOTLOADER_TIMEOUT_MS))
 1390              		.loc 1 127 9 view .LVU411
 127:Core/Src/bootloader.c ****             (HAL_GetTick() - timeout_start >= BOOTLOADER_TIMEOUT_MS))
 1391              		.loc 1 127 12 is_stmt 0 view .LVU412
 1392 006e 002C     		cmp	r4, #0
 1393 0070 E7D1     		bne	.L105
ARM GAS  C:\Users\Ali\AppData\Local\Temp\ccszBmV3.s 			page 51


 127:Core/Src/bootloader.c ****             (HAL_GetTick() - timeout_start >= BOOTLOADER_TIMEOUT_MS))
 1394              		.loc 1 127 33 discriminator 1 view .LVU413
 1395 0072 0A4B     		ldr	r3, .L111+8
 1396 0074 1B78     		ldrb	r3, [r3]	@ zero_extendqisi2
 127:Core/Src/bootloader.c ****             (HAL_GetTick() - timeout_start >= BOOTLOADER_TIMEOUT_MS))
 1397              		.loc 1 127 30 discriminator 1 view .LVU414
 1398 0076 002B     		cmp	r3, #0
 1399 0078 E3D1     		bne	.L105
 128:Core/Src/bootloader.c ****         {
 1400              		.loc 1 128 14 view .LVU415
 1401 007a FFF7FEFF 		bl	HAL_GetTick
 1402              	.LVL106:
 128:Core/Src/bootloader.c ****         {
 1403              		.loc 1 128 28 discriminator 1 view .LVU416
 1404 007e 401B     		subs	r0, r0, r5
 127:Core/Src/bootloader.c ****             (HAL_GetTick() - timeout_start >= BOOTLOADER_TIMEOUT_MS))
 1405              		.loc 1 127 55 discriminator 2 view .LVU417
 1406 0080 42F20F73 		movw	r3, #9999
 1407 0084 9842     		cmp	r0, r3
 1408 0086 DCD9     		bls	.L105
 130:Core/Src/bootloader.c **** 
 1409              		.loc 1 130 13 is_stmt 1 view .LVU418
 1410              	.LVL107:
 133:Core/Src/bootloader.c ****             {
 1411              		.loc 1 133 13 view .LVU419
 133:Core/Src/bootloader.c ****             {
 1412              		.loc 1 133 17 is_stmt 0 view .LVU420
 1413 0088 FFF7FEFF 		bl	Bootloader_CheckApplicationValidFlag
 1414              	.LVL108:
 133:Core/Src/bootloader.c ****             {
 1415              		.loc 1 133 16 discriminator 1 view .LVU421
 1416 008c 0028     		cmp	r0, #0
 1417 008e C6D1     		bne	.L110
 130:Core/Src/bootloader.c **** 
 1418              		.loc 1 130 29 view .LVU422
 1419 0090 0124     		movs	r4, #1
 1420 0092 D6E7     		b	.L105
 1421              	.L112:
 1422              		.align	2
 1423              	.L111:
 1424 0094 00000000 		.word	tx_data
 1425 0098 00000000 		.word	jump_to_app_flag
 1426 009c 00000000 		.word	can_command_received
 1427              		.cfi_endproc
 1428              	.LFE134:
 1430              		.section	.text.Bootloader_ClearApplicationValidFlag,"ax",%progbits
 1431              		.align	1
 1432              		.global	Bootloader_ClearApplicationValidFlag
 1433              		.syntax unified
 1434              		.thumb
 1435              		.thumb_func
 1437              	Bootloader_ClearApplicationValidFlag:
 1438              	.LFB148:
 761:Core/Src/bootloader.c **** 
 762:Core/Src/bootloader.c **** /**
 763:Core/Src/bootloader.c ****   * @brief  Clear application valid flag
 764:Core/Src/bootloader.c ****   * @retval None
ARM GAS  C:\Users\Ali\AppData\Local\Temp\ccszBmV3.s 			page 52


 765:Core/Src/bootloader.c ****   */
 766:Core/Src/bootloader.c **** void Bootloader_ClearApplicationValidFlag(void)
 767:Core/Src/bootloader.c **** {
 1439              		.loc 1 767 1 is_stmt 1 view -0
 1440              		.cfi_startproc
 1441              		@ args = 0, pretend = 0, frame = 24
 1442              		@ frame_needed = 0, uses_anonymous_args = 0
 1443 0000 00B5     		push	{lr}
 1444              		.cfi_def_cfa_offset 4
 1445              		.cfi_offset 14, -4
 1446 0002 87B0     		sub	sp, sp, #28
 1447              		.cfi_def_cfa_offset 32
 768:Core/Src/bootloader.c ****     HAL_StatusTypeDef status;
 1448              		.loc 1 768 5 view .LVU424
 769:Core/Src/bootloader.c ****     FLASH_EraseInitTypeDef erase_init;
 1449              		.loc 1 769 5 view .LVU425
 770:Core/Src/bootloader.c ****     uint32_t page_error;
 1450              		.loc 1 770 5 view .LVU426
 771:Core/Src/bootloader.c ****     
 772:Core/Src/bootloader.c ****     /* Unlock flash */
 773:Core/Src/bootloader.c ****     HAL_FLASH_Unlock();
 1451              		.loc 1 773 5 view .LVU427
 1452 0004 FFF7FEFF 		bl	HAL_FLASH_Unlock
 1453              	.LVL109:
 774:Core/Src/bootloader.c ****     
 775:Core/Src/bootloader.c ****     /* Erase the page containing the flag */
 776:Core/Src/bootloader.c ****     erase_init.TypeErase = FLASH_TYPEERASE_PAGES;
 1454              		.loc 1 776 5 view .LVU428
 1455              		.loc 1 776 26 is_stmt 0 view .LVU429
 1456 0008 0023     		movs	r3, #0
 1457 000a 0293     		str	r3, [sp, #8]
 777:Core/Src/bootloader.c ****     erase_init.Page = 63;  /* Last page of bootloader area */
 1458              		.loc 1 777 5 is_stmt 1 view .LVU430
 1459              		.loc 1 777 21 is_stmt 0 view .LVU431
 1460 000c 3F23     		movs	r3, #63
 1461 000e 0493     		str	r3, [sp, #16]
 778:Core/Src/bootloader.c ****     erase_init.NbPages = 1;
 1462              		.loc 1 778 5 is_stmt 1 view .LVU432
 1463              		.loc 1 778 24 is_stmt 0 view .LVU433
 1464 0010 0123     		movs	r3, #1
 1465 0012 0593     		str	r3, [sp, #20]
 779:Core/Src/bootloader.c ****     
 780:Core/Src/bootloader.c ****     status = HAL_FLASHEx_Erase(&erase_init, &page_error);
 1466              		.loc 1 780 5 is_stmt 1 view .LVU434
 1467              		.loc 1 780 14 is_stmt 0 view .LVU435
 1468 0014 01A9     		add	r1, sp, #4
 1469 0016 02A8     		add	r0, sp, #8
 1470 0018 FFF7FEFF 		bl	HAL_FLASHEx_Erase
 1471              	.LVL110:
 781:Core/Src/bootloader.c ****     
 782:Core/Src/bootloader.c ****     /* Lock flash */
 783:Core/Src/bootloader.c ****     HAL_FLASH_Lock();
 1472              		.loc 1 783 5 is_stmt 1 view .LVU436
 1473 001c FFF7FEFF 		bl	HAL_FLASH_Lock
 1474              	.LVL111:
 784:Core/Src/bootloader.c **** }
 1475              		.loc 1 784 1 is_stmt 0 view .LVU437
ARM GAS  C:\Users\Ali\AppData\Local\Temp\ccszBmV3.s 			page 53


 1476 0020 07B0     		add	sp, sp, #28
 1477              		.cfi_def_cfa_offset 4
 1478              		@ sp needed
 1479 0022 5DF804FB 		ldr	pc, [sp], #4
 1480              		.cfi_endproc
 1481              	.LFE148:
 1483              		.section	.text.Bootloader_ProcessCANMessage,"ax",%progbits
 1484              		.align	1
 1485              		.global	Bootloader_ProcessCANMessage
 1486              		.syntax unified
 1487              		.thumb
 1488              		.thumb_func
 1490              	Bootloader_ProcessCANMessage:
 1491              	.LFB135:
 180:Core/Src/bootloader.c ****     uint8_t command;
 1492              		.loc 1 180 1 is_stmt 1 view -0
 1493              		.cfi_startproc
 1494              		@ args = 0, pretend = 0, frame = 0
 1495              		@ frame_needed = 0, uses_anonymous_args = 0
 1496 0000 10B5     		push	{r4, lr}
 1497              		.cfi_def_cfa_offset 8
 1498              		.cfi_offset 4, -8
 1499              		.cfi_offset 14, -4
 181:Core/Src/bootloader.c ****     uint32_t address;
 1500              		.loc 1 181 5 view .LVU439
 182:Core/Src/bootloader.c ****     uint16_t length;
 1501              		.loc 1 182 5 view .LVU440
 183:Core/Src/bootloader.c ****     uint8_t result;
 1502              		.loc 1 183 5 view .LVU441
 184:Core/Src/bootloader.c **** 
 1503              		.loc 1 184 5 view .LVU442
 187:Core/Src/bootloader.c **** 
 1504              		.loc 1 187 5 view .LVU443
 187:Core/Src/bootloader.c **** 
 1505              		.loc 1 187 26 is_stmt 0 view .LVU444
 1506 0002 864B     		ldr	r3, .L146
 1507 0004 0122     		movs	r2, #1
 1508 0006 1A70     		strb	r2, [r3]
 190:Core/Src/bootloader.c **** 
 1509              		.loc 1 190 5 is_stmt 1 view .LVU445
 190:Core/Src/bootloader.c **** 
 1510              		.loc 1 190 13 is_stmt 0 view .LVU446
 1511 0008 854B     		ldr	r3, .L146+4
 1512 000a 1B78     		ldrb	r3, [r3]	@ zero_extendqisi2
 1513              	.LVL112:
 192:Core/Src/bootloader.c ****     {
 1514              		.loc 1 192 5 is_stmt 1 view .LVU447
 1515 000c 013B     		subs	r3, r3, #1
 1516 000e 062B     		cmp	r3, #6
 1517 0010 00F20081 		bhi	.L116
 1518 0014 DFE813F0 		tbh	[pc, r3, lsl #1]
 1519              	.L118:
 1520 0018 1B00     		.2byte	(.L124-.L118)/2
 1521 001a 9400     		.2byte	(.L123-.L118)/2
 1522 001c BB00     		.2byte	(.L122-.L118)/2
 1523 001e EC00     		.2byte	(.L121-.L118)/2
 1524 0020 0700     		.2byte	(.L120-.L118)/2
ARM GAS  C:\Users\Ali\AppData\Local\Temp\ccszBmV3.s 			page 54


 1525 0022 3100     		.2byte	(.L119-.L118)/2
 1526 0024 4F00     		.2byte	(.L117-.L118)/2
 1527              		.p2align 1
 1528              	.L120:
 196:Core/Src/bootloader.c ****             tx_data[1] = bootloader_status.state;
 1529              		.loc 1 196 13 view .LVU448
 196:Core/Src/bootloader.c ****             tx_data[1] = bootloader_status.state;
 1530              		.loc 1 196 24 is_stmt 0 view .LVU449
 1531 0026 7F49     		ldr	r1, .L146+8
 1532 0028 1520     		movs	r0, #21
 1533 002a 0870     		strb	r0, [r1]
 197:Core/Src/bootloader.c ****             tx_data[2] = bootloader_status.last_error;
 1534              		.loc 1 197 13 is_stmt 1 view .LVU450
 197:Core/Src/bootloader.c ****             tx_data[2] = bootloader_status.last_error;
 1535              		.loc 1 197 43 is_stmt 0 view .LVU451
 1536 002c 7E4B     		ldr	r3, .L146+12
 1537 002e 1A78     		ldrb	r2, [r3]	@ zero_extendqisi2
 197:Core/Src/bootloader.c ****             tx_data[2] = bootloader_status.last_error;
 1538              		.loc 1 197 24 view .LVU452
 1539 0030 4A70     		strb	r2, [r1, #1]
 198:Core/Src/bootloader.c ****             tx_data[3] = (bootloader_status.bytes_written >> 24) & 0xFF;
 1540              		.loc 1 198 13 is_stmt 1 view .LVU453
 198:Core/Src/bootloader.c ****             tx_data[3] = (bootloader_status.bytes_written >> 24) & 0xFF;
 1541              		.loc 1 198 43 is_stmt 0 view .LVU454
 1542 0032 1A7C     		ldrb	r2, [r3, #16]	@ zero_extendqisi2
 198:Core/Src/bootloader.c ****             tx_data[3] = (bootloader_status.bytes_written >> 24) & 0xFF;
 1543              		.loc 1 198 24 view .LVU455
 1544 0034 8A70     		strb	r2, [r1, #2]
 199:Core/Src/bootloader.c ****             tx_data[4] = (bootloader_status.bytes_written >> 16) & 0xFF;
 1545              		.loc 1 199 13 is_stmt 1 view .LVU456
 199:Core/Src/bootloader.c ****             tx_data[4] = (bootloader_status.bytes_written >> 16) & 0xFF;
 1546              		.loc 1 199 44 is_stmt 0 view .LVU457
 1547 0036 9B68     		ldr	r3, [r3, #8]
 199:Core/Src/bootloader.c ****             tx_data[4] = (bootloader_status.bytes_written >> 16) & 0xFF;
 1548              		.loc 1 199 59 view .LVU458
 1549 0038 1A0E     		lsrs	r2, r3, #24
 199:Core/Src/bootloader.c ****             tx_data[4] = (bootloader_status.bytes_written >> 16) & 0xFF;
 1550              		.loc 1 199 24 view .LVU459
 1551 003a CA70     		strb	r2, [r1, #3]
 200:Core/Src/bootloader.c ****             tx_data[5] = (bootloader_status.bytes_written >> 8) & 0xFF;
 1552              		.loc 1 200 13 is_stmt 1 view .LVU460
 200:Core/Src/bootloader.c ****             tx_data[5] = (bootloader_status.bytes_written >> 8) & 0xFF;
 1553              		.loc 1 200 59 is_stmt 0 view .LVU461
 1554 003c 1A0C     		lsrs	r2, r3, #16
 200:Core/Src/bootloader.c ****             tx_data[5] = (bootloader_status.bytes_written >> 8) & 0xFF;
 1555              		.loc 1 200 24 view .LVU462
 1556 003e 0A71     		strb	r2, [r1, #4]
 201:Core/Src/bootloader.c ****             tx_data[6] = bootloader_status.bytes_written & 0xFF;
 1557              		.loc 1 201 13 is_stmt 1 view .LVU463
 201:Core/Src/bootloader.c ****             tx_data[6] = bootloader_status.bytes_written & 0xFF;
 1558              		.loc 1 201 59 is_stmt 0 view .LVU464
 1559 0040 1A0A     		lsrs	r2, r3, #8
 201:Core/Src/bootloader.c ****             tx_data[6] = bootloader_status.bytes_written & 0xFF;
 1560              		.loc 1 201 24 view .LVU465
 1561 0042 4A71     		strb	r2, [r1, #5]
 202:Core/Src/bootloader.c ****             Bootloader_SendCANMessage(RESP_DATA, tx_data, 8);
 1562              		.loc 1 202 13 is_stmt 1 view .LVU466
ARM GAS  C:\Users\Ali\AppData\Local\Temp\ccszBmV3.s 			page 55


 202:Core/Src/bootloader.c ****             Bootloader_SendCANMessage(RESP_DATA, tx_data, 8);
 1563              		.loc 1 202 24 is_stmt 0 view .LVU467
 1564 0044 8B71     		strb	r3, [r1, #6]
 203:Core/Src/bootloader.c ****             break;
 1565              		.loc 1 203 13 is_stmt 1 view .LVU468
 1566 0046 0822     		movs	r2, #8
 1567 0048 FFF7FEFF 		bl	Bootloader_SendCANMessage
 1568              	.LVL113:
 204:Core/Src/bootloader.c ****             
 1569              		.loc 1 204 13 view .LVU469
 1570              	.L115:
 373:Core/Src/bootloader.c **** 
 1571              		.loc 1 373 1 is_stmt 0 view .LVU470
 1572 004c 10BD     		pop	{r4, pc}
 1573              	.LVL114:
 1574              	.L124:
 208:Core/Src/bootloader.c ****             
 1575              		.loc 1 208 13 is_stmt 1 view .LVU471
 208:Core/Src/bootloader.c ****             
 1576              		.loc 1 208 37 is_stmt 0 view .LVU472
 1577 004e 764B     		ldr	r3, .L146+12
 1578 0050 0122     		movs	r2, #1
 1579 0052 1A70     		strb	r2, [r3]
 211:Core/Src/bootloader.c ****             
 1580              		.loc 1 211 13 is_stmt 1 view .LVU473
 1581 0054 FFF7FEFF 		bl	Bootloader_ClearApplicationValidFlag
 1582              	.LVL115:
 213:Core/Src/bootloader.c ****             if (result == ERR_NONE)
 1583              		.loc 1 213 13 view .LVU474
 213:Core/Src/bootloader.c ****             if (result == ERR_NONE)
 1584              		.loc 1 213 22 is_stmt 0 view .LVU475
 1585 0058 FFF7FEFF 		bl	Bootloader_EraseApplicationFlash
 1586              	.LVL116:
 214:Core/Src/bootloader.c ****             {
 1587              		.loc 1 214 13 is_stmt 1 view .LVU476
 214:Core/Src/bootloader.c ****             {
 1588              		.loc 1 214 16 is_stmt 0 view .LVU477
 1589 005c 50B9     		cbnz	r0, .L126
 216:Core/Src/bootloader.c ****                 bootloader_status.current_address = APPLICATION_ADDRESS;
 1590              		.loc 1 216 17 is_stmt 1 view .LVU478
 216:Core/Src/bootloader.c ****                 bootloader_status.current_address = APPLICATION_ADDRESS;
 1591              		.loc 1 216 49 is_stmt 0 view .LVU479
 1592 005e 724B     		ldr	r3, .L146+12
 1593 0060 0022     		movs	r2, #0
 1594 0062 9A60     		str	r2, [r3, #8]
 217:Core/Src/bootloader.c ****                 Bootloader_SendACK();
 1595              		.loc 1 217 17 is_stmt 1 view .LVU480
 217:Core/Src/bootloader.c ****                 Bootloader_SendACK();
 1596              		.loc 1 217 51 is_stmt 0 view .LVU481
 1597 0064 714A     		ldr	r2, .L146+16
 1598 0066 5A60     		str	r2, [r3, #4]
 218:Core/Src/bootloader.c ****             }
 1599              		.loc 1 218 17 is_stmt 1 view .LVU482
 1600 0068 FFF7FEFF 		bl	Bootloader_SendACK
 1601              	.LVL117:
 1602              	.L127:
 224:Core/Src/bootloader.c ****             break;
ARM GAS  C:\Users\Ali\AppData\Local\Temp\ccszBmV3.s 			page 56


 1603              		.loc 1 224 13 view .LVU483
 224:Core/Src/bootloader.c ****             break;
 1604              		.loc 1 224 37 is_stmt 0 view .LVU484
 1605 006c 6E4B     		ldr	r3, .L146+12
 1606 006e 0022     		movs	r2, #0
 1607 0070 1A70     		strb	r2, [r3]
 225:Core/Src/bootloader.c ****             
 1608              		.loc 1 225 13 is_stmt 1 view .LVU485
 1609 0072 EBE7     		b	.L115
 1610              	.LVL118:
 1611              	.L126:
 222:Core/Src/bootloader.c ****             }
 1612              		.loc 1 222 17 view .LVU486
 1613 0074 FFF7FEFF 		bl	Bootloader_SendNACK
 1614              	.LVL119:
 222:Core/Src/bootloader.c ****             }
 1615              		.loc 1 222 17 is_stmt 0 view .LVU487
 1616 0078 F8E7     		b	.L127
 1617              	.LVL120:
 1618              	.L119:
 229:Core/Src/bootloader.c ****                      (rx_data[3] << 8) | rx_data[4];
 1619              		.loc 1 229 13 is_stmt 1 view .LVU488
 229:Core/Src/bootloader.c ****                      (rx_data[3] << 8) | rx_data[4];
 1620              		.loc 1 229 31 is_stmt 0 view .LVU489
 1621 007a 694A     		ldr	r2, .L146+4
 229:Core/Src/bootloader.c ****                      (rx_data[3] << 8) | rx_data[4];
 1622              		.loc 1 229 31 view .LVU490
 1623 007c 5178     		ldrb	r1, [r2, #1]	@ zero_extendqisi2
 229:Core/Src/bootloader.c ****                      (rx_data[3] << 8) | rx_data[4];
 1624              		.loc 1 229 52 view .LVU491
 1625 007e 9378     		ldrb	r3, [r2, #2]	@ zero_extendqisi2
 229:Core/Src/bootloader.c ****                      (rx_data[3] << 8) | rx_data[4];
 1626              		.loc 1 229 56 view .LVU492
 1627 0080 1B04     		lsls	r3, r3, #16
 229:Core/Src/bootloader.c ****                      (rx_data[3] << 8) | rx_data[4];
 1628              		.loc 1 229 42 view .LVU493
 1629 0082 43EA0163 		orr	r3, r3, r1, lsl #24
 230:Core/Src/bootloader.c **** 
 1630              		.loc 1 230 30 view .LVU494
 1631 0086 D178     		ldrb	r1, [r2, #3]	@ zero_extendqisi2
 229:Core/Src/bootloader.c ****                      (rx_data[3] << 8) | rx_data[4];
 1632              		.loc 1 229 63 view .LVU495
 1633 0088 43EA0123 		orr	r3, r3, r1, lsl #8
 230:Core/Src/bootloader.c **** 
 1634              		.loc 1 230 49 view .LVU496
 1635 008c 1279     		ldrb	r2, [r2, #4]	@ zero_extendqisi2
 230:Core/Src/bootloader.c **** 
 1636              		.loc 1 230 40 view .LVU497
 1637 008e 1343     		orrs	r3, r3, r2
 1638              	.LVL121:
 233:Core/Src/bootloader.c ****             {
 1639              		.loc 1 233 13 is_stmt 1 view .LVU498
 233:Core/Src/bootloader.c ****             {
 1640              		.loc 1 233 48 is_stmt 0 view .LVU499
 1641 0090 03F17842 		add	r2, r3, #-134217728
 1642 0094 A2F50042 		sub	r2, r2, #32768
 233:Core/Src/bootloader.c ****             {
ARM GAS  C:\Users\Ali\AppData\Local\Temp\ccszBmV3.s 			page 57


 1643              		.loc 1 233 16 view .LVU500
 1644 0098 B2F5503F 		cmp	r2, #212992
 1645 009c 07D2     		bcs	.L128
 235:Core/Src/bootloader.c ****                 buffer_index = 0;  /* Reset buffer */
 1646              		.loc 1 235 17 is_stmt 1 view .LVU501
 235:Core/Src/bootloader.c ****                 buffer_index = 0;  /* Reset buffer */
 1647              		.loc 1 235 51 is_stmt 0 view .LVU502
 1648 009e 624A     		ldr	r2, .L146+12
 1649 00a0 5360     		str	r3, [r2, #4]
 236:Core/Src/bootloader.c ****                 Bootloader_SendACK();
 1650              		.loc 1 236 17 is_stmt 1 view .LVU503
 236:Core/Src/bootloader.c ****                 Bootloader_SendACK();
 1651              		.loc 1 236 30 is_stmt 0 view .LVU504
 1652 00a2 634B     		ldr	r3, .L146+20
 1653              	.LVL122:
 236:Core/Src/bootloader.c ****                 Bootloader_SendACK();
 1654              		.loc 1 236 30 view .LVU505
 1655 00a4 0022     		movs	r2, #0
 236:Core/Src/bootloader.c ****                 Bootloader_SendACK();
 1656              		.loc 1 236 30 view .LVU506
 1657 00a6 1A80     		strh	r2, [r3]	@ movhi
 237:Core/Src/bootloader.c ****             }
 1658              		.loc 1 237 17 is_stmt 1 view .LVU507
 1659 00a8 FFF7FEFF 		bl	Bootloader_SendACK
 1660              	.LVL123:
 237:Core/Src/bootloader.c ****             }
 1661              		.loc 1 237 17 is_stmt 0 view .LVU508
 1662 00ac CEE7     		b	.L115
 1663              	.LVL124:
 1664              	.L128:
 241:Core/Src/bootloader.c ****             }
 1665              		.loc 1 241 17 is_stmt 1 view .LVU509
 1666 00ae 0220     		movs	r0, #2
 1667 00b0 FFF7FEFF 		bl	Bootloader_SendNACK
 1668              	.LVL125:
 241:Core/Src/bootloader.c ****             }
 1669              		.loc 1 241 17 is_stmt 0 view .LVU510
 1670 00b4 CAE7     		b	.L115
 1671              	.LVL126:
 1672              	.L117:
 249:Core/Src/bootloader.c ****             length = rx_data[1];  /* Data length - should always be 4 */
 1673              		.loc 1 249 13 is_stmt 1 view .LVU511
 249:Core/Src/bootloader.c ****             length = rx_data[1];  /* Data length - should always be 4 */
 1674              		.loc 1 249 37 is_stmt 0 view .LVU512
 1675 00b6 5C4B     		ldr	r3, .L146+12
 1676 00b8 0222     		movs	r2, #2
 1677 00ba 1A70     		strb	r2, [r3]
 250:Core/Src/bootloader.c ****             
 1678              		.loc 1 250 13 is_stmt 1 view .LVU513
 250:Core/Src/bootloader.c ****             
 1679              		.loc 1 250 29 is_stmt 0 view .LVU514
 1680 00bc 584B     		ldr	r3, .L146+4
 250:Core/Src/bootloader.c ****             
 1681              		.loc 1 250 29 view .LVU515
 1682 00be 5B78     		ldrb	r3, [r3, #1]	@ zero_extendqisi2
 1683              	.LVL127:
 252:Core/Src/bootloader.c ****             {
ARM GAS  C:\Users\Ali\AppData\Local\Temp\ccszBmV3.s 			page 58


 1684              		.loc 1 252 13 is_stmt 1 view .LVU516
 252:Core/Src/bootloader.c ****             {
 1685              		.loc 1 252 16 is_stmt 0 view .LVU517
 1686 00c0 042B     		cmp	r3, #4
 1687 00c2 01D1     		bne	.L144
 1688              	.LBB10:
 261:Core/Src/bootloader.c ****             {
 1689              		.loc 1 261 26 view .LVU518
 1690 00c4 0023     		movs	r3, #0
 1691 00c6 15E0     		b	.L129
 1692              	.L144:
 1693              	.LBE10:
 254:Core/Src/bootloader.c ****                 bootloader_status.state = BL_STATE_IDLE;
 1694              		.loc 1 254 17 is_stmt 1 view .LVU519
 1695 00c8 0520     		movs	r0, #5
 1696 00ca FFF7FEFF 		bl	Bootloader_SendNACK
 1697              	.LVL128:
 255:Core/Src/bootloader.c ****                 buffer_index = 0;  /* Reset buffer on error */
 1698              		.loc 1 255 17 view .LVU520
 255:Core/Src/bootloader.c ****                 buffer_index = 0;  /* Reset buffer on error */
 1699              		.loc 1 255 41 is_stmt 0 view .LVU521
 1700 00ce 0023     		movs	r3, #0
 1701 00d0 554A     		ldr	r2, .L146+12
 1702 00d2 1370     		strb	r3, [r2]
 256:Core/Src/bootloader.c ****                 break;
 1703              		.loc 1 256 17 is_stmt 1 view .LVU522
 256:Core/Src/bootloader.c ****                 break;
 1704              		.loc 1 256 30 is_stmt 0 view .LVU523
 1705 00d4 564A     		ldr	r2, .L146+20
 1706 00d6 1380     		strh	r3, [r2]	@ movhi
 257:Core/Src/bootloader.c ****             }
 1707              		.loc 1 257 17 is_stmt 1 view .LVU524
 1708 00d8 B8E7     		b	.L115
 1709              	.LVL129:
 1710              	.L130:
 1711              	.LBB11:
 263:Core/Src/bootloader.c ****             }
 1712              		.loc 1 263 17 view .LVU525
 263:Core/Src/bootloader.c ****             }
 1713              		.loc 1 263 58 is_stmt 0 view .LVU526
 1714 00da 981C     		adds	r0, r3, #2
 263:Core/Src/bootloader.c ****             }
 1715              		.loc 1 263 42 view .LVU527
 1716 00dc 5449     		ldr	r1, .L146+20
 1717 00de 0A88     		ldrh	r2, [r1]
 1718 00e0 02F1010C 		add	ip, r2, #1
 1719 00e4 A1F800C0 		strh	ip, [r1]	@ movhi
 263:Core/Src/bootloader.c ****             }
 1720              		.loc 1 263 55 view .LVU528
 1721 00e8 4D49     		ldr	r1, .L146+4
 263:Core/Src/bootloader.c ****             }
 1722              		.loc 1 263 55 view .LVU529
 1723 00ea 085C     		ldrb	r0, [r1, r0]	@ zero_extendqisi2
 263:Core/Src/bootloader.c ****             }
 1724              		.loc 1 263 46 view .LVU530
 1725 00ec 5149     		ldr	r1, .L146+24
 263:Core/Src/bootloader.c ****             }
ARM GAS  C:\Users\Ali\AppData\Local\Temp\ccszBmV3.s 			page 59


 1726              		.loc 1 263 46 view .LVU531
 1727 00ee 8854     		strb	r0, [r1, r2]
 261:Core/Src/bootloader.c ****             {
 1728              		.loc 1 261 41 is_stmt 1 discriminator 3 view .LVU532
 1729 00f0 0133     		adds	r3, r3, #1
 1730              	.LVL130:
 261:Core/Src/bootloader.c ****             {
 1731              		.loc 1 261 41 is_stmt 0 discriminator 3 view .LVU533
 1732 00f2 DBB2     		uxtb	r3, r3
 1733              	.LVL131:
 1734              	.L129:
 261:Core/Src/bootloader.c ****             {
 1735              		.loc 1 261 35 is_stmt 1 discriminator 1 view .LVU534
 1736 00f4 032B     		cmp	r3, #3
 1737 00f6 F0D9     		bls	.L130
 1738              	.LBE11:
 267:Core/Src/bootloader.c ****             {
 1739              		.loc 1 267 13 view .LVU535
 267:Core/Src/bootloader.c ****             {
 1740              		.loc 1 267 30 is_stmt 0 view .LVU536
 1741 00f8 4D4B     		ldr	r3, .L146+20
 1742              	.LVL132:
 267:Core/Src/bootloader.c ****             {
 1743              		.loc 1 267 30 view .LVU537
 1744 00fa 1B88     		ldrh	r3, [r3]
 267:Core/Src/bootloader.c ****             {
 1745              		.loc 1 267 16 view .LVU538
 1746 00fc 072B     		cmp	r3, #7
 1747 00fe 19D9     		bls	.L131
 269:Core/Src/bootloader.c ****                                                flash_buffer, 8);
 1748              		.loc 1 269 17 is_stmt 1 view .LVU539
 269:Core/Src/bootloader.c ****                                                flash_buffer, 8);
 1749              		.loc 1 269 26 is_stmt 0 view .LVU540
 1750 0100 0822     		movs	r2, #8
 1751 0102 4C49     		ldr	r1, .L146+24
 1752 0104 484B     		ldr	r3, .L146+12
 1753 0106 5868     		ldr	r0, [r3, #4]
 1754 0108 FFF7FEFF 		bl	Bootloader_WriteFlash
 1755              	.LVL133:
 271:Core/Src/bootloader.c ****                 {
 1756              		.loc 1 271 17 is_stmt 1 view .LVU541
 271:Core/Src/bootloader.c ****                 {
 1757              		.loc 1 271 20 is_stmt 0 view .LVU542
 1758 010c 60B9     		cbnz	r0, .L132
 273:Core/Src/bootloader.c ****                     bootloader_status.bytes_written += 8;
 1759              		.loc 1 273 21 is_stmt 1 view .LVU543
 273:Core/Src/bootloader.c ****                     bootloader_status.bytes_written += 8;
 1760              		.loc 1 273 38 is_stmt 0 view .LVU544
 1761 010e 464B     		ldr	r3, .L146+12
 1762 0110 5A68     		ldr	r2, [r3, #4]
 273:Core/Src/bootloader.c ****                     bootloader_status.bytes_written += 8;
 1763              		.loc 1 273 55 view .LVU545
 1764 0112 0832     		adds	r2, r2, #8
 1765 0114 5A60     		str	r2, [r3, #4]
 274:Core/Src/bootloader.c ****                     buffer_index = 0;
 1766              		.loc 1 274 21 is_stmt 1 view .LVU546
 274:Core/Src/bootloader.c ****                     buffer_index = 0;
ARM GAS  C:\Users\Ali\AppData\Local\Temp\ccszBmV3.s 			page 60


 1767              		.loc 1 274 38 is_stmt 0 view .LVU547
 1768 0116 9A68     		ldr	r2, [r3, #8]
 274:Core/Src/bootloader.c ****                     buffer_index = 0;
 1769              		.loc 1 274 53 view .LVU548
 1770 0118 0832     		adds	r2, r2, #8
 1771 011a 9A60     		str	r2, [r3, #8]
 275:Core/Src/bootloader.c ****                     Bootloader_SendACK();
 1772              		.loc 1 275 21 is_stmt 1 view .LVU549
 275:Core/Src/bootloader.c ****                     Bootloader_SendACK();
 1773              		.loc 1 275 34 is_stmt 0 view .LVU550
 1774 011c 444B     		ldr	r3, .L146+20
 1775 011e 0022     		movs	r2, #0
 1776 0120 1A80     		strh	r2, [r3]	@ movhi
 276:Core/Src/bootloader.c ****                 }
 1777              		.loc 1 276 21 is_stmt 1 view .LVU551
 1778 0122 FFF7FEFF 		bl	Bootloader_SendACK
 1779              	.LVL134:
 276:Core/Src/bootloader.c ****                 }
 1780              		.loc 1 276 21 is_stmt 0 view .LVU552
 1781 0126 07E0     		b	.L133
 1782              	.LVL135:
 1783              	.L132:
 280:Core/Src/bootloader.c ****                     Bootloader_SendNACK(result);
 1784              		.loc 1 280 21 is_stmt 1 view .LVU553
 280:Core/Src/bootloader.c ****                     Bootloader_SendNACK(result);
 1785              		.loc 1 280 34 is_stmt 0 view .LVU554
 1786 0128 414A     		ldr	r2, .L146+20
 1787 012a 0021     		movs	r1, #0
 1788 012c 1180     		strh	r1, [r2]	@ movhi
 281:Core/Src/bootloader.c ****                 }
 1789              		.loc 1 281 21 is_stmt 1 view .LVU555
 1790 012e FFF7FEFF 		bl	Bootloader_SendNACK
 1791              	.LVL136:
 281:Core/Src/bootloader.c ****                 }
 1792              		.loc 1 281 21 is_stmt 0 view .LVU556
 1793 0132 01E0     		b	.L133
 1794              	.LVL137:
 1795              	.L131:
 286:Core/Src/bootloader.c ****             }
 1796              		.loc 1 286 17 is_stmt 1 view .LVU557
 1797 0134 FFF7FEFF 		bl	Bootloader_SendACK
 1798              	.LVL138:
 1799              	.L133:
 289:Core/Src/bootloader.c ****             break;
 1800              		.loc 1 289 13 view .LVU558
 289:Core/Src/bootloader.c ****             break;
 1801              		.loc 1 289 37 is_stmt 0 view .LVU559
 1802 0138 3B4B     		ldr	r3, .L146+12
 1803 013a 0022     		movs	r2, #0
 1804 013c 1A70     		strb	r2, [r3]
 290:Core/Src/bootloader.c ****             
 1805              		.loc 1 290 13 is_stmt 1 view .LVU560
 1806 013e 85E7     		b	.L115
 1807              	.LVL139:
 1808              	.L123:
 294:Core/Src/bootloader.c ****                      (rx_data[3] << 8) | rx_data[4];
 1809              		.loc 1 294 13 view .LVU561
ARM GAS  C:\Users\Ali\AppData\Local\Temp\ccszBmV3.s 			page 61


 294:Core/Src/bootloader.c ****                      (rx_data[3] << 8) | rx_data[4];
 1810              		.loc 1 294 31 is_stmt 0 view .LVU562
 1811 0140 374B     		ldr	r3, .L146+4
 294:Core/Src/bootloader.c ****                      (rx_data[3] << 8) | rx_data[4];
 1812              		.loc 1 294 31 view .LVU563
 1813 0142 5A78     		ldrb	r2, [r3, #1]	@ zero_extendqisi2
 294:Core/Src/bootloader.c ****                      (rx_data[3] << 8) | rx_data[4];
 1814              		.loc 1 294 52 view .LVU564
 1815 0144 9878     		ldrb	r0, [r3, #2]	@ zero_extendqisi2
 294:Core/Src/bootloader.c ****                      (rx_data[3] << 8) | rx_data[4];
 1816              		.loc 1 294 56 view .LVU565
 1817 0146 0004     		lsls	r0, r0, #16
 294:Core/Src/bootloader.c ****                      (rx_data[3] << 8) | rx_data[4];
 1818              		.loc 1 294 42 view .LVU566
 1819 0148 40EA0260 		orr	r0, r0, r2, lsl #24
 295:Core/Src/bootloader.c ****             length = rx_data[5];
 1820              		.loc 1 295 30 view .LVU567
 1821 014c DA78     		ldrb	r2, [r3, #3]	@ zero_extendqisi2
 294:Core/Src/bootloader.c ****                      (rx_data[3] << 8) | rx_data[4];
 1822              		.loc 1 294 63 view .LVU568
 1823 014e 40EA0220 		orr	r0, r0, r2, lsl #8
 295:Core/Src/bootloader.c ****             length = rx_data[5];
 1824              		.loc 1 295 49 view .LVU569
 1825 0152 1A79     		ldrb	r2, [r3, #4]	@ zero_extendqisi2
 295:Core/Src/bootloader.c ****             length = rx_data[5];
 1826              		.loc 1 295 40 view .LVU570
 1827 0154 1043     		orrs	r0, r0, r2
 1828              	.LVL140:
 296:Core/Src/bootloader.c **** 
 1829              		.loc 1 296 13 is_stmt 1 view .LVU571
 296:Core/Src/bootloader.c **** 
 1830              		.loc 1 296 29 is_stmt 0 view .LVU572
 1831 0156 5A79     		ldrb	r2, [r3, #5]	@ zero_extendqisi2
 1832              	.LVL141:
 299:Core/Src/bootloader.c ****             {
 1833              		.loc 1 299 13 is_stmt 1 view .LVU573
 299:Core/Src/bootloader.c ****             {
 1834              		.loc 1 299 48 is_stmt 0 view .LVU574
 1835 0158 00F17843 		add	r3, r0, #-134217728
 299:Core/Src/bootloader.c ****             {
 1836              		.loc 1 299 48 view .LVU575
 1837 015c A3F50043 		sub	r3, r3, #32768
 299:Core/Src/bootloader.c ****             {
 1838              		.loc 1 299 16 view .LVU576
 1839 0160 B3F5503F 		cmp	r3, #212992
 1840 0164 0FD2     		bcs	.L134
 301:Core/Src/bootloader.c ****                 result = Bootloader_WriteFlash(address, &rx_data[6], length);
 1841              		.loc 1 301 17 is_stmt 1 view .LVU577
 301:Core/Src/bootloader.c ****                 result = Bootloader_WriteFlash(address, &rx_data[6], length);
 1842              		.loc 1 301 41 is_stmt 0 view .LVU578
 1843 0166 304B     		ldr	r3, .L146+12
 1844 0168 0221     		movs	r1, #2
 1845 016a 1970     		strb	r1, [r3]
 302:Core/Src/bootloader.c ****                 if (result == ERR_NONE)
 1846              		.loc 1 302 17 is_stmt 1 view .LVU579
 302:Core/Src/bootloader.c ****                 if (result == ERR_NONE)
 1847              		.loc 1 302 26 is_stmt 0 view .LVU580
ARM GAS  C:\Users\Ali\AppData\Local\Temp\ccszBmV3.s 			page 62


 1848 016c 3249     		ldr	r1, .L146+28
 1849 016e FFF7FEFF 		bl	Bootloader_WriteFlash
 1850              	.LVL142:
 303:Core/Src/bootloader.c ****                 {
 1851              		.loc 1 303 17 is_stmt 1 view .LVU581
 303:Core/Src/bootloader.c ****                 {
 1852              		.loc 1 303 20 is_stmt 0 view .LVU582
 1853 0172 28B9     		cbnz	r0, .L135
 305:Core/Src/bootloader.c ****                 }
 1854              		.loc 1 305 21 is_stmt 1 view .LVU583
 1855 0174 FFF7FEFF 		bl	Bootloader_SendACK
 1856              	.LVL143:
 1857              	.L136:
 311:Core/Src/bootloader.c ****             }
 1858              		.loc 1 311 17 view .LVU584
 311:Core/Src/bootloader.c ****             }
 1859              		.loc 1 311 41 is_stmt 0 view .LVU585
 1860 0178 2B4B     		ldr	r3, .L146+12
 1861 017a 0022     		movs	r2, #0
 1862 017c 1A70     		strb	r2, [r3]
 1863 017e 65E7     		b	.L115
 1864              	.LVL144:
 1865              	.L135:
 309:Core/Src/bootloader.c ****                 }
 1866              		.loc 1 309 21 is_stmt 1 view .LVU586
 1867 0180 FFF7FEFF 		bl	Bootloader_SendNACK
 1868              	.LVL145:
 309:Core/Src/bootloader.c ****                 }
 1869              		.loc 1 309 21 is_stmt 0 view .LVU587
 1870 0184 F8E7     		b	.L136
 1871              	.LVL146:
 1872              	.L134:
 315:Core/Src/bootloader.c ****             }
 1873              		.loc 1 315 17 is_stmt 1 view .LVU588
 1874 0186 0220     		movs	r0, #2
 1875              	.LVL147:
 315:Core/Src/bootloader.c ****             }
 1876              		.loc 1 315 17 is_stmt 0 view .LVU589
 1877 0188 FFF7FEFF 		bl	Bootloader_SendNACK
 1878              	.LVL148:
 315:Core/Src/bootloader.c ****             }
 1879              		.loc 1 315 17 view .LVU590
 1880 018c 5EE7     		b	.L115
 1881              	.LVL149:
 1882              	.L122:
 321:Core/Src/bootloader.c ****                      (rx_data[3] << 8) | rx_data[4];
 1883              		.loc 1 321 13 is_stmt 1 view .LVU591
 321:Core/Src/bootloader.c ****                      (rx_data[3] << 8) | rx_data[4];
 1884              		.loc 1 321 31 is_stmt 0 view .LVU592
 1885 018e 244B     		ldr	r3, .L146+4
 321:Core/Src/bootloader.c ****                      (rx_data[3] << 8) | rx_data[4];
 1886              		.loc 1 321 31 view .LVU593
 1887 0190 5A78     		ldrb	r2, [r3, #1]	@ zero_extendqisi2
 321:Core/Src/bootloader.c ****                      (rx_data[3] << 8) | rx_data[4];
 1888              		.loc 1 321 52 view .LVU594
 1889 0192 9878     		ldrb	r0, [r3, #2]	@ zero_extendqisi2
 321:Core/Src/bootloader.c ****                      (rx_data[3] << 8) | rx_data[4];
ARM GAS  C:\Users\Ali\AppData\Local\Temp\ccszBmV3.s 			page 63


 1890              		.loc 1 321 56 view .LVU595
 1891 0194 0004     		lsls	r0, r0, #16
 321:Core/Src/bootloader.c ****                      (rx_data[3] << 8) | rx_data[4];
 1892              		.loc 1 321 42 view .LVU596
 1893 0196 40EA0260 		orr	r0, r0, r2, lsl #24
 322:Core/Src/bootloader.c ****             length = rx_data[5];
 1894              		.loc 1 322 30 view .LVU597
 1895 019a DA78     		ldrb	r2, [r3, #3]	@ zero_extendqisi2
 321:Core/Src/bootloader.c ****                      (rx_data[3] << 8) | rx_data[4];
 1896              		.loc 1 321 63 view .LVU598
 1897 019c 40EA0220 		orr	r0, r0, r2, lsl #8
 322:Core/Src/bootloader.c ****             length = rx_data[5];
 1898              		.loc 1 322 49 view .LVU599
 1899 01a0 1A79     		ldrb	r2, [r3, #4]	@ zero_extendqisi2
 322:Core/Src/bootloader.c ****             length = rx_data[5];
 1900              		.loc 1 322 40 view .LVU600
 1901 01a2 1043     		orrs	r0, r0, r2
 1902              	.LVL150:
 323:Core/Src/bootloader.c **** 
 1903              		.loc 1 323 13 is_stmt 1 view .LVU601
 323:Core/Src/bootloader.c **** 
 1904              		.loc 1 323 29 is_stmt 0 view .LVU602
 1905 01a4 5C79     		ldrb	r4, [r3, #5]	@ zero_extendqisi2
 1906              	.LVL151:
 326:Core/Src/bootloader.c ****             {
 1907              		.loc 1 326 13 is_stmt 1 view .LVU603
 326:Core/Src/bootloader.c ****             {
 1908              		.loc 1 326 48 is_stmt 0 view .LVU604
 1909 01a6 00F17843 		add	r3, r0, #-134217728
 326:Core/Src/bootloader.c ****             {
 1910              		.loc 1 326 48 view .LVU605
 1911 01aa A3F50043 		sub	r3, r3, #32768
 326:Core/Src/bootloader.c ****             {
 1912              		.loc 1 326 16 view .LVU606
 1913 01ae B3F5503F 		cmp	r3, #212992
 1914 01b2 01D2     		bcs	.L137
 326:Core/Src/bootloader.c ****             {
 1915              		.loc 1 326 86 discriminator 1 view .LVU607
 1916 01b4 072C     		cmp	r4, #7
 1917 01b6 03D9     		bls	.L145
 1918              	.L137:
 343:Core/Src/bootloader.c ****             }
 1919              		.loc 1 343 17 is_stmt 1 view .LVU608
 1920 01b8 0220     		movs	r0, #2
 1921              	.LVL152:
 343:Core/Src/bootloader.c ****             }
 1922              		.loc 1 343 17 is_stmt 0 view .LVU609
 1923 01ba FFF7FEFF 		bl	Bootloader_SendNACK
 1924              	.LVL153:
 343:Core/Src/bootloader.c ****             }
 1925              		.loc 1 343 17 view .LVU610
 1926 01be 45E7     		b	.L115
 1927              	.LVL154:
 1928              	.L145:
 328:Core/Src/bootloader.c ****                 tx_data[0] = RESP_DATA;
 1929              		.loc 1 328 17 is_stmt 1 view .LVU611
 328:Core/Src/bootloader.c ****                 tx_data[0] = RESP_DATA;
ARM GAS  C:\Users\Ali\AppData\Local\Temp\ccszBmV3.s 			page 64


 1930              		.loc 1 328 41 is_stmt 0 view .LVU612
 1931 01c0 194B     		ldr	r3, .L146+12
 1932 01c2 0322     		movs	r2, #3
 1933 01c4 1A70     		strb	r2, [r3]
 329:Core/Src/bootloader.c ****                 result = Bootloader_ReadFlash(address, &tx_data[1], length);
 1934              		.loc 1 329 17 is_stmt 1 view .LVU613
 329:Core/Src/bootloader.c ****                 result = Bootloader_ReadFlash(address, &tx_data[1], length);
 1935              		.loc 1 329 28 is_stmt 0 view .LVU614
 1936 01c6 1749     		ldr	r1, .L146+8
 1937 01c8 1523     		movs	r3, #21
 1938 01ca 01F8013B 		strb	r3, [r1], #1
 330:Core/Src/bootloader.c ****                 if (result == ERR_NONE)
 1939              		.loc 1 330 17 is_stmt 1 view .LVU615
 330:Core/Src/bootloader.c ****                 if (result == ERR_NONE)
 1940              		.loc 1 330 26 is_stmt 0 view .LVU616
 1941 01ce 2246     		mov	r2, r4
 1942 01d0 FFF7FEFF 		bl	Bootloader_ReadFlash
 1943              	.LVL155:
 331:Core/Src/bootloader.c ****                 {
 1944              		.loc 1 331 17 is_stmt 1 view .LVU617
 331:Core/Src/bootloader.c ****                 {
 1945              		.loc 1 331 20 is_stmt 0 view .LVU618
 1946 01d4 48B9     		cbnz	r0, .L138
 333:Core/Src/bootloader.c ****                 }
 1947              		.loc 1 333 21 is_stmt 1 view .LVU619
 1948 01d6 621C     		adds	r2, r4, #1
 1949 01d8 D2B2     		uxtb	r2, r2
 1950 01da 1249     		ldr	r1, .L146+8
 1951 01dc 1520     		movs	r0, #21
 1952              	.LVL156:
 333:Core/Src/bootloader.c ****                 }
 1953              		.loc 1 333 21 is_stmt 0 view .LVU620
 1954 01de FFF7FEFF 		bl	Bootloader_SendCANMessage
 1955              	.LVL157:
 1956              	.L139:
 339:Core/Src/bootloader.c ****             }
 1957              		.loc 1 339 17 is_stmt 1 view .LVU621
 339:Core/Src/bootloader.c ****             }
 1958              		.loc 1 339 41 is_stmt 0 view .LVU622
 1959 01e2 114B     		ldr	r3, .L146+12
 1960 01e4 0022     		movs	r2, #0
 1961 01e6 1A70     		strb	r2, [r3]
 1962 01e8 30E7     		b	.L115
 1963              	.LVL158:
 1964              	.L138:
 337:Core/Src/bootloader.c ****                 }
 1965              		.loc 1 337 21 is_stmt 1 view .LVU623
 1966 01ea FFF7FEFF 		bl	Bootloader_SendNACK
 1967              	.LVL159:
 337:Core/Src/bootloader.c ****                 }
 1968              		.loc 1 337 21 is_stmt 0 view .LVU624
 1969 01ee F8E7     		b	.L139
 1970              	.LVL160:
 1971              	.L121:
 349:Core/Src/bootloader.c ****             {
 1972              		.loc 1 349 13 is_stmt 1 view .LVU625
 349:Core/Src/bootloader.c ****             {
ARM GAS  C:\Users\Ali\AppData\Local\Temp\ccszBmV3.s 			page 65


 1973              		.loc 1 349 17 is_stmt 0 view .LVU626
 1974 01f0 FFF7FEFF 		bl	Bootloader_CheckValidApplication
 1975              	.LVL161:
 349:Core/Src/bootloader.c ****             {
 1976              		.loc 1 349 16 discriminator 1 view .LVU627
 1977 01f4 50B1     		cbz	r0, .L140
 352:Core/Src/bootloader.c ****                 if (result != ERR_NONE)
 1978              		.loc 1 352 17 is_stmt 1 view .LVU628
 352:Core/Src/bootloader.c ****                 if (result != ERR_NONE)
 1979              		.loc 1 352 26 is_stmt 0 view .LVU629
 1980 01f6 FFF7FEFF 		bl	Bootloader_SetApplicationValidFlag
 1981              	.LVL162:
 353:Core/Src/bootloader.c ****                 {
 1982              		.loc 1 353 17 is_stmt 1 view .LVU630
 353:Core/Src/bootloader.c ****                 {
 1983              		.loc 1 353 20 is_stmt 0 view .LVU631
 1984 01fa 08B1     		cbz	r0, .L141
 356:Core/Src/bootloader.c ****                 }
 1985              		.loc 1 356 21 is_stmt 1 view .LVU632
 356:Core/Src/bootloader.c ****                 }
 1986              		.loc 1 356 50 is_stmt 0 view .LVU633
 1987 01fc 0A4A     		ldr	r2, .L146+12
 1988 01fe 1074     		strb	r0, [r2, #16]
 1989              	.L141:
 359:Core/Src/bootloader.c ****                 jump_to_app_flag = 1;  /* Set flag to trigger jump from main loop */
 1990              		.loc 1 359 17 is_stmt 1 view .LVU634
 1991 0200 FFF7FEFF 		bl	Bootloader_SendACK
 1992              	.LVL163:
 360:Core/Src/bootloader.c ****             }
 1993              		.loc 1 360 17 view .LVU635
 360:Core/Src/bootloader.c ****             }
 1994              		.loc 1 360 34 is_stmt 0 view .LVU636
 1995 0204 0D4B     		ldr	r3, .L146+32
 1996 0206 0122     		movs	r2, #1
 1997 0208 1A70     		strb	r2, [r3]
 1998 020a 1FE7     		b	.L115
 1999              	.LVL164:
 2000              	.L140:
 364:Core/Src/bootloader.c ****             }
 2001              		.loc 1 364 17 is_stmt 1 view .LVU637
 2002 020c 0620     		movs	r0, #6
 2003 020e FFF7FEFF 		bl	Bootloader_SendNACK
 2004              	.LVL165:
 2005 0212 1BE7     		b	.L115
 2006              	.LVL166:
 2007              	.L116:
 370:Core/Src/bootloader.c ****             break;
 2008              		.loc 1 370 13 view .LVU638
 2009 0214 0120     		movs	r0, #1
 2010 0216 FFF7FEFF 		bl	Bootloader_SendNACK
 2011              	.LVL167:
 371:Core/Src/bootloader.c ****     }
 2012              		.loc 1 371 13 view .LVU639
 373:Core/Src/bootloader.c **** 
 2013              		.loc 1 373 1 is_stmt 0 view .LVU640
 2014 021a 17E7     		b	.L115
 2015              	.L147:
ARM GAS  C:\Users\Ali\AppData\Local\Temp\ccszBmV3.s 			page 66


 2016              		.align	2
 2017              	.L146:
 2018 021c 00000000 		.word	can_command_received
 2019 0220 00000000 		.word	rx_data
 2020 0224 00000000 		.word	tx_data
 2021 0228 00000000 		.word	bootloader_status
 2022 022c 00800008 		.word	134250496
 2023 0230 00000000 		.word	buffer_index
 2024 0234 00000000 		.word	flash_buffer
 2025 0238 06000000 		.word	rx_data+6
 2026 023c 00000000 		.word	jump_to_app_flag
 2027              		.cfi_endproc
 2028              	.LFE135:
 2030              		.section	.text.HAL_CAN_RxFifo0MsgPendingCallback,"ax",%progbits
 2031              		.align	1
 2032              		.global	HAL_CAN_RxFifo0MsgPendingCallback
 2033              		.syntax unified
 2034              		.thumb
 2035              		.thumb_func
 2037              	HAL_CAN_RxFifo0MsgPendingCallback:
 2038              	.LVL168:
 2039              	.LFB149:
 785:Core/Src/bootloader.c **** 
 786:Core/Src/bootloader.c **** /**
 787:Core/Src/bootloader.c ****   * @brief  CAN RX FIFO 0 message pending callback
 788:Core/Src/bootloader.c ****   * @param  hcan: pointer to CAN Handle
 789:Core/Src/bootloader.c ****   * @retval None
 790:Core/Src/bootloader.c ****   */
 791:Core/Src/bootloader.c **** void HAL_CAN_RxFifo0MsgPendingCallback(CAN_HandleTypeDef *hcan)
 792:Core/Src/bootloader.c **** {
 2040              		.loc 1 792 1 is_stmt 1 view -0
 2041              		.cfi_startproc
 2042              		@ args = 0, pretend = 0, frame = 0
 2043              		@ frame_needed = 0, uses_anonymous_args = 0
 2044              		.loc 1 792 1 is_stmt 0 view .LVU642
 2045 0000 08B5     		push	{r3, lr}
 2046              		.cfi_def_cfa_offset 8
 2047              		.cfi_offset 3, -8
 2048              		.cfi_offset 14, -4
 793:Core/Src/bootloader.c ****     if (hcan == hcan_bootloader)
 2049              		.loc 1 793 5 is_stmt 1 view .LVU643
 2050              		.loc 1 793 14 is_stmt 0 view .LVU644
 2051 0002 0C4B     		ldr	r3, .L152
 2052 0004 1B68     		ldr	r3, [r3]
 2053              		.loc 1 793 8 view .LVU645
 2054 0006 8342     		cmp	r3, r0
 2055 0008 00D0     		beq	.L151
 2056              	.LVL169:
 2057              	.L148:
 794:Core/Src/bootloader.c ****     {
 795:Core/Src/bootloader.c ****         /* Get message from FIFO */
 796:Core/Src/bootloader.c ****         if (HAL_CAN_GetRxMessage(hcan, CAN_RX_FIFO0, &rx_header, rx_data) == HAL_OK)
 797:Core/Src/bootloader.c ****         {
 798:Core/Src/bootloader.c ****             /* Check if message is for bootloader (using ExtId for 29-bit extended ID) */
 799:Core/Src/bootloader.c ****             if (rx_header.ExtId == CAN_HOST_ID && rx_header.IDE == CAN_ID_EXT)
 800:Core/Src/bootloader.c ****             {
 801:Core/Src/bootloader.c ****                 /* Process the message */
ARM GAS  C:\Users\Ali\AppData\Local\Temp\ccszBmV3.s 			page 67


 802:Core/Src/bootloader.c ****                 Bootloader_ProcessCANMessage();
 803:Core/Src/bootloader.c ****             }
 804:Core/Src/bootloader.c ****         }
 805:Core/Src/bootloader.c ****     }
 806:Core/Src/bootloader.c **** }
 2058              		.loc 1 806 1 view .LVU646
 2059 000a 08BD     		pop	{r3, pc}
 2060              	.LVL170:
 2061              	.L151:
 796:Core/Src/bootloader.c ****         {
 2062              		.loc 1 796 9 is_stmt 1 view .LVU647
 796:Core/Src/bootloader.c ****         {
 2063              		.loc 1 796 13 is_stmt 0 view .LVU648
 2064 000c 0A4B     		ldr	r3, .L152+4
 2065 000e 0B4A     		ldr	r2, .L152+8
 2066 0010 0021     		movs	r1, #0
 2067 0012 FFF7FEFF 		bl	HAL_CAN_GetRxMessage
 2068              	.LVL171:
 796:Core/Src/bootloader.c ****         {
 2069              		.loc 1 796 12 discriminator 1 view .LVU649
 2070 0016 0028     		cmp	r0, #0
 2071 0018 F7D1     		bne	.L148
 799:Core/Src/bootloader.c ****             {
 2072              		.loc 1 799 13 is_stmt 1 view .LVU650
 799:Core/Src/bootloader.c ****             {
 2073              		.loc 1 799 26 is_stmt 0 view .LVU651
 2074 001a 084B     		ldr	r3, .L152+8
 2075 001c 5A68     		ldr	r2, [r3, #4]
 799:Core/Src/bootloader.c ****             {
 2076              		.loc 1 799 16 view .LVU652
 2077 001e 084B     		ldr	r3, .L152+12
 2078 0020 9A42     		cmp	r2, r3
 2079 0022 F2D1     		bne	.L148
 799:Core/Src/bootloader.c ****             {
 2080              		.loc 1 799 60 discriminator 1 view .LVU653
 2081 0024 054B     		ldr	r3, .L152+8
 2082 0026 9B68     		ldr	r3, [r3, #8]
 799:Core/Src/bootloader.c ****             {
 2083              		.loc 1 799 48 discriminator 1 view .LVU654
 2084 0028 042B     		cmp	r3, #4
 2085 002a EED1     		bne	.L148
 802:Core/Src/bootloader.c ****             }
 2086              		.loc 1 802 17 is_stmt 1 view .LVU655
 2087 002c FFF7FEFF 		bl	Bootloader_ProcessCANMessage
 2088              	.LVL172:
 2089              		.loc 1 806 1 is_stmt 0 view .LVU656
 2090 0030 EBE7     		b	.L148
 2091              	.L153:
 2092 0032 00BF     		.align	2
 2093              	.L152:
 2094 0034 00000000 		.word	hcan_bootloader
 2095 0038 00000000 		.word	rx_data
 2096 003c 00000000 		.word	rx_header
 2097 0040 01070018 		.word	402654977
 2098              		.cfi_endproc
 2099              	.LFE149:
 2101              		.section	.bss.can_command_received,"aw",%nobits
ARM GAS  C:\Users\Ali\AppData\Local\Temp\ccszBmV3.s 			page 68


 2104              	can_command_received:
 2105 0000 00       		.space	1
 2106              		.section	.bss.jump_to_app_flag,"aw",%nobits
 2109              	jump_to_app_flag:
 2110 0000 00       		.space	1
 2111              		.section	.bss.buffer_index,"aw",%nobits
 2112              		.align	1
 2115              	buffer_index:
 2116 0000 0000     		.space	2
 2117              		.section	.bss.flash_buffer,"aw",%nobits
 2118              		.align	2
 2121              	flash_buffer:
 2122 0000 00000000 		.space	8
 2122      00000000 
 2123              		.section	.bss.tx_mailbox,"aw",%nobits
 2124              		.align	2
 2127              	tx_mailbox:
 2128 0000 00000000 		.space	4
 2129              		.section	.bss.tx_header,"aw",%nobits
 2130              		.align	2
 2133              	tx_header:
 2134 0000 00000000 		.space	24
 2134      00000000 
 2134      00000000 
 2134      00000000 
 2134      00000000 
 2135              		.section	.bss.tx_data,"aw",%nobits
 2136              		.align	2
 2139              	tx_data:
 2140 0000 00000000 		.space	8
 2140      00000000 
 2141              		.section	.bss.rx_data,"aw",%nobits
 2142              		.align	2
 2145              	rx_data:
 2146 0000 00000000 		.space	8
 2146      00000000 
 2147              		.section	.bss.rx_header,"aw",%nobits
 2148              		.align	2
 2151              	rx_header:
 2152 0000 00000000 		.space	28
 2152      00000000 
 2152      00000000 
 2152      00000000 
 2152      00000000 
 2153              		.section	.bss.bootloader_status,"aw",%nobits
 2154              		.align	2
 2157              	bootloader_status:
 2158 0000 00000000 		.space	20
 2158      00000000 
 2158      00000000 
 2158      00000000 
 2158      00000000 
 2159              		.section	.bss.hcan_bootloader,"aw",%nobits
 2160              		.align	2
 2163              	hcan_bootloader:
 2164 0000 00000000 		.space	4
 2165              		.text
ARM GAS  C:\Users\Ali\AppData\Local\Temp\ccszBmV3.s 			page 69


 2166              	.Letext0:
 2167              		.file 3 "C:/Users/Ali/AppData/Roaming/Code/User/globalStorage/bmd.stm32-for-vscode/@xpack-dev-tool
 2168              		.file 4 "C:/Users/Ali/AppData/Roaming/Code/User/globalStorage/bmd.stm32-for-vscode/@xpack-dev-tool
 2169              		.file 5 "Drivers/CMSIS/Include/core_cm4.h"
 2170              		.file 6 "Drivers/CMSIS/Device/ST/STM32L4xx/Include/stm32l432xx.h"
 2171              		.file 7 "Drivers/CMSIS/Device/ST/STM32L4xx/Include/stm32l4xx.h"
 2172              		.file 8 "Drivers/STM32L4xx_HAL_Driver/Inc/stm32l4xx_hal_def.h"
 2173              		.file 9 "Drivers/STM32L4xx_HAL_Driver/Inc/stm32l4xx_hal_can.h"
 2174              		.file 10 "Drivers/STM32L4xx_HAL_Driver/Inc/stm32l4xx_hal_flash.h"
 2175              		.file 11 "Core/Inc/bootloader.h"
 2176              		.file 12 "Drivers/STM32L4xx_HAL_Driver/Inc/stm32l4xx_hal_flash_ex.h"
 2177              		.file 13 "Drivers/STM32L4xx_HAL_Driver/Inc/stm32l4xx_hal.h"
 2178              		.file 14 "C:/Users/Ali/AppData/Roaming/Code/User/globalStorage/bmd.stm32-for-vscode/@xpack-dev-too
 2179              		.file 15 "Core/Inc/main.h"
ARM GAS  C:\Users\Ali\AppData\Local\Temp\ccszBmV3.s 			page 70

