
build/debug/CAN-Bootloader-TEST.elf:     file format elf32-littlearm

Sections:
Idx Name          Size      VMA       LMA       File off  Algn
  0 .isr_vector   00000190  08000000  08000000  00001000  2**0
                  CONTENTS, ALLOC, LOAD, READONLY, DATA
  1 .text         000024d0  08000190  08000190  00001190  2**3
                  CONTENTS, ALLOC, LOAD, READONLY, CODE
  2 .rodata       00000040  08002660  08002660  00003660  2**2
                  CONTENTS, ALLOC, LOAD, READONLY, DATA
  3 .ARM.extab    00000000  080026a0  080026a0  00004030  2**0
                  CONTENTS, READONLY
  4 .ARM          00000000  080026a0  080026a0  00004030  2**0
                  CONTENTS, READONLY
  5 .preinit_array 00000000  080026a0  080026a0  00004030  2**0
                  CONTENTS, ALLOC, LOAD, DATA
  6 .init_array   00000008  080026a0  080026a0  000036a0  2**2
                  CONTENTS, ALLOC, LOAD, READONLY, DATA
  7 .fini_array   00000008  080026a8  080026a8  000036a8  2**2
                  CONTENTS, ALLOC, LOAD, READONLY, DATA
  8 .data         00000030  20000000  080026b0  00004000  2**2
                  CONTENTS, ALLOC, LOAD, DATA
  9 .bss          000000b4  20000030  080026e0  00004030  2**2
                  ALLOC
 10 ._user_heap_stack 00000604  200000e4  080026e0  000040e4  2**0
                  ALLOC
 11 .ARM.attributes 00000030  00000000  00000000  00004030  2**0
                  CONTENTS, READONLY
 12 .comment      00000039  00000000  00000000  00004060  2**0
                  CONTENTS, READONLY
 13 .debug_info   00009699  00000000  00000000  00004099  2**0
                  CONTENTS, READONLY, DEBUGGING, OCTETS
 14 .debug_abbrev 00001f3a  00000000  00000000  0000d732  2**0
                  CONTENTS, READONLY, DEBUGGING, OCTETS
 15 .debug_loclists 00002c8b  00000000  00000000  0000f66c  2**0
                  CONTENTS, READONLY, DEBUGGING, OCTETS
 16 .debug_aranges 00000840  00000000  00000000  000122f8  2**3
                  CONTENTS, READONLY, DEBUGGING, OCTETS
 17 .debug_rnglists 0000062c  00000000  00000000  00012b38  2**0
                  CONTENTS, READONLY, DEBUGGING, OCTETS
 18 .debug_line   00006ffd  00000000  00000000  00013164  2**0
                  CONTENTS, READONLY, DEBUGGING, OCTETS
 19 .debug_str    00002e10  00000000  00000000  0001a161  2**0
                  CONTENTS, READONLY, DEBUGGING, OCTETS
 20 .debug_frame  00001254  00000000  00000000  0001cf74  2**2
                  CONTENTS, READONLY, DEBUGGING, OCTETS
 21 .debug_line_str 00000044  00000000  00000000  0001e1c8  2**0
                  CONTENTS, READONLY, DEBUGGING, OCTETS

Disassembly of section .text:

08000190 <__do_global_dtors_aux>:
 8000190:	b510      	push	{r4, lr}
 8000192:	4c05      	ldr	r4, [pc, #20]	@ (80001a8 <__do_global_dtors_aux+0x18>)
 8000194:	7823      	ldrb	r3, [r4, #0]
 8000196:	b933      	cbnz	r3, 80001a6 <__do_global_dtors_aux+0x16>
 8000198:	4b04      	ldr	r3, [pc, #16]	@ (80001ac <__do_global_dtors_aux+0x1c>)
 800019a:	b113      	cbz	r3, 80001a2 <__do_global_dtors_aux+0x12>
 800019c:	4804      	ldr	r0, [pc, #16]	@ (80001b0 <__do_global_dtors_aux+0x20>)
 800019e:	f3af 8000 	nop.w
 80001a2:	2301      	movs	r3, #1
 80001a4:	7023      	strb	r3, [r4, #0]
 80001a6:	bd10      	pop	{r4, pc}
 80001a8:	20000030 	.word	0x20000030
 80001ac:	00000000 	.word	0x00000000
 80001b0:	08002648 	.word	0x08002648

080001b4 <frame_dummy>:
 80001b4:	b508      	push	{r3, lr}
 80001b6:	4b03      	ldr	r3, [pc, #12]	@ (80001c4 <frame_dummy+0x10>)
 80001b8:	b11b      	cbz	r3, 80001c2 <frame_dummy+0xe>
 80001ba:	4903      	ldr	r1, [pc, #12]	@ (80001c8 <frame_dummy+0x14>)
 80001bc:	4803      	ldr	r0, [pc, #12]	@ (80001cc <frame_dummy+0x18>)
 80001be:	f3af 8000 	nop.w
 80001c2:	bd08      	pop	{r3, pc}
 80001c4:	00000000 	.word	0x00000000
 80001c8:	20000034 	.word	0x20000034
 80001cc:	08002648 	.word	0x08002648

080001d0 <Bootloader_ReadFlash>:
{
    uint16_t i;
    uint8_t *flash_ptr = (uint8_t *)address;
    
    /* Validate address */
    if (address < APPLICATION_ADDRESS || address > FLASH_END_ADDRESS)
 80001d0:	f100 4378 	add.w	r3, r0, #4160749568	@ 0xf8000000
 80001d4:	f5a3 4300 	sub.w	r3, r3, #32768	@ 0x8000
 80001d8:	f5b3 3f60 	cmp.w	r3, #229376	@ 0x38000
 80001dc:	d20b      	bcs.n	80001f6 <Bootloader_ReadFlash+0x26>
    {
        return ERR_INVALID_ADDRESS;
    }
    
    /* Read data */
    for (i = 0; i < length; i++)
 80001de:	2300      	movs	r3, #0
 80001e0:	e005      	b.n	80001ee <Bootloader_ReadFlash+0x1e>
    {
        data[i] = flash_ptr[i];
 80001e2:	f810 c003 	ldrb.w	ip, [r0, r3]
 80001e6:	f801 c003 	strb.w	ip, [r1, r3]
    for (i = 0; i < length; i++)
 80001ea:	3301      	adds	r3, #1
 80001ec:	b29b      	uxth	r3, r3
 80001ee:	4293      	cmp	r3, r2
 80001f0:	d3f7      	bcc.n	80001e2 <Bootloader_ReadFlash+0x12>
    }
    
    return ERR_NONE;
 80001f2:	2000      	movs	r0, #0
 80001f4:	4770      	bx	lr
        return ERR_INVALID_ADDRESS;
 80001f6:	2002      	movs	r0, #2
}
 80001f8:	4770      	bx	lr
	...

080001fc <Bootloader_ConfigureCANFilter>:
{
 80001fc:	b500      	push	{lr}
 80001fe:	b08b      	sub	sp, #44	@ 0x2c
    can_filter.FilterBank = 0;
 8000200:	2300      	movs	r3, #0
 8000202:	9305      	str	r3, [sp, #20]
    can_filter.FilterMode = CAN_FILTERMODE_IDMASK;
 8000204:	9306      	str	r3, [sp, #24]
    can_filter.FilterScale = CAN_FILTERSCALE_32BIT;
 8000206:	2201      	movs	r2, #1
 8000208:	9207      	str	r2, [sp, #28]
    can_filter.FilterIdHigh = (CAN_HOST_ID >> 13) & 0xFFFF;
 800020a:	f44f 4140 	mov.w	r1, #49152	@ 0xc000
 800020e:	9100      	str	r1, [sp, #0]
    can_filter.FilterIdLow = ((CAN_HOST_ID << 3) & 0xFFF8) | 0x0004;  /* IDE bit set */
 8000210:	f643 010c 	movw	r1, #14348	@ 0x380c
 8000214:	9101      	str	r1, [sp, #4]
    can_filter.FilterMaskIdHigh = 0xFFFF;  /* Match all upper bits */
 8000216:	f64f 71ff 	movw	r1, #65535	@ 0xffff
 800021a:	9102      	str	r1, [sp, #8]
    can_filter.FilterMaskIdLow = 0xFFFC;   /* Match lower bits + IDE */
 800021c:	f64f 71fc 	movw	r1, #65532	@ 0xfffc
 8000220:	9103      	str	r1, [sp, #12]
    can_filter.FilterFIFOAssignment = CAN_RX_FIFO0;
 8000222:	9304      	str	r3, [sp, #16]
    can_filter.FilterActivation = ENABLE;
 8000224:	9208      	str	r2, [sp, #32]
    can_filter.SlaveStartFilterBank = 14;
 8000226:	230e      	movs	r3, #14
 8000228:	9309      	str	r3, [sp, #36]	@ 0x24
    if (HAL_CAN_ConfigFilter(hcan_bootloader, &can_filter) != HAL_OK)
 800022a:	4669      	mov	r1, sp
 800022c:	4b05      	ldr	r3, [pc, #20]	@ (8000244 <Bootloader_ConfigureCANFilter+0x48>)
 800022e:	6818      	ldr	r0, [r3, #0]
 8000230:	f000 fd06 	bl	8000c40 <HAL_CAN_ConfigFilter>
 8000234:	b910      	cbnz	r0, 800023c <Bootloader_ConfigureCANFilter+0x40>
}
 8000236:	b00b      	add	sp, #44	@ 0x2c
 8000238:	f85d fb04 	ldr.w	pc, [sp], #4
        Error_Handler();
 800023c:	f000 fb94 	bl	8000968 <Error_Handler>
}
 8000240:	e7f9      	b.n	8000236 <Bootloader_ConfigureCANFilter+0x3a>
 8000242:	bf00      	nop
 8000244:	200000b4 	.word	0x200000b4

08000248 <Bootloader_WaitForCANTransmission>:
/**
  * @brief  Wait for all CAN transmissions to complete
  * @retval None
  */
static void Bootloader_WaitForCANTransmission(void)
{
 8000248:	b510      	push	{r4, lr}
    uint32_t timeout = 0;
 800024a:	2400      	movs	r4, #0
    
    /* Wait until all 3 TX mailboxes are free (all transmissions complete) */
    while (HAL_CAN_GetTxMailboxesFreeLevel(hcan_bootloader) != 3 && timeout < 1000000)
 800024c:	4b07      	ldr	r3, [pc, #28]	@ (800026c <Bootloader_WaitForCANTransmission+0x24>)
 800024e:	6818      	ldr	r0, [r3, #0]
 8000250:	f000 fe4c 	bl	8000eec <HAL_CAN_GetTxMailboxesFreeLevel>
 8000254:	2803      	cmp	r0, #3
 8000256:	d004      	beq.n	8000262 <Bootloader_WaitForCANTransmission+0x1a>
 8000258:	4b05      	ldr	r3, [pc, #20]	@ (8000270 <Bootloader_WaitForCANTransmission+0x28>)
 800025a:	429c      	cmp	r4, r3
 800025c:	d801      	bhi.n	8000262 <Bootloader_WaitForCANTransmission+0x1a>
    {
        timeout++;
 800025e:	3401      	adds	r4, #1
 8000260:	e7f4      	b.n	800024c <Bootloader_WaitForCANTransmission+0x4>
    }
    
    /* Additional delay to ensure message physically leaves the CAN controller */
    HAL_Delay(10);
 8000262:	200a      	movs	r0, #10
 8000264:	f000 fc32 	bl	8000acc <HAL_Delay>
}
 8000268:	bd10      	pop	{r4, pc}
 800026a:	bf00      	nop
 800026c:	200000b4 	.word	0x200000b4
 8000270:	000f423f 	.word	0x000f423f

08000274 <Bootloader_EraseApplicationFlash>:
{
 8000274:	b510      	push	{r4, lr}
 8000276:	b086      	sub	sp, #24
    HAL_FLASH_Unlock();
 8000278:	f001 f918 	bl	80014ac <HAL_FLASH_Unlock>
    __HAL_FLASH_CLEAR_FLAG(FLASH_FLAG_ALL_ERRORS);
 800027c:	4b10      	ldr	r3, [pc, #64]	@ (80002c0 <Bootloader_EraseApplicationFlash+0x4c>)
 800027e:	699a      	ldr	r2, [r3, #24]
 8000280:	f042 4240 	orr.w	r2, r2, #3221225472	@ 0xc0000000
 8000284:	619a      	str	r2, [r3, #24]
 8000286:	f24c 32fa 	movw	r2, #50170	@ 0xc3fa
 800028a:	611a      	str	r2, [r3, #16]
    erase_init.TypeErase = FLASH_TYPEERASE_PAGES;
 800028c:	2300      	movs	r3, #0
 800028e:	9302      	str	r3, [sp, #8]
    erase_init.Banks = FLASH_BANK_1;
 8000290:	2301      	movs	r3, #1
 8000292:	9303      	str	r3, [sp, #12]
    erase_init.Page = first_page;
 8000294:	2310      	movs	r3, #16
 8000296:	9304      	str	r3, [sp, #16]
    erase_init.NbPages = num_pages;
 8000298:	2370      	movs	r3, #112	@ 0x70
 800029a:	9305      	str	r3, [sp, #20]
    status = HAL_FLASHEx_Erase(&erase_init, &page_error);
 800029c:	a901      	add	r1, sp, #4
 800029e:	a802      	add	r0, sp, #8
 80002a0:	f001 fa08 	bl	80016b4 <HAL_FLASHEx_Erase>
 80002a4:	4604      	mov	r4, r0
    HAL_FLASH_Lock();
 80002a6:	f001 f919 	bl	80014dc <HAL_FLASH_Lock>
    if (status != HAL_OK)
 80002aa:	b92c      	cbnz	r4, 80002b8 <Bootloader_EraseApplicationFlash+0x44>
    bootloader_status.last_error = ERR_NONE;
 80002ac:	4b05      	ldr	r3, [pc, #20]	@ (80002c4 <Bootloader_EraseApplicationFlash+0x50>)
 80002ae:	2200      	movs	r2, #0
 80002b0:	741a      	strb	r2, [r3, #16]
}
 80002b2:	4620      	mov	r0, r4
 80002b4:	b006      	add	sp, #24
 80002b6:	bd10      	pop	{r4, pc}
        bootloader_status.last_error = ERR_FLASH_ERASE_FAILED;
 80002b8:	2403      	movs	r4, #3
 80002ba:	4b02      	ldr	r3, [pc, #8]	@ (80002c4 <Bootloader_EraseApplicationFlash+0x50>)
 80002bc:	741c      	strb	r4, [r3, #16]
        return ERR_FLASH_ERASE_FAILED;
 80002be:	e7f8      	b.n	80002b2 <Bootloader_EraseApplicationFlash+0x3e>
 80002c0:	40022000 	.word	0x40022000
 80002c4:	200000a0 	.word	0x200000a0

080002c8 <Bootloader_WriteFlash>:
{
 80002c8:	e92d 41f0 	stmdb	sp!, {r4, r5, r6, r7, r8, lr}
    if (address < APPLICATION_ADDRESS || address > FLASH_END_ADDRESS)
 80002cc:	f100 4378 	add.w	r3, r0, #4160749568	@ 0xf8000000
 80002d0:	f5a3 4300 	sub.w	r3, r3, #32768	@ 0x8000
 80002d4:	f5b3 3f60 	cmp.w	r3, #229376	@ 0x38000
 80002d8:	d238      	bcs.n	800034c <Bootloader_WriteFlash+0x84>
 80002da:	4607      	mov	r7, r0
 80002dc:	460d      	mov	r5, r1
 80002de:	4616      	mov	r6, r2
    if (length % 8 != 0)
 80002e0:	f012 0f07 	tst.w	r2, #7
 80002e4:	d138      	bne.n	8000358 <Bootloader_WriteFlash+0x90>
    HAL_FLASH_Unlock();
 80002e6:	f001 f8e1 	bl	80014ac <HAL_FLASH_Unlock>
    __HAL_FLASH_CLEAR_FLAG(FLASH_FLAG_ALL_ERRORS);
 80002ea:	4b27      	ldr	r3, [pc, #156]	@ (8000388 <Bootloader_WriteFlash+0xc0>)
 80002ec:	699a      	ldr	r2, [r3, #24]
 80002ee:	f042 4240 	orr.w	r2, r2, #3221225472	@ 0xc0000000
 80002f2:	619a      	str	r2, [r3, #24]
 80002f4:	f24c 32fa 	movw	r2, #50170	@ 0xc3fa
 80002f8:	611a      	str	r2, [r3, #16]
    for (i = 0; i < length; i += 8)
 80002fa:	2400      	movs	r4, #0
    HAL_StatusTypeDef status = HAL_OK;
 80002fc:	46a0      	mov	r8, r4
    for (i = 0; i < length; i += 8)
 80002fe:	42a6      	cmp	r6, r4
 8000300:	d930      	bls.n	8000364 <Bootloader_WriteFlash+0x9c>
        data64 = ((uint64_t)data[i + 0] << 0)  |
 8000302:	5d2a      	ldrb	r2, [r5, r4]
                 ((uint64_t)data[i + 1] << 8)  |
 8000304:	eb05 0c04 	add.w	ip, r5, r4
 8000308:	f89c 3001 	ldrb.w	r3, [ip, #1]
        data64 = ((uint64_t)data[i + 0] << 0)  |
 800030c:	ea42 2203 	orr.w	r2, r2, r3, lsl #8
                 ((uint64_t)data[i + 2] << 16) |
 8000310:	f89c 3002 	ldrb.w	r3, [ip, #2]
                 ((uint64_t)data[i + 1] << 8)  |
 8000314:	ea42 4203 	orr.w	r2, r2, r3, lsl #16
                 ((uint64_t)data[i + 3] << 24) |
 8000318:	f89c 0003 	ldrb.w	r0, [ip, #3]
 800031c:	f89c 3004 	ldrb.w	r3, [ip, #4]
                 ((uint64_t)data[i + 5] << 40) |
 8000320:	f89c 1005 	ldrb.w	r1, [ip, #5]
                 ((uint64_t)data[i + 4] << 32) |
 8000324:	ea43 2301 	orr.w	r3, r3, r1, lsl #8
                 ((uint64_t)data[i + 6] << 48) |
 8000328:	f89c 1006 	ldrb.w	r1, [ip, #6]
                 ((uint64_t)data[i + 5] << 40) |
 800032c:	ea43 4301 	orr.w	r3, r3, r1, lsl #16
                 ((uint64_t)data[i + 7] << 56);
 8000330:	f89c 1007 	ldrb.w	r1, [ip, #7]
        status = HAL_FLASH_Program(FLASH_TYPEPROGRAM_DOUBLEWORD, address + i, data64);
 8000334:	ea42 6200 	orr.w	r2, r2, r0, lsl #24
 8000338:	ea43 6301 	orr.w	r3, r3, r1, lsl #24
 800033c:	19e1      	adds	r1, r4, r7
 800033e:	2000      	movs	r0, #0
 8000340:	f001 f90a 	bl	8001558 <HAL_FLASH_Program>
        if (status != HAL_OK)
 8000344:	4680      	mov	r8, r0
 8000346:	b968      	cbnz	r0, 8000364 <Bootloader_WriteFlash+0x9c>
    for (i = 0; i < length; i += 8)
 8000348:	3408      	adds	r4, #8
 800034a:	e7d8      	b.n	80002fe <Bootloader_WriteFlash+0x36>
        bootloader_status.last_error = ERR_INVALID_ADDRESS;
 800034c:	f04f 0802 	mov.w	r8, #2
 8000350:	4b0e      	ldr	r3, [pc, #56]	@ (800038c <Bootloader_WriteFlash+0xc4>)
 8000352:	f883 8010 	strb.w	r8, [r3, #16]
        return ERR_INVALID_ADDRESS;
 8000356:	e00d      	b.n	8000374 <Bootloader_WriteFlash+0xac>
        bootloader_status.last_error = ERR_INVALID_DATA_LENGTH;
 8000358:	f04f 0805 	mov.w	r8, #5
 800035c:	4b0b      	ldr	r3, [pc, #44]	@ (800038c <Bootloader_WriteFlash+0xc4>)
 800035e:	f883 8010 	strb.w	r8, [r3, #16]
        return ERR_INVALID_DATA_LENGTH;
 8000362:	e007      	b.n	8000374 <Bootloader_WriteFlash+0xac>
    HAL_FLASH_Lock();
 8000364:	f001 f8ba 	bl	80014dc <HAL_FLASH_Lock>
    if (status != HAL_OK)
 8000368:	f1b8 0f00 	cmp.w	r8, #0
 800036c:	d105      	bne.n	800037a <Bootloader_WriteFlash+0xb2>
    bootloader_status.last_error = ERR_NONE;
 800036e:	4b07      	ldr	r3, [pc, #28]	@ (800038c <Bootloader_WriteFlash+0xc4>)
 8000370:	2200      	movs	r2, #0
 8000372:	741a      	strb	r2, [r3, #16]
}
 8000374:	4640      	mov	r0, r8
 8000376:	e8bd 81f0 	ldmia.w	sp!, {r4, r5, r6, r7, r8, pc}
        bootloader_status.last_error = ERR_FLASH_WRITE_FAILED;
 800037a:	f04f 0804 	mov.w	r8, #4
 800037e:	4b03      	ldr	r3, [pc, #12]	@ (800038c <Bootloader_WriteFlash+0xc4>)
 8000380:	f883 8010 	strb.w	r8, [r3, #16]
        return ERR_FLASH_WRITE_FAILED;
 8000384:	e7f6      	b.n	8000374 <Bootloader_WriteFlash+0xac>
 8000386:	bf00      	nop
 8000388:	40022000 	.word	0x40022000
 800038c:	200000a0 	.word	0x200000a0

08000390 <Bootloader_DeInit>:
{
 8000390:	b510      	push	{r4, lr}
    HAL_CAN_DeactivateNotification(hcan_bootloader, CAN_IT_RX_FIFO0_MSG_PENDING);
 8000392:	4c0f      	ldr	r4, [pc, #60]	@ (80003d0 <Bootloader_DeInit+0x40>)
 8000394:	2102      	movs	r1, #2
 8000396:	6820      	ldr	r0, [r4, #0]
 8000398:	f000 fe88 	bl	80010ac <HAL_CAN_DeactivateNotification>
    HAL_CAN_Stop(hcan_bootloader);
 800039c:	6820      	ldr	r0, [r4, #0]
 800039e:	f000 fd00 	bl	8000da2 <HAL_CAN_Stop>
    HAL_CAN_MspDeInit(hcan_bootloader);
 80003a2:	6820      	ldr	r0, [r4, #0]
 80003a4:	f001 fbbc 	bl	8001b20 <HAL_CAN_MspDeInit>
    SysTick->CTRL = 0;
 80003a8:	f04f 23e0 	mov.w	r3, #3758153728	@ 0xe000e000
 80003ac:	2200      	movs	r2, #0
 80003ae:	611a      	str	r2, [r3, #16]
    SysTick->LOAD = 0;
 80003b0:	615a      	str	r2, [r3, #20]
    SysTick->VAL = 0;
 80003b2:	619a      	str	r2, [r3, #24]
  \details Disables IRQ interrupts by setting the I-bit in the CPSR.
           Can only be executed in Privileged modes.
 */
__STATIC_FORCEINLINE void __disable_irq(void)
{
  __ASM volatile ("cpsid i" : : : "memory");
 80003b4:	b672      	cpsid	i
    __HAL_RCC_GPIOA_CLK_DISABLE();
 80003b6:	f103 43c0 	add.w	r3, r3, #1610612736	@ 0x60000000
 80003ba:	f503 3398 	add.w	r3, r3, #77824	@ 0x13000
 80003be:	6cda      	ldr	r2, [r3, #76]	@ 0x4c
 80003c0:	f022 0201 	bic.w	r2, r2, #1
 80003c4:	64da      	str	r2, [r3, #76]	@ 0x4c
    __HAL_RCC_CAN1_CLK_DISABLE();
 80003c6:	6d9a      	ldr	r2, [r3, #88]	@ 0x58
 80003c8:	f022 7200 	bic.w	r2, r2, #33554432	@ 0x2000000
 80003cc:	659a      	str	r2, [r3, #88]	@ 0x58
}
 80003ce:	bd10      	pop	{r4, pc}
 80003d0:	200000b4 	.word	0x200000b4

080003d4 <Bootloader_Init>:
{
 80003d4:	b510      	push	{r4, lr}
    hcan_bootloader = hcan;
 80003d6:	4c14      	ldr	r4, [pc, #80]	@ (8000428 <Bootloader_Init+0x54>)
 80003d8:	6020      	str	r0, [r4, #0]
    memset(&bootloader_status, 0, sizeof(BootloaderStatus_t));
 80003da:	4b14      	ldr	r3, [pc, #80]	@ (800042c <Bootloader_Init+0x58>)
 80003dc:	2200      	movs	r2, #0
 80003de:	601a      	str	r2, [r3, #0]
 80003e0:	605a      	str	r2, [r3, #4]
 80003e2:	609a      	str	r2, [r3, #8]
 80003e4:	60da      	str	r2, [r3, #12]
 80003e6:	611a      	str	r2, [r3, #16]
    bootloader_status.current_address = APPLICATION_ADDRESS;
 80003e8:	4a11      	ldr	r2, [pc, #68]	@ (8000430 <Bootloader_Init+0x5c>)
 80003ea:	605a      	str	r2, [r3, #4]
    Bootloader_ConfigureCANFilter();
 80003ec:	f7ff ff06 	bl	80001fc <Bootloader_ConfigureCANFilter>
    if (HAL_CAN_Start(hcan_bootloader) != HAL_OK)
 80003f0:	6820      	ldr	r0, [r4, #0]
 80003f2:	f000 fca8 	bl	8000d46 <HAL_CAN_Start>
 80003f6:	b988      	cbnz	r0, 800041c <Bootloader_Init+0x48>
    if (HAL_CAN_ActivateNotification(hcan_bootloader, CAN_IT_RX_FIFO0_MSG_PENDING) != HAL_OK)
 80003f8:	2102      	movs	r1, #2
 80003fa:	4b0b      	ldr	r3, [pc, #44]	@ (8000428 <Bootloader_Init+0x54>)
 80003fc:	6818      	ldr	r0, [r3, #0]
 80003fe:	f000 fe43 	bl	8001088 <HAL_CAN_ActivateNotification>
 8000402:	b970      	cbnz	r0, 8000422 <Bootloader_Init+0x4e>
    tx_header.StdId = 0;
 8000404:	4b0b      	ldr	r3, [pc, #44]	@ (8000434 <Bootloader_Init+0x60>)
 8000406:	2200      	movs	r2, #0
 8000408:	601a      	str	r2, [r3, #0]
    tx_header.ExtId = CAN_BOOTLOADER_ID;
 800040a:	490b      	ldr	r1, [pc, #44]	@ (8000438 <Bootloader_Init+0x64>)
 800040c:	6059      	str	r1, [r3, #4]
    tx_header.IDE = CAN_ID_EXT;
 800040e:	2104      	movs	r1, #4
 8000410:	6099      	str	r1, [r3, #8]
    tx_header.RTR = CAN_RTR_DATA;
 8000412:	60da      	str	r2, [r3, #12]
    tx_header.DLC = 8;
 8000414:	2108      	movs	r1, #8
 8000416:	6119      	str	r1, [r3, #16]
    tx_header.TransmitGlobalTime = DISABLE;
 8000418:	751a      	strb	r2, [r3, #20]
}
 800041a:	bd10      	pop	{r4, pc}
        Error_Handler();
 800041c:	f000 faa4 	bl	8000968 <Error_Handler>
 8000420:	e7ea      	b.n	80003f8 <Bootloader_Init+0x24>
        Error_Handler();
 8000422:	f000 faa1 	bl	8000968 <Error_Handler>
 8000426:	e7ed      	b.n	8000404 <Bootloader_Init+0x30>
 8000428:	200000b4 	.word	0x200000b4
 800042c:	200000a0 	.word	0x200000a0
 8000430:	08008000 	.word	0x08008000
 8000434:	2000005c 	.word	0x2000005c
 8000438:	18000700 	.word	0x18000700

0800043c <Bootloader_CheckValidApplication>:
    uint32_t stack_pointer = *(__IO uint32_t *)APPLICATION_ADDRESS;
 800043c:	4a09      	ldr	r2, [pc, #36]	@ (8000464 <Bootloader_CheckValidApplication+0x28>)
 800043e:	6813      	ldr	r3, [r2, #0]
    uint32_t reset_handler = *(__IO uint32_t *)(APPLICATION_ADDRESS + 4);
 8000440:	6852      	ldr	r2, [r2, #4]
    if ((stack_pointer & 0xFFF00000) != 0x20000000)
 8000442:	f36f 0313 	bfc	r3, #0, #20
 8000446:	f1b3 5f00 	cmp.w	r3, #536870912	@ 0x20000000
 800044a:	d106      	bne.n	800045a <Bootloader_CheckValidApplication+0x1e>
    if ((reset_handler & 0xFF000000) != 0x08000000 || (reset_handler & 0x01) == 0)
 800044c:	f36f 0257 	bfc	r2, #1, #23
 8000450:	4b05      	ldr	r3, [pc, #20]	@ (8000468 <Bootloader_CheckValidApplication+0x2c>)
 8000452:	429a      	cmp	r2, r3
 8000454:	d103      	bne.n	800045e <Bootloader_CheckValidApplication+0x22>
    return 1;
 8000456:	2001      	movs	r0, #1
 8000458:	4770      	bx	lr
        return 0;
 800045a:	2000      	movs	r0, #0
 800045c:	4770      	bx	lr
        return 0;
 800045e:	2000      	movs	r0, #0
}
 8000460:	4770      	bx	lr
 8000462:	bf00      	nop
 8000464:	08008000 	.word	0x08008000
 8000468:	08000001 	.word	0x08000001

0800046c <Bootloader_SendCANMessage>:
  * @param  data: Pointer to data buffer
  * @param  length: Data length
  * @retval None
  */
void Bootloader_SendCANMessage(uint8_t cmd, uint8_t *data, uint8_t length)
{
 800046c:	b500      	push	{lr}
 800046e:	b083      	sub	sp, #12
    uint8_t i;
    uint8_t tx_buffer[8] = {0};
 8000470:	2300      	movs	r3, #0
 8000472:	9300      	str	r3, [sp, #0]
 8000474:	9301      	str	r3, [sp, #4]
    
    /* Copy data to TX buffer */
    for (i = 0; i < length && i < 8; i++)
 8000476:	e008      	b.n	800048a <Bootloader_SendCANMessage+0x1e>
    {
        tx_buffer[i] = data[i];
 8000478:	f811 c003 	ldrb.w	ip, [r1, r3]
 800047c:	f103 0008 	add.w	r0, r3, #8
 8000480:	4468      	add	r0, sp
 8000482:	f800 cc08 	strb.w	ip, [r0, #-8]
    for (i = 0; i < length && i < 8; i++)
 8000486:	3301      	adds	r3, #1
 8000488:	b2db      	uxtb	r3, r3
 800048a:	4293      	cmp	r3, r2
 800048c:	d201      	bcs.n	8000492 <Bootloader_SendCANMessage+0x26>
 800048e:	2b07      	cmp	r3, #7
 8000490:	d9f2      	bls.n	8000478 <Bootloader_SendCANMessage+0xc>
    }
    
    /* Set DLC */
    tx_header.DLC = length;
 8000492:	4905      	ldr	r1, [pc, #20]	@ (80004a8 <Bootloader_SendCANMessage+0x3c>)
 8000494:	610a      	str	r2, [r1, #16]
    
    /* Send message */
    HAL_CAN_AddTxMessage(hcan_bootloader, &tx_header, tx_buffer, &tx_mailbox);
 8000496:	4b05      	ldr	r3, [pc, #20]	@ (80004ac <Bootloader_SendCANMessage+0x40>)
 8000498:	466a      	mov	r2, sp
 800049a:	4805      	ldr	r0, [pc, #20]	@ (80004b0 <Bootloader_SendCANMessage+0x44>)
 800049c:	6800      	ldr	r0, [r0, #0]
 800049e:	f000 fcb0 	bl	8000e02 <HAL_CAN_AddTxMessage>
}
 80004a2:	b003      	add	sp, #12
 80004a4:	f85d fb04 	ldr.w	pc, [sp], #4
 80004a8:	2000005c 	.word	0x2000005c
 80004ac:	20000058 	.word	0x20000058
 80004b0:	200000b4 	.word	0x200000b4

080004b4 <Bootloader_SendACK>:
{
 80004b4:	b508      	push	{r3, lr}
    tx_data[0] = RESP_ACK;
 80004b6:	4905      	ldr	r1, [pc, #20]	@ (80004cc <Bootloader_SendACK+0x18>)
 80004b8:	2010      	movs	r0, #16
 80004ba:	7008      	strb	r0, [r1, #0]
    tx_data[1] = bootloader_status.last_error;
 80004bc:	4b04      	ldr	r3, [pc, #16]	@ (80004d0 <Bootloader_SendACK+0x1c>)
 80004be:	7c1b      	ldrb	r3, [r3, #16]
 80004c0:	704b      	strb	r3, [r1, #1]
    Bootloader_SendCANMessage(RESP_ACK, tx_data, 2);
 80004c2:	2202      	movs	r2, #2
 80004c4:	f7ff ffd2 	bl	800046c <Bootloader_SendCANMessage>
}
 80004c8:	bd08      	pop	{r3, pc}
 80004ca:	bf00      	nop
 80004cc:	20000074 	.word	0x20000074
 80004d0:	200000a0 	.word	0x200000a0

080004d4 <Bootloader_SendNACK>:
{
 80004d4:	b508      	push	{r3, lr}
 80004d6:	4603      	mov	r3, r0
    bootloader_status.last_error = error_code;
 80004d8:	4a04      	ldr	r2, [pc, #16]	@ (80004ec <Bootloader_SendNACK+0x18>)
 80004da:	7410      	strb	r0, [r2, #16]
    tx_data[0] = RESP_NACK;
 80004dc:	4904      	ldr	r1, [pc, #16]	@ (80004f0 <Bootloader_SendNACK+0x1c>)
 80004de:	2011      	movs	r0, #17
 80004e0:	7008      	strb	r0, [r1, #0]
    tx_data[1] = error_code;
 80004e2:	704b      	strb	r3, [r1, #1]
    Bootloader_SendCANMessage(RESP_NACK, tx_data, 2);
 80004e4:	2202      	movs	r2, #2
 80004e6:	f7ff ffc1 	bl	800046c <Bootloader_SendCANMessage>
}
 80004ea:	bd08      	pop	{r3, pc}
 80004ec:	200000a0 	.word	0x200000a0
 80004f0:	20000074 	.word	0x20000074

080004f4 <Bootloader_JumpToApplication>:
{
 80004f4:	b570      	push	{r4, r5, r6, lr}
 80004f6:	b082      	sub	sp, #8
    if (!Bootloader_CheckValidApplication())
 80004f8:	f7ff ffa0 	bl	800043c <Bootloader_CheckValidApplication>
 80004fc:	b358      	cbz	r0, 8000556 <Bootloader_JumpToApplication+0x62>
    app_stack_pointer = *(__IO uint32_t *)APPLICATION_ADDRESS;
 80004fe:	4e17      	ldr	r6, [pc, #92]	@ (800055c <Bootloader_JumpToApplication+0x68>)
 8000500:	6834      	ldr	r4, [r6, #0]
    jump_address = *(__IO uint32_t *)(APPLICATION_ADDRESS + 4);
 8000502:	6875      	ldr	r5, [r6, #4]
    jump_info[0] = RESP_JUMP_INFO;
 8000504:	2016      	movs	r0, #22
 8000506:	f88d 0000 	strb.w	r0, [sp]
    jump_info[1] = (app_stack_pointer >> 24) & 0xFF;  /* Stack pointer MSB */
 800050a:	0e23      	lsrs	r3, r4, #24
 800050c:	f88d 3001 	strb.w	r3, [sp, #1]
    jump_info[2] = (app_stack_pointer >> 16) & 0xFF;
 8000510:	0c23      	lsrs	r3, r4, #16
 8000512:	f88d 3002 	strb.w	r3, [sp, #2]
    jump_info[3] = (app_stack_pointer >> 8) & 0xFF;
 8000516:	0a23      	lsrs	r3, r4, #8
 8000518:	f88d 3003 	strb.w	r3, [sp, #3]
    jump_info[4] = app_stack_pointer & 0xFF;          /* Stack pointer LSB */
 800051c:	f88d 4004 	strb.w	r4, [sp, #4]
    jump_info[5] = (jump_address >> 16) & 0xFF;       /* Reset vector high word */
 8000520:	0c2b      	lsrs	r3, r5, #16
 8000522:	f88d 3005 	strb.w	r3, [sp, #5]
    jump_info[6] = (jump_address >> 8) & 0xFF;
 8000526:	0a2b      	lsrs	r3, r5, #8
 8000528:	f88d 3006 	strb.w	r3, [sp, #6]
    jump_info[7] = jump_address & 0xFF;               /* Reset vector LSB */
 800052c:	f88d 5007 	strb.w	r5, [sp, #7]
    Bootloader_SendCANMessage(RESP_JUMP_INFO, jump_info, 8);
 8000530:	2208      	movs	r2, #8
 8000532:	4669      	mov	r1, sp
 8000534:	f7ff ff9a 	bl	800046c <Bootloader_SendCANMessage>
    Bootloader_WaitForCANTransmission();
 8000538:	f7ff fe86 	bl	8000248 <Bootloader_WaitForCANTransmission>
    bootloader_status.state = BL_STATE_JUMPING;
 800053c:	4b08      	ldr	r3, [pc, #32]	@ (8000560 <Bootloader_JumpToApplication+0x6c>)
 800053e:	2205      	movs	r2, #5
 8000540:	701a      	strb	r2, [r3, #0]
    Bootloader_DeInit();
 8000542:	f7ff ff25 	bl	8000390 <Bootloader_DeInit>
  \details Assigns the given value to the Main Stack Pointer (MSP).
  \param [in]    topOfMainStack  Main Stack Pointer value to set
 */
__STATIC_FORCEINLINE void __set_MSP(uint32_t topOfMainStack)
{
  __ASM volatile ("MSR msp, %0" : : "r" (topOfMainStack) : );
 8000546:	f384 8808 	msr	MSP, r4
    SCB->VTOR = APPLICATION_ADDRESS;
 800054a:	4b06      	ldr	r3, [pc, #24]	@ (8000564 <Bootloader_JumpToApplication+0x70>)
 800054c:	609e      	str	r6, [r3, #8]
    jump_to_application();
 800054e:	47a8      	blx	r5
    return ERR_NONE;
 8000550:	2000      	movs	r0, #0
}
 8000552:	b002      	add	sp, #8
 8000554:	bd70      	pop	{r4, r5, r6, pc}
        return ERR_NO_VALID_APP;
 8000556:	2006      	movs	r0, #6
 8000558:	e7fb      	b.n	8000552 <Bootloader_JumpToApplication+0x5e>
 800055a:	bf00      	nop
 800055c:	08008000 	.word	0x08008000
 8000560:	200000a0 	.word	0x200000a0
 8000564:	e000ed00 	.word	0xe000ed00

08000568 <Bootloader_SetApplicationValidFlag>:
/**
  * @brief  Set application valid flag in flash
  * @retval ERR_NONE if successful, error code otherwise
  */
uint8_t Bootloader_SetApplicationValidFlag(void)
{
 8000568:	b510      	push	{r4, lr}
 800056a:	b088      	sub	sp, #32
    HAL_StatusTypeDef status;
    uint32_t magic_data[2];
    uint64_t data_to_write;
    
    magic_data[0] = APP_VALID_MAGIC_NUMBER;
 800056c:	4b16      	ldr	r3, [pc, #88]	@ (80005c8 <Bootloader_SetApplicationValidFlag+0x60>)
 800056e:	9306      	str	r3, [sp, #24]
    magic_data[1] = APP_VALID_FLAG_COMPLEMENT;
 8000570:	4b16      	ldr	r3, [pc, #88]	@ (80005cc <Bootloader_SetApplicationValidFlag+0x64>)
 8000572:	9307      	str	r3, [sp, #28]
    
    /* Unlock flash */
    HAL_FLASH_Unlock();
 8000574:	f000 ff9a 	bl	80014ac <HAL_FLASH_Unlock>
    
    /* Erase the page containing the flag (Page 63 - last page before application) */
    FLASH_EraseInitTypeDef erase_init;
    uint32_t page_error;
    
    erase_init.TypeErase = FLASH_TYPEERASE_PAGES;
 8000578:	2300      	movs	r3, #0
 800057a:	9302      	str	r3, [sp, #8]
    erase_init.Page = 63;  /* Last page of bootloader area (32KB / 2KB per page = page 0-15, but flag is at end) */
 800057c:	233f      	movs	r3, #63	@ 0x3f
 800057e:	9304      	str	r3, [sp, #16]
    erase_init.NbPages = 1;
 8000580:	2301      	movs	r3, #1
 8000582:	9305      	str	r3, [sp, #20]
    
    status = HAL_FLASHEx_Erase(&erase_init, &page_error);
 8000584:	a901      	add	r1, sp, #4
 8000586:	a802      	add	r0, sp, #8
 8000588:	f001 f894 	bl	80016b4 <HAL_FLASHEx_Erase>
    if (status != HAL_OK)
 800058c:	b968      	cbnz	r0, 80005aa <Bootloader_SetApplicationValidFlag+0x42>
        HAL_FLASH_Lock();
        return ERR_FLASH_ERASE_FAILED;
    }
    
    /* Write magic number (first 4 bytes) */
    status = HAL_FLASH_Program(FLASH_TYPEPROGRAM_DOUBLEWORD, APP_VALID_FLAG_ADDRESS, 
 800058e:	a30c      	add	r3, pc, #48	@ (adr r3, 80005c0 <Bootloader_SetApplicationValidFlag+0x58>)
 8000590:	e9d3 2300 	ldrd	r2, r3, [r3]
 8000594:	490e      	ldr	r1, [pc, #56]	@ (80005d0 <Bootloader_SetApplicationValidFlag+0x68>)
 8000596:	2000      	movs	r0, #0
 8000598:	f000 ffde 	bl	8001558 <HAL_FLASH_Program>
                                *((uint64_t*)magic_data));
    
    if (status != HAL_OK)
 800059c:	4604      	mov	r4, r0
 800059e:	b940      	cbnz	r0, 80005b2 <Bootloader_SetApplicationValidFlag+0x4a>
        HAL_FLASH_Lock();
        return ERR_FLASH_WRITE_FAILED;
    }
    
    /* Lock flash */
    HAL_FLASH_Lock();
 80005a0:	f000 ff9c 	bl	80014dc <HAL_FLASH_Lock>
    
    return ERR_NONE;
}
 80005a4:	4620      	mov	r0, r4
 80005a6:	b008      	add	sp, #32
 80005a8:	bd10      	pop	{r4, pc}
        HAL_FLASH_Lock();
 80005aa:	f000 ff97 	bl	80014dc <HAL_FLASH_Lock>
        return ERR_FLASH_ERASE_FAILED;
 80005ae:	2403      	movs	r4, #3
 80005b0:	e7f8      	b.n	80005a4 <Bootloader_SetApplicationValidFlag+0x3c>
        HAL_FLASH_Lock();
 80005b2:	f000 ff93 	bl	80014dc <HAL_FLASH_Lock>
        return ERR_FLASH_WRITE_FAILED;
 80005b6:	2404      	movs	r4, #4
 80005b8:	e7f4      	b.n	80005a4 <Bootloader_SetApplicationValidFlag+0x3c>
 80005ba:	bf00      	nop
 80005bc:	f3af 8000 	nop.w
 80005c0:	deadbeef 	.word	0xdeadbeef
 80005c4:	21524110 	.word	0x21524110
 80005c8:	deadbeef 	.word	0xdeadbeef
 80005cc:	21524110 	.word	0x21524110
 80005d0:	08007ff8 	.word	0x08007ff8

080005d4 <Bootloader_CheckApplicationValidFlag>:
uint8_t Bootloader_CheckApplicationValidFlag(void)
{
    uint32_t *flag_ptr = (uint32_t *)APP_VALID_FLAG_ADDRESS;
    
    /* Check if both magic number and complement are present */
    if (flag_ptr[0] == APP_VALID_MAGIC_NUMBER && 
 80005d4:	4b08      	ldr	r3, [pc, #32]	@ (80005f8 <Bootloader_CheckApplicationValidFlag+0x24>)
 80005d6:	f8d3 2ff8 	ldr.w	r2, [r3, #4088]	@ 0xff8
 80005da:	4b08      	ldr	r3, [pc, #32]	@ (80005fc <Bootloader_CheckApplicationValidFlag+0x28>)
 80005dc:	429a      	cmp	r2, r3
 80005de:	d001      	beq.n	80005e4 <Bootloader_CheckApplicationValidFlag+0x10>
        flag_ptr[1] == APP_VALID_FLAG_COMPLEMENT)
    {
        return 1;  /* Valid flag found */
    }
    
    return 0;  /* No valid flag */
 80005e0:	2000      	movs	r0, #0
 80005e2:	4770      	bx	lr
        flag_ptr[1] == APP_VALID_FLAG_COMPLEMENT)
 80005e4:	4b04      	ldr	r3, [pc, #16]	@ (80005f8 <Bootloader_CheckApplicationValidFlag+0x24>)
 80005e6:	f8d3 2ffc 	ldr.w	r2, [r3, #4092]	@ 0xffc
    if (flag_ptr[0] == APP_VALID_MAGIC_NUMBER && 
 80005ea:	4b05      	ldr	r3, [pc, #20]	@ (8000600 <Bootloader_CheckApplicationValidFlag+0x2c>)
 80005ec:	429a      	cmp	r2, r3
 80005ee:	d001      	beq.n	80005f4 <Bootloader_CheckApplicationValidFlag+0x20>
    return 0;  /* No valid flag */
 80005f0:	2000      	movs	r0, #0
 80005f2:	4770      	bx	lr
        return 1;  /* Valid flag found */
 80005f4:	2001      	movs	r0, #1
}
 80005f6:	4770      	bx	lr
 80005f8:	08007000 	.word	0x08007000
 80005fc:	deadbeef 	.word	0xdeadbeef
 8000600:	21524110 	.word	0x21524110

08000604 <Bootloader_Main>:
{
 8000604:	b538      	push	{r3, r4, r5, lr}
    uint32_t timeout_start = HAL_GetTick();
 8000606:	f000 fa5b 	bl	8000ac0 <HAL_GetTick>
 800060a:	4605      	mov	r5, r0
    tx_data[0] = RESP_READY;
 800060c:	4922      	ldr	r1, [pc, #136]	@ (8000698 <Bootloader_Main+0x94>)
 800060e:	2014      	movs	r0, #20
 8000610:	7008      	strb	r0, [r1, #0]
    tx_data[1] = 0x01;  /* Bootloader version */
 8000612:	2301      	movs	r3, #1
 8000614:	704b      	strb	r3, [r1, #1]
    tx_data[2] = 0x00;  /* Bootloader subversion */
 8000616:	2400      	movs	r4, #0
 8000618:	708c      	strb	r4, [r1, #2]
    Bootloader_SendCANMessage(RESP_READY, tx_data, 3);
 800061a:	2203      	movs	r2, #3
 800061c:	f7ff ff26 	bl	800046c <Bootloader_SendCANMessage>
 8000620:	e027      	b.n	8000672 <Bootloader_Main+0x6e>
                tx_data[0] = RESP_READY;
 8000622:	491d      	ldr	r1, [pc, #116]	@ (8000698 <Bootloader_Main+0x94>)
 8000624:	2014      	movs	r0, #20
 8000626:	7008      	strb	r0, [r1, #0]
                tx_data[1] = 0xAA;  /* Special: Timeout auto-jump */
 8000628:	23aa      	movs	r3, #170	@ 0xaa
 800062a:	704b      	strb	r3, [r1, #1]
                tx_data[2] = 0x55;
 800062c:	2355      	movs	r3, #85	@ 0x55
 800062e:	708b      	strb	r3, [r1, #2]
                Bootloader_SendCANMessage(RESP_READY, tx_data, 3);
 8000630:	2203      	movs	r2, #3
 8000632:	f7ff ff1b 	bl	800046c <Bootloader_SendCANMessage>
                Bootloader_WaitForCANTransmission();
 8000636:	f7ff fe07 	bl	8000248 <Bootloader_WaitForCANTransmission>
                HAL_Delay(10);
 800063a:	200a      	movs	r0, #10
 800063c:	f000 fa46 	bl	8000acc <HAL_Delay>
                Bootloader_JumpToApplication();
 8000640:	f7ff ff58 	bl	80004f4 <Bootloader_JumpToApplication>
            timeout_expired = 1;
 8000644:	2401      	movs	r4, #1
        if (jump_to_app_flag)
 8000646:	4b15      	ldr	r3, [pc, #84]	@ (800069c <Bootloader_Main+0x98>)
 8000648:	781b      	ldrb	r3, [r3, #0]
 800064a:	b17b      	cbz	r3, 800066c <Bootloader_Main+0x68>
            tx_data[0] = RESP_READY;
 800064c:	4912      	ldr	r1, [pc, #72]	@ (8000698 <Bootloader_Main+0x94>)
 800064e:	2014      	movs	r0, #20
 8000650:	7008      	strb	r0, [r1, #0]
            tx_data[1] = 0xFF;  /* Special: About to jump */
 8000652:	23ff      	movs	r3, #255	@ 0xff
 8000654:	704b      	strb	r3, [r1, #1]
            tx_data[2] = 0xFF;
 8000656:	708b      	strb	r3, [r1, #2]
            Bootloader_SendCANMessage(RESP_READY, tx_data, 3);
 8000658:	2203      	movs	r2, #3
 800065a:	f7ff ff07 	bl	800046c <Bootloader_SendCANMessage>
            Bootloader_WaitForCANTransmission();
 800065e:	f7ff fdf3 	bl	8000248 <Bootloader_WaitForCANTransmission>
            Bootloader_JumpToApplication();
 8000662:	f7ff ff47 	bl	80004f4 <Bootloader_JumpToApplication>
            jump_to_app_flag = 0;
 8000666:	4b0d      	ldr	r3, [pc, #52]	@ (800069c <Bootloader_Main+0x98>)
 8000668:	2200      	movs	r2, #0
 800066a:	701a      	strb	r2, [r3, #0]
        HAL_Delay(1);
 800066c:	2001      	movs	r0, #1
 800066e:	f000 fa2d 	bl	8000acc <HAL_Delay>
        if (!timeout_expired && !can_command_received &&
 8000672:	2c00      	cmp	r4, #0
 8000674:	d1e7      	bne.n	8000646 <Bootloader_Main+0x42>
 8000676:	4b0a      	ldr	r3, [pc, #40]	@ (80006a0 <Bootloader_Main+0x9c>)
 8000678:	781b      	ldrb	r3, [r3, #0]
 800067a:	2b00      	cmp	r3, #0
 800067c:	d1e3      	bne.n	8000646 <Bootloader_Main+0x42>
            (HAL_GetTick() - timeout_start >= BOOTLOADER_TIMEOUT_MS))
 800067e:	f000 fa1f 	bl	8000ac0 <HAL_GetTick>
 8000682:	1b40      	subs	r0, r0, r5
        if (!timeout_expired && !can_command_received &&
 8000684:	f242 730f 	movw	r3, #9999	@ 0x270f
 8000688:	4298      	cmp	r0, r3
 800068a:	d9dc      	bls.n	8000646 <Bootloader_Main+0x42>
            if (Bootloader_CheckApplicationValidFlag())
 800068c:	f7ff ffa2 	bl	80005d4 <Bootloader_CheckApplicationValidFlag>
 8000690:	2800      	cmp	r0, #0
 8000692:	d1c6      	bne.n	8000622 <Bootloader_Main+0x1e>
            timeout_expired = 1;
 8000694:	2401      	movs	r4, #1
 8000696:	e7d6      	b.n	8000646 <Bootloader_Main+0x42>
 8000698:	20000074 	.word	0x20000074
 800069c:	2000004d 	.word	0x2000004d
 80006a0:	2000004c 	.word	0x2000004c

080006a4 <Bootloader_ClearApplicationValidFlag>:
/**
  * @brief  Clear application valid flag
  * @retval None
  */
void Bootloader_ClearApplicationValidFlag(void)
{
 80006a4:	b500      	push	{lr}
 80006a6:	b087      	sub	sp, #28
    HAL_StatusTypeDef status;
    FLASH_EraseInitTypeDef erase_init;
    uint32_t page_error;
    
    /* Unlock flash */
    HAL_FLASH_Unlock();
 80006a8:	f000 ff00 	bl	80014ac <HAL_FLASH_Unlock>
    
    /* Erase the page containing the flag */
    erase_init.TypeErase = FLASH_TYPEERASE_PAGES;
 80006ac:	2300      	movs	r3, #0
 80006ae:	9302      	str	r3, [sp, #8]
    erase_init.Page = 63;  /* Last page of bootloader area */
 80006b0:	233f      	movs	r3, #63	@ 0x3f
 80006b2:	9304      	str	r3, [sp, #16]
    erase_init.NbPages = 1;
 80006b4:	2301      	movs	r3, #1
 80006b6:	9305      	str	r3, [sp, #20]
    
    status = HAL_FLASHEx_Erase(&erase_init, &page_error);
 80006b8:	a901      	add	r1, sp, #4
 80006ba:	a802      	add	r0, sp, #8
 80006bc:	f000 fffa 	bl	80016b4 <HAL_FLASHEx_Erase>
    
    /* Lock flash */
    HAL_FLASH_Lock();
 80006c0:	f000 ff0c 	bl	80014dc <HAL_FLASH_Lock>
}
 80006c4:	b007      	add	sp, #28
 80006c6:	f85d fb04 	ldr.w	pc, [sp], #4
	...

080006cc <Bootloader_ProcessCANMessage>:
{
 80006cc:	b510      	push	{r4, lr}
    can_command_received = 1;
 80006ce:	4b86      	ldr	r3, [pc, #536]	@ (80008e8 <Bootloader_ProcessCANMessage+0x21c>)
 80006d0:	2201      	movs	r2, #1
 80006d2:	701a      	strb	r2, [r3, #0]
    command = rx_data[0];
 80006d4:	4b85      	ldr	r3, [pc, #532]	@ (80008ec <Bootloader_ProcessCANMessage+0x220>)
 80006d6:	781b      	ldrb	r3, [r3, #0]
    switch (command)
 80006d8:	3b01      	subs	r3, #1
 80006da:	2b06      	cmp	r3, #6
 80006dc:	f200 8100 	bhi.w	80008e0 <Bootloader_ProcessCANMessage+0x214>
 80006e0:	e8df f013 	tbh	[pc, r3, lsl #1]
 80006e4:	0094001b 	.word	0x0094001b
 80006e8:	00ec00bb 	.word	0x00ec00bb
 80006ec:	00310007 	.word	0x00310007
 80006f0:	004f      	.short	0x004f
            tx_data[0] = RESP_DATA;
 80006f2:	497f      	ldr	r1, [pc, #508]	@ (80008f0 <Bootloader_ProcessCANMessage+0x224>)
 80006f4:	2015      	movs	r0, #21
 80006f6:	7008      	strb	r0, [r1, #0]
            tx_data[1] = bootloader_status.state;
 80006f8:	4b7e      	ldr	r3, [pc, #504]	@ (80008f4 <Bootloader_ProcessCANMessage+0x228>)
 80006fa:	781a      	ldrb	r2, [r3, #0]
 80006fc:	704a      	strb	r2, [r1, #1]
            tx_data[2] = bootloader_status.last_error;
 80006fe:	7c1a      	ldrb	r2, [r3, #16]
 8000700:	708a      	strb	r2, [r1, #2]
            tx_data[3] = (bootloader_status.bytes_written >> 24) & 0xFF;
 8000702:	689b      	ldr	r3, [r3, #8]
 8000704:	0e1a      	lsrs	r2, r3, #24
 8000706:	70ca      	strb	r2, [r1, #3]
            tx_data[4] = (bootloader_status.bytes_written >> 16) & 0xFF;
 8000708:	0c1a      	lsrs	r2, r3, #16
 800070a:	710a      	strb	r2, [r1, #4]
            tx_data[5] = (bootloader_status.bytes_written >> 8) & 0xFF;
 800070c:	0a1a      	lsrs	r2, r3, #8
 800070e:	714a      	strb	r2, [r1, #5]
            tx_data[6] = bootloader_status.bytes_written & 0xFF;
 8000710:	718b      	strb	r3, [r1, #6]
            Bootloader_SendCANMessage(RESP_DATA, tx_data, 8);
 8000712:	2208      	movs	r2, #8
 8000714:	f7ff feaa 	bl	800046c <Bootloader_SendCANMessage>
}
 8000718:	bd10      	pop	{r4, pc}
            bootloader_status.state = BL_STATE_ERASING;
 800071a:	4b76      	ldr	r3, [pc, #472]	@ (80008f4 <Bootloader_ProcessCANMessage+0x228>)
 800071c:	2201      	movs	r2, #1
 800071e:	701a      	strb	r2, [r3, #0]
            Bootloader_ClearApplicationValidFlag();
 8000720:	f7ff ffc0 	bl	80006a4 <Bootloader_ClearApplicationValidFlag>
            result = Bootloader_EraseApplicationFlash();
 8000724:	f7ff fda6 	bl	8000274 <Bootloader_EraseApplicationFlash>
            if (result == ERR_NONE)
 8000728:	b950      	cbnz	r0, 8000740 <Bootloader_ProcessCANMessage+0x74>
                bootloader_status.bytes_written = 0;
 800072a:	4b72      	ldr	r3, [pc, #456]	@ (80008f4 <Bootloader_ProcessCANMessage+0x228>)
 800072c:	2200      	movs	r2, #0
 800072e:	609a      	str	r2, [r3, #8]
                bootloader_status.current_address = APPLICATION_ADDRESS;
 8000730:	4a71      	ldr	r2, [pc, #452]	@ (80008f8 <Bootloader_ProcessCANMessage+0x22c>)
 8000732:	605a      	str	r2, [r3, #4]
                Bootloader_SendACK();
 8000734:	f7ff febe 	bl	80004b4 <Bootloader_SendACK>
            bootloader_status.state = BL_STATE_IDLE;
 8000738:	4b6e      	ldr	r3, [pc, #440]	@ (80008f4 <Bootloader_ProcessCANMessage+0x228>)
 800073a:	2200      	movs	r2, #0
 800073c:	701a      	strb	r2, [r3, #0]
            break;
 800073e:	e7eb      	b.n	8000718 <Bootloader_ProcessCANMessage+0x4c>
                Bootloader_SendNACK(result);
 8000740:	f7ff fec8 	bl	80004d4 <Bootloader_SendNACK>
 8000744:	e7f8      	b.n	8000738 <Bootloader_ProcessCANMessage+0x6c>
            address = (rx_data[1] << 24) | (rx_data[2] << 16) | 
 8000746:	4a69      	ldr	r2, [pc, #420]	@ (80008ec <Bootloader_ProcessCANMessage+0x220>)
 8000748:	7851      	ldrb	r1, [r2, #1]
 800074a:	7893      	ldrb	r3, [r2, #2]
 800074c:	041b      	lsls	r3, r3, #16
 800074e:	ea43 6301 	orr.w	r3, r3, r1, lsl #24
                     (rx_data[3] << 8) | rx_data[4];
 8000752:	78d1      	ldrb	r1, [r2, #3]
            address = (rx_data[1] << 24) | (rx_data[2] << 16) | 
 8000754:	ea43 2301 	orr.w	r3, r3, r1, lsl #8
                     (rx_data[3] << 8) | rx_data[4];
 8000758:	7912      	ldrb	r2, [r2, #4]
 800075a:	4313      	orrs	r3, r2
            if (address >= APPLICATION_ADDRESS && address <= FLASH_END_ADDRESS)
 800075c:	f103 4278 	add.w	r2, r3, #4160749568	@ 0xf8000000
 8000760:	f5a2 4200 	sub.w	r2, r2, #32768	@ 0x8000
 8000764:	f5b2 3f60 	cmp.w	r2, #229376	@ 0x38000
 8000768:	d207      	bcs.n	800077a <Bootloader_ProcessCANMessage+0xae>
                bootloader_status.current_address = address;
 800076a:	4a62      	ldr	r2, [pc, #392]	@ (80008f4 <Bootloader_ProcessCANMessage+0x228>)
 800076c:	6053      	str	r3, [r2, #4]
                buffer_index = 0;  /* Reset buffer */
 800076e:	4b63      	ldr	r3, [pc, #396]	@ (80008fc <Bootloader_ProcessCANMessage+0x230>)
 8000770:	2200      	movs	r2, #0
 8000772:	801a      	strh	r2, [r3, #0]
                Bootloader_SendACK();
 8000774:	f7ff fe9e 	bl	80004b4 <Bootloader_SendACK>
 8000778:	e7ce      	b.n	8000718 <Bootloader_ProcessCANMessage+0x4c>
                Bootloader_SendNACK(ERR_INVALID_ADDRESS);
 800077a:	2002      	movs	r0, #2
 800077c:	f7ff feaa 	bl	80004d4 <Bootloader_SendNACK>
 8000780:	e7ca      	b.n	8000718 <Bootloader_ProcessCANMessage+0x4c>
            bootloader_status.state = BL_STATE_WRITING;
 8000782:	4b5c      	ldr	r3, [pc, #368]	@ (80008f4 <Bootloader_ProcessCANMessage+0x228>)
 8000784:	2202      	movs	r2, #2
 8000786:	701a      	strb	r2, [r3, #0]
            length = rx_data[1];  /* Data length - should always be 4 */
 8000788:	4b58      	ldr	r3, [pc, #352]	@ (80008ec <Bootloader_ProcessCANMessage+0x220>)
 800078a:	785b      	ldrb	r3, [r3, #1]
            if (length != 4)
 800078c:	2b04      	cmp	r3, #4
 800078e:	d101      	bne.n	8000794 <Bootloader_ProcessCANMessage+0xc8>
            for (uint8_t i = 0; i < 4; i++)
 8000790:	2300      	movs	r3, #0
 8000792:	e015      	b.n	80007c0 <Bootloader_ProcessCANMessage+0xf4>
                Bootloader_SendNACK(ERR_INVALID_DATA_LENGTH);
 8000794:	2005      	movs	r0, #5
 8000796:	f7ff fe9d 	bl	80004d4 <Bootloader_SendNACK>
                bootloader_status.state = BL_STATE_IDLE;
 800079a:	2300      	movs	r3, #0
 800079c:	4a55      	ldr	r2, [pc, #340]	@ (80008f4 <Bootloader_ProcessCANMessage+0x228>)
 800079e:	7013      	strb	r3, [r2, #0]
                buffer_index = 0;  /* Reset buffer on error */
 80007a0:	4a56      	ldr	r2, [pc, #344]	@ (80008fc <Bootloader_ProcessCANMessage+0x230>)
 80007a2:	8013      	strh	r3, [r2, #0]
                break;
 80007a4:	e7b8      	b.n	8000718 <Bootloader_ProcessCANMessage+0x4c>
                flash_buffer[buffer_index++] = rx_data[2 + i];
 80007a6:	1c98      	adds	r0, r3, #2
 80007a8:	4954      	ldr	r1, [pc, #336]	@ (80008fc <Bootloader_ProcessCANMessage+0x230>)
 80007aa:	880a      	ldrh	r2, [r1, #0]
 80007ac:	f102 0c01 	add.w	ip, r2, #1
 80007b0:	f8a1 c000 	strh.w	ip, [r1]
 80007b4:	494d      	ldr	r1, [pc, #308]	@ (80008ec <Bootloader_ProcessCANMessage+0x220>)
 80007b6:	5c08      	ldrb	r0, [r1, r0]
 80007b8:	4951      	ldr	r1, [pc, #324]	@ (8000900 <Bootloader_ProcessCANMessage+0x234>)
 80007ba:	5488      	strb	r0, [r1, r2]
            for (uint8_t i = 0; i < 4; i++)
 80007bc:	3301      	adds	r3, #1
 80007be:	b2db      	uxtb	r3, r3
 80007c0:	2b03      	cmp	r3, #3
 80007c2:	d9f0      	bls.n	80007a6 <Bootloader_ProcessCANMessage+0xda>
            if (buffer_index >= 8)
 80007c4:	4b4d      	ldr	r3, [pc, #308]	@ (80008fc <Bootloader_ProcessCANMessage+0x230>)
 80007c6:	881b      	ldrh	r3, [r3, #0]
 80007c8:	2b07      	cmp	r3, #7
 80007ca:	d919      	bls.n	8000800 <Bootloader_ProcessCANMessage+0x134>
                result = Bootloader_WriteFlash(bootloader_status.current_address, 
 80007cc:	2208      	movs	r2, #8
 80007ce:	494c      	ldr	r1, [pc, #304]	@ (8000900 <Bootloader_ProcessCANMessage+0x234>)
 80007d0:	4b48      	ldr	r3, [pc, #288]	@ (80008f4 <Bootloader_ProcessCANMessage+0x228>)
 80007d2:	6858      	ldr	r0, [r3, #4]
 80007d4:	f7ff fd78 	bl	80002c8 <Bootloader_WriteFlash>
                if (result == ERR_NONE)
 80007d8:	b960      	cbnz	r0, 80007f4 <Bootloader_ProcessCANMessage+0x128>
                    bootloader_status.current_address += 8;
 80007da:	4b46      	ldr	r3, [pc, #280]	@ (80008f4 <Bootloader_ProcessCANMessage+0x228>)
 80007dc:	685a      	ldr	r2, [r3, #4]
 80007de:	3208      	adds	r2, #8
 80007e0:	605a      	str	r2, [r3, #4]
                    bootloader_status.bytes_written += 8;
 80007e2:	689a      	ldr	r2, [r3, #8]
 80007e4:	3208      	adds	r2, #8
 80007e6:	609a      	str	r2, [r3, #8]
                    buffer_index = 0;
 80007e8:	4b44      	ldr	r3, [pc, #272]	@ (80008fc <Bootloader_ProcessCANMessage+0x230>)
 80007ea:	2200      	movs	r2, #0
 80007ec:	801a      	strh	r2, [r3, #0]
                    Bootloader_SendACK();
 80007ee:	f7ff fe61 	bl	80004b4 <Bootloader_SendACK>
 80007f2:	e007      	b.n	8000804 <Bootloader_ProcessCANMessage+0x138>
                    buffer_index = 0;  /* Reset buffer on write failure */
 80007f4:	4a41      	ldr	r2, [pc, #260]	@ (80008fc <Bootloader_ProcessCANMessage+0x230>)
 80007f6:	2100      	movs	r1, #0
 80007f8:	8011      	strh	r1, [r2, #0]
                    Bootloader_SendNACK(result);
 80007fa:	f7ff fe6b 	bl	80004d4 <Bootloader_SendNACK>
 80007fe:	e001      	b.n	8000804 <Bootloader_ProcessCANMessage+0x138>
                Bootloader_SendACK();  /* Data buffered, waiting for more */
 8000800:	f7ff fe58 	bl	80004b4 <Bootloader_SendACK>
            bootloader_status.state = BL_STATE_IDLE;
 8000804:	4b3b      	ldr	r3, [pc, #236]	@ (80008f4 <Bootloader_ProcessCANMessage+0x228>)
 8000806:	2200      	movs	r2, #0
 8000808:	701a      	strb	r2, [r3, #0]
            break;
 800080a:	e785      	b.n	8000718 <Bootloader_ProcessCANMessage+0x4c>
            address = (rx_data[1] << 24) | (rx_data[2] << 16) | 
 800080c:	4b37      	ldr	r3, [pc, #220]	@ (80008ec <Bootloader_ProcessCANMessage+0x220>)
 800080e:	785a      	ldrb	r2, [r3, #1]
 8000810:	7898      	ldrb	r0, [r3, #2]
 8000812:	0400      	lsls	r0, r0, #16
 8000814:	ea40 6002 	orr.w	r0, r0, r2, lsl #24
                     (rx_data[3] << 8) | rx_data[4];
 8000818:	78da      	ldrb	r2, [r3, #3]
            address = (rx_data[1] << 24) | (rx_data[2] << 16) | 
 800081a:	ea40 2002 	orr.w	r0, r0, r2, lsl #8
                     (rx_data[3] << 8) | rx_data[4];
 800081e:	791a      	ldrb	r2, [r3, #4]
 8000820:	4310      	orrs	r0, r2
            length = rx_data[5];
 8000822:	795a      	ldrb	r2, [r3, #5]
            if (address >= APPLICATION_ADDRESS && address <= FLASH_END_ADDRESS)
 8000824:	f100 4378 	add.w	r3, r0, #4160749568	@ 0xf8000000
 8000828:	f5a3 4300 	sub.w	r3, r3, #32768	@ 0x8000
 800082c:	f5b3 3f60 	cmp.w	r3, #229376	@ 0x38000
 8000830:	d20f      	bcs.n	8000852 <Bootloader_ProcessCANMessage+0x186>
                bootloader_status.state = BL_STATE_WRITING;
 8000832:	4b30      	ldr	r3, [pc, #192]	@ (80008f4 <Bootloader_ProcessCANMessage+0x228>)
 8000834:	2102      	movs	r1, #2
 8000836:	7019      	strb	r1, [r3, #0]
                result = Bootloader_WriteFlash(address, &rx_data[6], length);
 8000838:	4932      	ldr	r1, [pc, #200]	@ (8000904 <Bootloader_ProcessCANMessage+0x238>)
 800083a:	f7ff fd45 	bl	80002c8 <Bootloader_WriteFlash>
                if (result == ERR_NONE)
 800083e:	b928      	cbnz	r0, 800084c <Bootloader_ProcessCANMessage+0x180>
                    Bootloader_SendACK();
 8000840:	f7ff fe38 	bl	80004b4 <Bootloader_SendACK>
                bootloader_status.state = BL_STATE_IDLE;
 8000844:	4b2b      	ldr	r3, [pc, #172]	@ (80008f4 <Bootloader_ProcessCANMessage+0x228>)
 8000846:	2200      	movs	r2, #0
 8000848:	701a      	strb	r2, [r3, #0]
 800084a:	e765      	b.n	8000718 <Bootloader_ProcessCANMessage+0x4c>
                    Bootloader_SendNACK(result);
 800084c:	f7ff fe42 	bl	80004d4 <Bootloader_SendNACK>
 8000850:	e7f8      	b.n	8000844 <Bootloader_ProcessCANMessage+0x178>
                Bootloader_SendNACK(ERR_INVALID_ADDRESS);
 8000852:	2002      	movs	r0, #2
 8000854:	f7ff fe3e 	bl	80004d4 <Bootloader_SendNACK>
 8000858:	e75e      	b.n	8000718 <Bootloader_ProcessCANMessage+0x4c>
            address = (rx_data[1] << 24) | (rx_data[2] << 16) | 
 800085a:	4b24      	ldr	r3, [pc, #144]	@ (80008ec <Bootloader_ProcessCANMessage+0x220>)
 800085c:	785a      	ldrb	r2, [r3, #1]
 800085e:	7898      	ldrb	r0, [r3, #2]
 8000860:	0400      	lsls	r0, r0, #16
 8000862:	ea40 6002 	orr.w	r0, r0, r2, lsl #24
                     (rx_data[3] << 8) | rx_data[4];
 8000866:	78da      	ldrb	r2, [r3, #3]
            address = (rx_data[1] << 24) | (rx_data[2] << 16) | 
 8000868:	ea40 2002 	orr.w	r0, r0, r2, lsl #8
                     (rx_data[3] << 8) | rx_data[4];
 800086c:	791a      	ldrb	r2, [r3, #4]
 800086e:	4310      	orrs	r0, r2
            length = rx_data[5];
 8000870:	795c      	ldrb	r4, [r3, #5]
            if (address >= APPLICATION_ADDRESS && address <= FLASH_END_ADDRESS && length <= 7)
 8000872:	f100 4378 	add.w	r3, r0, #4160749568	@ 0xf8000000
 8000876:	f5a3 4300 	sub.w	r3, r3, #32768	@ 0x8000
 800087a:	f5b3 3f60 	cmp.w	r3, #229376	@ 0x38000
 800087e:	d201      	bcs.n	8000884 <Bootloader_ProcessCANMessage+0x1b8>
 8000880:	2c07      	cmp	r4, #7
 8000882:	d903      	bls.n	800088c <Bootloader_ProcessCANMessage+0x1c0>
                Bootloader_SendNACK(ERR_INVALID_ADDRESS);
 8000884:	2002      	movs	r0, #2
 8000886:	f7ff fe25 	bl	80004d4 <Bootloader_SendNACK>
 800088a:	e745      	b.n	8000718 <Bootloader_ProcessCANMessage+0x4c>
                bootloader_status.state = BL_STATE_READING;
 800088c:	4b19      	ldr	r3, [pc, #100]	@ (80008f4 <Bootloader_ProcessCANMessage+0x228>)
 800088e:	2203      	movs	r2, #3
 8000890:	701a      	strb	r2, [r3, #0]
                tx_data[0] = RESP_DATA;
 8000892:	4917      	ldr	r1, [pc, #92]	@ (80008f0 <Bootloader_ProcessCANMessage+0x224>)
 8000894:	2315      	movs	r3, #21
 8000896:	f801 3b01 	strb.w	r3, [r1], #1
                result = Bootloader_ReadFlash(address, &tx_data[1], length);
 800089a:	4622      	mov	r2, r4
 800089c:	f7ff fc98 	bl	80001d0 <Bootloader_ReadFlash>
                if (result == ERR_NONE)
 80008a0:	b948      	cbnz	r0, 80008b6 <Bootloader_ProcessCANMessage+0x1ea>
                    Bootloader_SendCANMessage(RESP_DATA, tx_data, length + 1);
 80008a2:	1c62      	adds	r2, r4, #1
 80008a4:	b2d2      	uxtb	r2, r2
 80008a6:	4912      	ldr	r1, [pc, #72]	@ (80008f0 <Bootloader_ProcessCANMessage+0x224>)
 80008a8:	2015      	movs	r0, #21
 80008aa:	f7ff fddf 	bl	800046c <Bootloader_SendCANMessage>
                bootloader_status.state = BL_STATE_IDLE;
 80008ae:	4b11      	ldr	r3, [pc, #68]	@ (80008f4 <Bootloader_ProcessCANMessage+0x228>)
 80008b0:	2200      	movs	r2, #0
 80008b2:	701a      	strb	r2, [r3, #0]
 80008b4:	e730      	b.n	8000718 <Bootloader_ProcessCANMessage+0x4c>
                    Bootloader_SendNACK(result);
 80008b6:	f7ff fe0d 	bl	80004d4 <Bootloader_SendNACK>
 80008ba:	e7f8      	b.n	80008ae <Bootloader_ProcessCANMessage+0x1e2>
            if (Bootloader_CheckValidApplication())
 80008bc:	f7ff fdbe 	bl	800043c <Bootloader_CheckValidApplication>
 80008c0:	b150      	cbz	r0, 80008d8 <Bootloader_ProcessCANMessage+0x20c>
                result = Bootloader_SetApplicationValidFlag();
 80008c2:	f7ff fe51 	bl	8000568 <Bootloader_SetApplicationValidFlag>
                if (result != ERR_NONE)
 80008c6:	b108      	cbz	r0, 80008cc <Bootloader_ProcessCANMessage+0x200>
                    bootloader_status.last_error = result;
 80008c8:	4a0a      	ldr	r2, [pc, #40]	@ (80008f4 <Bootloader_ProcessCANMessage+0x228>)
 80008ca:	7410      	strb	r0, [r2, #16]
                Bootloader_SendACK();
 80008cc:	f7ff fdf2 	bl	80004b4 <Bootloader_SendACK>
                jump_to_app_flag = 1;  /* Set flag to trigger jump from main loop */
 80008d0:	4b0d      	ldr	r3, [pc, #52]	@ (8000908 <Bootloader_ProcessCANMessage+0x23c>)
 80008d2:	2201      	movs	r2, #1
 80008d4:	701a      	strb	r2, [r3, #0]
 80008d6:	e71f      	b.n	8000718 <Bootloader_ProcessCANMessage+0x4c>
                Bootloader_SendNACK(ERR_NO_VALID_APP);
 80008d8:	2006      	movs	r0, #6
 80008da:	f7ff fdfb 	bl	80004d4 <Bootloader_SendNACK>
 80008de:	e71b      	b.n	8000718 <Bootloader_ProcessCANMessage+0x4c>
            Bootloader_SendNACK(ERR_INVALID_COMMAND);
 80008e0:	2001      	movs	r0, #1
 80008e2:	f7ff fdf7 	bl	80004d4 <Bootloader_SendNACK>
}
 80008e6:	e717      	b.n	8000718 <Bootloader_ProcessCANMessage+0x4c>
 80008e8:	2000004c 	.word	0x2000004c
 80008ec:	2000007c 	.word	0x2000007c
 80008f0:	20000074 	.word	0x20000074
 80008f4:	200000a0 	.word	0x200000a0
 80008f8:	08008000 	.word	0x08008000
 80008fc:	2000004e 	.word	0x2000004e
 8000900:	20000050 	.word	0x20000050
 8000904:	20000082 	.word	0x20000082
 8000908:	2000004d 	.word	0x2000004d

0800090c <HAL_CAN_RxFifo0MsgPendingCallback>:
  * @brief  CAN RX FIFO 0 message pending callback
  * @param  hcan: pointer to CAN Handle
  * @retval None
  */
void HAL_CAN_RxFifo0MsgPendingCallback(CAN_HandleTypeDef *hcan)
{
 800090c:	b508      	push	{r3, lr}
    if (hcan == hcan_bootloader)
 800090e:	4b0a      	ldr	r3, [pc, #40]	@ (8000938 <HAL_CAN_RxFifo0MsgPendingCallback+0x2c>)
 8000910:	681b      	ldr	r3, [r3, #0]
 8000912:	4283      	cmp	r3, r0
 8000914:	d000      	beq.n	8000918 <HAL_CAN_RxFifo0MsgPendingCallback+0xc>
                /* Process the message */
                Bootloader_ProcessCANMessage();
            }
        }
    }
}
 8000916:	bd08      	pop	{r3, pc}
        if (HAL_CAN_GetRxMessage(hcan, CAN_RX_FIFO0, &rx_header, rx_data) == HAL_OK)
 8000918:	4b08      	ldr	r3, [pc, #32]	@ (800093c <HAL_CAN_RxFifo0MsgPendingCallback+0x30>)
 800091a:	4a09      	ldr	r2, [pc, #36]	@ (8000940 <HAL_CAN_RxFifo0MsgPendingCallback+0x34>)
 800091c:	2100      	movs	r1, #0
 800091e:	f000 fafe 	bl	8000f1e <HAL_CAN_GetRxMessage>
 8000922:	2800      	cmp	r0, #0
 8000924:	d1f7      	bne.n	8000916 <HAL_CAN_RxFifo0MsgPendingCallback+0xa>
            if (rx_header.StdId == CAN_HOST_ID)
 8000926:	4b06      	ldr	r3, [pc, #24]	@ (8000940 <HAL_CAN_RxFifo0MsgPendingCallback+0x34>)
 8000928:	681a      	ldr	r2, [r3, #0]
 800092a:	4b06      	ldr	r3, [pc, #24]	@ (8000944 <HAL_CAN_RxFifo0MsgPendingCallback+0x38>)
 800092c:	429a      	cmp	r2, r3
 800092e:	d1f2      	bne.n	8000916 <HAL_CAN_RxFifo0MsgPendingCallback+0xa>
                Bootloader_ProcessCANMessage();
 8000930:	f7ff fecc 	bl	80006cc <Bootloader_ProcessCANMessage>
}
 8000934:	e7ef      	b.n	8000916 <HAL_CAN_RxFifo0MsgPendingCallback+0xa>
 8000936:	bf00      	nop
 8000938:	200000b4 	.word	0x200000b4
 800093c:	2000007c 	.word	0x2000007c
 8000940:	20000084 	.word	0x20000084
 8000944:	18000701 	.word	0x18000701

08000948 <MX_GPIO_Init>:
  * @brief GPIO Initialization Function
  * @param None
  * @retval None
  */
static void MX_GPIO_Init(void)
{
 8000948:	b082      	sub	sp, #8
  /* USER CODE BEGIN MX_GPIO_Init_1 */

  /* USER CODE END MX_GPIO_Init_1 */

  /* GPIO Ports Clock Enable */
  __HAL_RCC_GPIOA_CLK_ENABLE();
 800094a:	4b06      	ldr	r3, [pc, #24]	@ (8000964 <MX_GPIO_Init+0x1c>)
 800094c:	6cda      	ldr	r2, [r3, #76]	@ 0x4c
 800094e:	f042 0201 	orr.w	r2, r2, #1
 8000952:	64da      	str	r2, [r3, #76]	@ 0x4c
 8000954:	6cdb      	ldr	r3, [r3, #76]	@ 0x4c
 8000956:	f003 0301 	and.w	r3, r3, #1
 800095a:	9301      	str	r3, [sp, #4]
 800095c:	9b01      	ldr	r3, [sp, #4]

  /* USER CODE BEGIN MX_GPIO_Init_2 */

  /* USER CODE END MX_GPIO_Init_2 */
}
 800095e:	b002      	add	sp, #8
 8000960:	4770      	bx	lr
 8000962:	bf00      	nop
 8000964:	40021000 	.word	0x40021000

08000968 <Error_Handler>:
  __ASM volatile ("cpsid i" : : : "memory");
 8000968:	b672      	cpsid	i
void Error_Handler(void)
{
  /* USER CODE BEGIN Error_Handler_Debug */
  /* User can add his own implementation to report the HAL error return state */
  __disable_irq();
  while (1)
 800096a:	e7fe      	b.n	800096a <Error_Handler+0x2>

0800096c <MX_CAN1_Init>:
{
 800096c:	b508      	push	{r3, lr}
  hcan1.Instance = CAN1;
 800096e:	480d      	ldr	r0, [pc, #52]	@ (80009a4 <MX_CAN1_Init+0x38>)
 8000970:	4b0d      	ldr	r3, [pc, #52]	@ (80009a8 <MX_CAN1_Init+0x3c>)
 8000972:	6003      	str	r3, [r0, #0]
  hcan1.Init.Prescaler = 6;
 8000974:	2306      	movs	r3, #6
 8000976:	6043      	str	r3, [r0, #4]
  hcan1.Init.Mode = CAN_MODE_NORMAL;
 8000978:	2300      	movs	r3, #0
 800097a:	6083      	str	r3, [r0, #8]
  hcan1.Init.SyncJumpWidth = CAN_SJW_1TQ;
 800097c:	60c3      	str	r3, [r0, #12]
  hcan1.Init.TimeSeg1 = CAN_BS1_13TQ;
 800097e:	f44f 2240 	mov.w	r2, #786432	@ 0xc0000
 8000982:	6102      	str	r2, [r0, #16]
  hcan1.Init.TimeSeg2 = CAN_BS2_2TQ;
 8000984:	f44f 1280 	mov.w	r2, #1048576	@ 0x100000
 8000988:	6142      	str	r2, [r0, #20]
  hcan1.Init.TimeTriggeredMode = DISABLE;
 800098a:	7603      	strb	r3, [r0, #24]
  hcan1.Init.AutoBusOff = DISABLE;
 800098c:	7643      	strb	r3, [r0, #25]
  hcan1.Init.AutoWakeUp = DISABLE;
 800098e:	7683      	strb	r3, [r0, #26]
  hcan1.Init.AutoRetransmission = DISABLE;
 8000990:	76c3      	strb	r3, [r0, #27]
  hcan1.Init.ReceiveFifoLocked = DISABLE;
 8000992:	7703      	strb	r3, [r0, #28]
  hcan1.Init.TransmitFifoPriority = DISABLE;
 8000994:	7743      	strb	r3, [r0, #29]
  if (HAL_CAN_Init(&hcan1) != HAL_OK)
 8000996:	f000 f8ad 	bl	8000af4 <HAL_CAN_Init>
 800099a:	b900      	cbnz	r0, 800099e <MX_CAN1_Init+0x32>
}
 800099c:	bd08      	pop	{r3, pc}
    Error_Handler();
 800099e:	f7ff ffe3 	bl	8000968 <Error_Handler>
 80009a2:	bf00      	nop
 80009a4:	200000b8 	.word	0x200000b8
 80009a8:	40006400 	.word	0x40006400

080009ac <SystemClock_Config>:
{
 80009ac:	b500      	push	{lr}
 80009ae:	b097      	sub	sp, #92	@ 0x5c
  RCC_OscInitTypeDef RCC_OscInitStruct = {0};
 80009b0:	2244      	movs	r2, #68	@ 0x44
 80009b2:	2100      	movs	r1, #0
 80009b4:	a805      	add	r0, sp, #20
 80009b6:	f001 fe1a 	bl	80025ee <memset>
  RCC_ClkInitTypeDef RCC_ClkInitStruct = {0};
 80009ba:	2300      	movs	r3, #0
 80009bc:	9300      	str	r3, [sp, #0]
 80009be:	9301      	str	r3, [sp, #4]
 80009c0:	9302      	str	r3, [sp, #8]
 80009c2:	9303      	str	r3, [sp, #12]
 80009c4:	9304      	str	r3, [sp, #16]
  if (HAL_PWREx_ControlVoltageScaling(PWR_REGULATOR_VOLTAGE_SCALE1) != HAL_OK)
 80009c6:	f44f 7000 	mov.w	r0, #512	@ 0x200
 80009ca:	f001 f8d3 	bl	8001b74 <HAL_PWREx_ControlVoltageScaling>
 80009ce:	b9d8      	cbnz	r0, 8000a08 <SystemClock_Config+0x5c>
  RCC_OscInitStruct.OscillatorType = RCC_OSCILLATORTYPE_MSI;
 80009d0:	2310      	movs	r3, #16
 80009d2:	9305      	str	r3, [sp, #20]
  RCC_OscInitStruct.MSIState = RCC_MSI_ON;
 80009d4:	2301      	movs	r3, #1
 80009d6:	930b      	str	r3, [sp, #44]	@ 0x2c
  RCC_OscInitStruct.MSICalibrationValue = 0;
 80009d8:	2300      	movs	r3, #0
 80009da:	930c      	str	r3, [sp, #48]	@ 0x30
  RCC_OscInitStruct.MSIClockRange = RCC_MSIRANGE_11;
 80009dc:	22b0      	movs	r2, #176	@ 0xb0
 80009de:	920d      	str	r2, [sp, #52]	@ 0x34
  RCC_OscInitStruct.PLL.PLLState = RCC_PLL_NONE;
 80009e0:	930f      	str	r3, [sp, #60]	@ 0x3c
  if (HAL_RCC_OscConfig(&RCC_OscInitStruct) != HAL_OK)
 80009e2:	a805      	add	r0, sp, #20
 80009e4:	f001 f9aa 	bl	8001d3c <HAL_RCC_OscConfig>
 80009e8:	b980      	cbnz	r0, 8000a0c <SystemClock_Config+0x60>
  RCC_ClkInitStruct.ClockType = RCC_CLOCKTYPE_HCLK|RCC_CLOCKTYPE_SYSCLK
 80009ea:	230f      	movs	r3, #15
 80009ec:	9300      	str	r3, [sp, #0]
  RCC_ClkInitStruct.SYSCLKSource = RCC_SYSCLKSOURCE_MSI;
 80009ee:	2300      	movs	r3, #0
 80009f0:	9301      	str	r3, [sp, #4]
  RCC_ClkInitStruct.AHBCLKDivider = RCC_SYSCLK_DIV1;
 80009f2:	9302      	str	r3, [sp, #8]
  RCC_ClkInitStruct.APB1CLKDivider = RCC_HCLK_DIV1;
 80009f4:	9303      	str	r3, [sp, #12]
  RCC_ClkInitStruct.APB2CLKDivider = RCC_HCLK_DIV1;
 80009f6:	9304      	str	r3, [sp, #16]
  if (HAL_RCC_ClockConfig(&RCC_ClkInitStruct, FLASH_LATENCY_2) != HAL_OK)
 80009f8:	2102      	movs	r1, #2
 80009fa:	4668      	mov	r0, sp
 80009fc:	f001 fcd4 	bl	80023a8 <HAL_RCC_ClockConfig>
 8000a00:	b930      	cbnz	r0, 8000a10 <SystemClock_Config+0x64>
}
 8000a02:	b017      	add	sp, #92	@ 0x5c
 8000a04:	f85d fb04 	ldr.w	pc, [sp], #4
    Error_Handler();
 8000a08:	f7ff ffae 	bl	8000968 <Error_Handler>
    Error_Handler();
 8000a0c:	f7ff ffac 	bl	8000968 <Error_Handler>
    Error_Handler();
 8000a10:	f7ff ffaa 	bl	8000968 <Error_Handler>

08000a14 <main>:
{
 8000a14:	b508      	push	{r3, lr}
  HAL_Init();
 8000a16:	f000 f837 	bl	8000a88 <HAL_Init>
  SystemClock_Config();
 8000a1a:	f7ff ffc7 	bl	80009ac <SystemClock_Config>
  MX_GPIO_Init();
 8000a1e:	f7ff ff93 	bl	8000948 <MX_GPIO_Init>
  MX_CAN1_Init();
 8000a22:	f7ff ffa3 	bl	800096c <MX_CAN1_Init>
  Bootloader_Init(&hcan1);
 8000a26:	4803      	ldr	r0, [pc, #12]	@ (8000a34 <main+0x20>)
 8000a28:	f7ff fcd4 	bl	80003d4 <Bootloader_Init>
  Bootloader_Main();
 8000a2c:	f7ff fdea 	bl	8000604 <Bootloader_Main>
  while (1)
 8000a30:	e7fe      	b.n	8000a30 <main+0x1c>
 8000a32:	bf00      	nop
 8000a34:	200000b8 	.word	0x200000b8

08000a38 <HAL_InitTick>:
__weak HAL_StatusTypeDef HAL_InitTick(uint32_t TickPriority)
{
  HAL_StatusTypeDef  status = HAL_OK;

  /* Check uwTickFreq for MisraC 2012 (even if uwTickFreq is a enum type that doesn't take the value zero)*/
  if ((uint32_t)uwTickFreq != 0U)
 8000a38:	4b10      	ldr	r3, [pc, #64]	@ (8000a7c <HAL_InitTick+0x44>)
 8000a3a:	781b      	ldrb	r3, [r3, #0]
 8000a3c:	b90b      	cbnz	r3, 8000a42 <HAL_InitTick+0xa>
      status = HAL_ERROR;
    }
  }
  else
  {
    status = HAL_ERROR;
 8000a3e:	2001      	movs	r0, #1
  }

  /* Return function status */
  return status;
}
 8000a40:	4770      	bx	lr
{
 8000a42:	b510      	push	{r4, lr}
 8000a44:	4604      	mov	r4, r0
    if (HAL_SYSTICK_Config(SystemCoreClock / (1000U / (uint32_t)uwTickFreq)) == 0U)
 8000a46:	f44f 707a 	mov.w	r0, #1000	@ 0x3e8
 8000a4a:	fbb0 f3f3 	udiv	r3, r0, r3
 8000a4e:	4a0c      	ldr	r2, [pc, #48]	@ (8000a80 <HAL_InitTick+0x48>)
 8000a50:	6810      	ldr	r0, [r2, #0]
 8000a52:	fbb0 f0f3 	udiv	r0, r0, r3
 8000a56:	f000 fcef 	bl	8001438 <HAL_SYSTICK_Config>
 8000a5a:	b968      	cbnz	r0, 8000a78 <HAL_InitTick+0x40>
      if (TickPriority < (1UL << __NVIC_PRIO_BITS))
 8000a5c:	2c0f      	cmp	r4, #15
 8000a5e:	d901      	bls.n	8000a64 <HAL_InitTick+0x2c>
        status = HAL_ERROR;
 8000a60:	2001      	movs	r0, #1
 8000a62:	e00a      	b.n	8000a7a <HAL_InitTick+0x42>
        HAL_NVIC_SetPriority(SysTick_IRQn, TickPriority, 0U);
 8000a64:	2200      	movs	r2, #0
 8000a66:	4621      	mov	r1, r4
 8000a68:	f04f 30ff 	mov.w	r0, #4294967295
 8000a6c:	f000 fccc 	bl	8001408 <HAL_NVIC_SetPriority>
        uwTickPrio = TickPriority;
 8000a70:	4b04      	ldr	r3, [pc, #16]	@ (8000a84 <HAL_InitTick+0x4c>)
 8000a72:	601c      	str	r4, [r3, #0]
  HAL_StatusTypeDef  status = HAL_OK;
 8000a74:	2000      	movs	r0, #0
 8000a76:	e000      	b.n	8000a7a <HAL_InitTick+0x42>
      status = HAL_ERROR;
 8000a78:	2001      	movs	r0, #1
}
 8000a7a:	bd10      	pop	{r4, pc}
 8000a7c:	20000000 	.word	0x20000000
 8000a80:	20000028 	.word	0x20000028
 8000a84:	20000004 	.word	0x20000004

08000a88 <HAL_Init>:
{
 8000a88:	b510      	push	{r4, lr}
  HAL_NVIC_SetPriorityGrouping(NVIC_PRIORITYGROUP_4);
 8000a8a:	2003      	movs	r0, #3
 8000a8c:	f000 fcaa 	bl	80013e4 <HAL_NVIC_SetPriorityGrouping>
  if (HAL_InitTick(TICK_INT_PRIORITY) != HAL_OK)
 8000a90:	200f      	movs	r0, #15
 8000a92:	f7ff ffd1 	bl	8000a38 <HAL_InitTick>
 8000a96:	b110      	cbz	r0, 8000a9e <HAL_Init+0x16>
    status = HAL_ERROR;
 8000a98:	2401      	movs	r4, #1
}
 8000a9a:	4620      	mov	r0, r4
 8000a9c:	bd10      	pop	{r4, pc}
 8000a9e:	4604      	mov	r4, r0
    HAL_MspInit();
 8000aa0:	f000 ffd2 	bl	8001a48 <HAL_MspInit>
 8000aa4:	e7f9      	b.n	8000a9a <HAL_Init+0x12>
	...

08000aa8 <HAL_IncTick>:
  *      implementations in user file.
  * @retval None
  */
__weak void HAL_IncTick(void)
{
  uwTick += (uint32_t)uwTickFreq;
 8000aa8:	4b03      	ldr	r3, [pc, #12]	@ (8000ab8 <HAL_IncTick+0x10>)
 8000aaa:	781b      	ldrb	r3, [r3, #0]
 8000aac:	4a03      	ldr	r2, [pc, #12]	@ (8000abc <HAL_IncTick+0x14>)
 8000aae:	6811      	ldr	r1, [r2, #0]
 8000ab0:	440b      	add	r3, r1
 8000ab2:	6013      	str	r3, [r2, #0]
}
 8000ab4:	4770      	bx	lr
 8000ab6:	bf00      	nop
 8000ab8:	20000000 	.word	0x20000000
 8000abc:	200000e0 	.word	0x200000e0

08000ac0 <HAL_GetTick>:
  *       implementations in user file.
  * @retval tick value
  */
__weak uint32_t HAL_GetTick(void)
{
  return uwTick;
 8000ac0:	4b01      	ldr	r3, [pc, #4]	@ (8000ac8 <HAL_GetTick+0x8>)
 8000ac2:	6818      	ldr	r0, [r3, #0]
}
 8000ac4:	4770      	bx	lr
 8000ac6:	bf00      	nop
 8000ac8:	200000e0 	.word	0x200000e0

08000acc <HAL_Delay>:
  *       implementations in user file.
  * @param Delay  specifies the delay time length, in milliseconds.
  * @retval None
  */
__weak void HAL_Delay(uint32_t Delay)
{
 8000acc:	b538      	push	{r3, r4, r5, lr}
 8000ace:	4604      	mov	r4, r0
  uint32_t tickstart = HAL_GetTick();
 8000ad0:	f7ff fff6 	bl	8000ac0 <HAL_GetTick>
 8000ad4:	4605      	mov	r5, r0
  uint32_t wait = Delay;

  /* Add a period to guaranty minimum wait */
  if (wait < HAL_MAX_DELAY)
 8000ad6:	f1b4 3fff 	cmp.w	r4, #4294967295
 8000ada:	d002      	beq.n	8000ae2 <HAL_Delay+0x16>
  {
    wait += (uint32_t)uwTickFreq;
 8000adc:	4b04      	ldr	r3, [pc, #16]	@ (8000af0 <HAL_Delay+0x24>)
 8000ade:	781b      	ldrb	r3, [r3, #0]
 8000ae0:	441c      	add	r4, r3
  }

  while ((HAL_GetTick() - tickstart) < wait)
 8000ae2:	f7ff ffed 	bl	8000ac0 <HAL_GetTick>
 8000ae6:	1b40      	subs	r0, r0, r5
 8000ae8:	42a0      	cmp	r0, r4
 8000aea:	d3fa      	bcc.n	8000ae2 <HAL_Delay+0x16>
  {
  }
}
 8000aec:	bd38      	pop	{r3, r4, r5, pc}
 8000aee:	bf00      	nop
 8000af0:	20000000 	.word	0x20000000

08000af4 <HAL_CAN_Init>:
HAL_StatusTypeDef HAL_CAN_Init(CAN_HandleTypeDef *hcan)
{
  uint32_t tickstart;

  /* Check CAN handle */
  if (hcan == NULL)
 8000af4:	2800      	cmp	r0, #0
 8000af6:	f000 80a1 	beq.w	8000c3c <HAL_CAN_Init+0x148>
{
 8000afa:	b538      	push	{r3, r4, r5, lr}
 8000afc:	4604      	mov	r4, r0
    /* Init the low level hardware: CLOCK, NVIC */
    hcan->MspInitCallback(hcan);
  }

#else
  if (hcan->State == HAL_CAN_STATE_RESET)
 8000afe:	f890 3020 	ldrb.w	r3, [r0, #32]
 8000b02:	b1d3      	cbz	r3, 8000b3a <HAL_CAN_Init+0x46>
    HAL_CAN_MspInit(hcan);
  }
#endif /* USE_HAL_CAN_REGISTER_CALLBACKS */

  /* Request initialisation */
  SET_BIT(hcan->Instance->MCR, CAN_MCR_INRQ);
 8000b04:	6822      	ldr	r2, [r4, #0]
 8000b06:	6813      	ldr	r3, [r2, #0]
 8000b08:	f043 0301 	orr.w	r3, r3, #1
 8000b0c:	6013      	str	r3, [r2, #0]

  /* Get tick */
  tickstart = HAL_GetTick();
 8000b0e:	f7ff ffd7 	bl	8000ac0 <HAL_GetTick>
 8000b12:	4605      	mov	r5, r0

  /* Wait initialisation acknowledge */
  while ((hcan->Instance->MSR & CAN_MSR_INAK) == 0U)
 8000b14:	6823      	ldr	r3, [r4, #0]
 8000b16:	685a      	ldr	r2, [r3, #4]
 8000b18:	f012 0f01 	tst.w	r2, #1
 8000b1c:	d110      	bne.n	8000b40 <HAL_CAN_Init+0x4c>
  {
    if ((HAL_GetTick() - tickstart) > CAN_TIMEOUT_VALUE)
 8000b1e:	f7ff ffcf 	bl	8000ac0 <HAL_GetTick>
 8000b22:	1b40      	subs	r0, r0, r5
 8000b24:	280a      	cmp	r0, #10
 8000b26:	d9f5      	bls.n	8000b14 <HAL_CAN_Init+0x20>
    {
      /* Update error code */
      hcan->ErrorCode |= HAL_CAN_ERROR_TIMEOUT;
 8000b28:	6a63      	ldr	r3, [r4, #36]	@ 0x24
 8000b2a:	f443 3300 	orr.w	r3, r3, #131072	@ 0x20000
 8000b2e:	6263      	str	r3, [r4, #36]	@ 0x24

      /* Change CAN state */
      hcan->State = HAL_CAN_STATE_ERROR;
 8000b30:	2305      	movs	r3, #5
 8000b32:	f884 3020 	strb.w	r3, [r4, #32]

      return HAL_ERROR;
 8000b36:	2001      	movs	r0, #1
  /* Initialize the CAN state */
  hcan->State = HAL_CAN_STATE_READY;

  /* Return function status */
  return HAL_OK;
}
 8000b38:	bd38      	pop	{r3, r4, r5, pc}
    HAL_CAN_MspInit(hcan);
 8000b3a:	f000 ff9d 	bl	8001a78 <HAL_CAN_MspInit>
 8000b3e:	e7e1      	b.n	8000b04 <HAL_CAN_Init+0x10>
  CLEAR_BIT(hcan->Instance->MCR, CAN_MCR_SLEEP);
 8000b40:	681a      	ldr	r2, [r3, #0]
 8000b42:	f022 0202 	bic.w	r2, r2, #2
 8000b46:	601a      	str	r2, [r3, #0]
  tickstart = HAL_GetTick();
 8000b48:	f7ff ffba 	bl	8000ac0 <HAL_GetTick>
 8000b4c:	4605      	mov	r5, r0
  while ((hcan->Instance->MSR & CAN_MSR_SLAK) != 0U)
 8000b4e:	6823      	ldr	r3, [r4, #0]
 8000b50:	685a      	ldr	r2, [r3, #4]
 8000b52:	f012 0f02 	tst.w	r2, #2
 8000b56:	d00d      	beq.n	8000b74 <HAL_CAN_Init+0x80>
    if ((HAL_GetTick() - tickstart) > CAN_TIMEOUT_VALUE)
 8000b58:	f7ff ffb2 	bl	8000ac0 <HAL_GetTick>
 8000b5c:	1b40      	subs	r0, r0, r5
 8000b5e:	280a      	cmp	r0, #10
 8000b60:	d9f5      	bls.n	8000b4e <HAL_CAN_Init+0x5a>
      hcan->ErrorCode |= HAL_CAN_ERROR_TIMEOUT;
 8000b62:	6a63      	ldr	r3, [r4, #36]	@ 0x24
 8000b64:	f443 3300 	orr.w	r3, r3, #131072	@ 0x20000
 8000b68:	6263      	str	r3, [r4, #36]	@ 0x24
      hcan->State = HAL_CAN_STATE_ERROR;
 8000b6a:	2305      	movs	r3, #5
 8000b6c:	f884 3020 	strb.w	r3, [r4, #32]
      return HAL_ERROR;
 8000b70:	2001      	movs	r0, #1
 8000b72:	e7e1      	b.n	8000b38 <HAL_CAN_Init+0x44>
  if (hcan->Init.TimeTriggeredMode == ENABLE)
 8000b74:	7e22      	ldrb	r2, [r4, #24]
 8000b76:	2a01      	cmp	r2, #1
 8000b78:	d03d      	beq.n	8000bf6 <HAL_CAN_Init+0x102>
    CLEAR_BIT(hcan->Instance->MCR, CAN_MCR_TTCM);
 8000b7a:	681a      	ldr	r2, [r3, #0]
 8000b7c:	f022 0280 	bic.w	r2, r2, #128	@ 0x80
 8000b80:	601a      	str	r2, [r3, #0]
  if (hcan->Init.AutoBusOff == ENABLE)
 8000b82:	7e63      	ldrb	r3, [r4, #25]
 8000b84:	2b01      	cmp	r3, #1
 8000b86:	d03b      	beq.n	8000c00 <HAL_CAN_Init+0x10c>
    CLEAR_BIT(hcan->Instance->MCR, CAN_MCR_ABOM);
 8000b88:	6822      	ldr	r2, [r4, #0]
 8000b8a:	6813      	ldr	r3, [r2, #0]
 8000b8c:	f023 0340 	bic.w	r3, r3, #64	@ 0x40
 8000b90:	6013      	str	r3, [r2, #0]
  if (hcan->Init.AutoWakeUp == ENABLE)
 8000b92:	7ea3      	ldrb	r3, [r4, #26]
 8000b94:	2b01      	cmp	r3, #1
 8000b96:	d039      	beq.n	8000c0c <HAL_CAN_Init+0x118>
    CLEAR_BIT(hcan->Instance->MCR, CAN_MCR_AWUM);
 8000b98:	6822      	ldr	r2, [r4, #0]
 8000b9a:	6813      	ldr	r3, [r2, #0]
 8000b9c:	f023 0320 	bic.w	r3, r3, #32
 8000ba0:	6013      	str	r3, [r2, #0]
  if (hcan->Init.AutoRetransmission == ENABLE)
 8000ba2:	7ee3      	ldrb	r3, [r4, #27]
 8000ba4:	2b01      	cmp	r3, #1
 8000ba6:	d037      	beq.n	8000c18 <HAL_CAN_Init+0x124>
    SET_BIT(hcan->Instance->MCR, CAN_MCR_NART);
 8000ba8:	6822      	ldr	r2, [r4, #0]
 8000baa:	6813      	ldr	r3, [r2, #0]
 8000bac:	f043 0310 	orr.w	r3, r3, #16
 8000bb0:	6013      	str	r3, [r2, #0]
  if (hcan->Init.ReceiveFifoLocked == ENABLE)
 8000bb2:	7f23      	ldrb	r3, [r4, #28]
 8000bb4:	2b01      	cmp	r3, #1
 8000bb6:	d035      	beq.n	8000c24 <HAL_CAN_Init+0x130>
    CLEAR_BIT(hcan->Instance->MCR, CAN_MCR_RFLM);
 8000bb8:	6822      	ldr	r2, [r4, #0]
 8000bba:	6813      	ldr	r3, [r2, #0]
 8000bbc:	f023 0308 	bic.w	r3, r3, #8
 8000bc0:	6013      	str	r3, [r2, #0]
  if (hcan->Init.TransmitFifoPriority == ENABLE)
 8000bc2:	7f63      	ldrb	r3, [r4, #29]
 8000bc4:	2b01      	cmp	r3, #1
 8000bc6:	d033      	beq.n	8000c30 <HAL_CAN_Init+0x13c>
    CLEAR_BIT(hcan->Instance->MCR, CAN_MCR_TXFP);
 8000bc8:	6822      	ldr	r2, [r4, #0]
 8000bca:	6813      	ldr	r3, [r2, #0]
 8000bcc:	f023 0304 	bic.w	r3, r3, #4
 8000bd0:	6013      	str	r3, [r2, #0]
  WRITE_REG(hcan->Instance->BTR, (uint32_t)(hcan->Init.Mode           |
 8000bd2:	68a3      	ldr	r3, [r4, #8]
 8000bd4:	68e2      	ldr	r2, [r4, #12]
 8000bd6:	4313      	orrs	r3, r2
 8000bd8:	6922      	ldr	r2, [r4, #16]
 8000bda:	4313      	orrs	r3, r2
 8000bdc:	6962      	ldr	r2, [r4, #20]
 8000bde:	4313      	orrs	r3, r2
 8000be0:	6862      	ldr	r2, [r4, #4]
 8000be2:	3a01      	subs	r2, #1
 8000be4:	6821      	ldr	r1, [r4, #0]
 8000be6:	4313      	orrs	r3, r2
 8000be8:	61cb      	str	r3, [r1, #28]
  hcan->ErrorCode = HAL_CAN_ERROR_NONE;
 8000bea:	2000      	movs	r0, #0
 8000bec:	6260      	str	r0, [r4, #36]	@ 0x24
  hcan->State = HAL_CAN_STATE_READY;
 8000bee:	2301      	movs	r3, #1
 8000bf0:	f884 3020 	strb.w	r3, [r4, #32]
  return HAL_OK;
 8000bf4:	e7a0      	b.n	8000b38 <HAL_CAN_Init+0x44>
    SET_BIT(hcan->Instance->MCR, CAN_MCR_TTCM);
 8000bf6:	681a      	ldr	r2, [r3, #0]
 8000bf8:	f042 0280 	orr.w	r2, r2, #128	@ 0x80
 8000bfc:	601a      	str	r2, [r3, #0]
 8000bfe:	e7c0      	b.n	8000b82 <HAL_CAN_Init+0x8e>
    SET_BIT(hcan->Instance->MCR, CAN_MCR_ABOM);
 8000c00:	6822      	ldr	r2, [r4, #0]
 8000c02:	6813      	ldr	r3, [r2, #0]
 8000c04:	f043 0340 	orr.w	r3, r3, #64	@ 0x40
 8000c08:	6013      	str	r3, [r2, #0]
 8000c0a:	e7c2      	b.n	8000b92 <HAL_CAN_Init+0x9e>
    SET_BIT(hcan->Instance->MCR, CAN_MCR_AWUM);
 8000c0c:	6822      	ldr	r2, [r4, #0]
 8000c0e:	6813      	ldr	r3, [r2, #0]
 8000c10:	f043 0320 	orr.w	r3, r3, #32
 8000c14:	6013      	str	r3, [r2, #0]
 8000c16:	e7c4      	b.n	8000ba2 <HAL_CAN_Init+0xae>
    CLEAR_BIT(hcan->Instance->MCR, CAN_MCR_NART);
 8000c18:	6822      	ldr	r2, [r4, #0]
 8000c1a:	6813      	ldr	r3, [r2, #0]
 8000c1c:	f023 0310 	bic.w	r3, r3, #16
 8000c20:	6013      	str	r3, [r2, #0]
 8000c22:	e7c6      	b.n	8000bb2 <HAL_CAN_Init+0xbe>
    SET_BIT(hcan->Instance->MCR, CAN_MCR_RFLM);
 8000c24:	6822      	ldr	r2, [r4, #0]
 8000c26:	6813      	ldr	r3, [r2, #0]
 8000c28:	f043 0308 	orr.w	r3, r3, #8
 8000c2c:	6013      	str	r3, [r2, #0]
 8000c2e:	e7c8      	b.n	8000bc2 <HAL_CAN_Init+0xce>
    SET_BIT(hcan->Instance->MCR, CAN_MCR_TXFP);
 8000c30:	6822      	ldr	r2, [r4, #0]
 8000c32:	6813      	ldr	r3, [r2, #0]
 8000c34:	f043 0304 	orr.w	r3, r3, #4
 8000c38:	6013      	str	r3, [r2, #0]
 8000c3a:	e7ca      	b.n	8000bd2 <HAL_CAN_Init+0xde>
    return HAL_ERROR;
 8000c3c:	2001      	movs	r0, #1
}
 8000c3e:	4770      	bx	lr

08000c40 <HAL_CAN_ConfigFilter>:
  * @retval None
  */
HAL_StatusTypeDef HAL_CAN_ConfigFilter(CAN_HandleTypeDef *hcan, const CAN_FilterTypeDef *sFilterConfig)
{
  uint32_t filternbrbitpos;
  CAN_TypeDef *can_ip = hcan->Instance;
 8000c40:	6802      	ldr	r2, [r0, #0]
  HAL_CAN_StateTypeDef state = hcan->State;
 8000c42:	f890 3020 	ldrb.w	r3, [r0, #32]

  if ((state == HAL_CAN_STATE_READY) ||
 8000c46:	3b01      	subs	r3, #1
 8000c48:	b2db      	uxtb	r3, r3
 8000c4a:	2b01      	cmp	r3, #1
 8000c4c:	d905      	bls.n	8000c5a <HAL_CAN_ConfigFilter+0x1a>
    return HAL_OK;
  }
  else
  {
    /* Update error code */
    hcan->ErrorCode |= HAL_CAN_ERROR_NOT_INITIALIZED;
 8000c4e:	6a43      	ldr	r3, [r0, #36]	@ 0x24
 8000c50:	f443 2380 	orr.w	r3, r3, #262144	@ 0x40000
 8000c54:	6243      	str	r3, [r0, #36]	@ 0x24

    return HAL_ERROR;
 8000c56:	2001      	movs	r0, #1
  }
}
 8000c58:	4770      	bx	lr
{
 8000c5a:	b430      	push	{r4, r5}
    SET_BIT(can_ip->FMR, CAN_FMR_FINIT);
 8000c5c:	f8d2 3200 	ldr.w	r3, [r2, #512]	@ 0x200
 8000c60:	f043 0301 	orr.w	r3, r3, #1
 8000c64:	f8c2 3200 	str.w	r3, [r2, #512]	@ 0x200
    filternbrbitpos = (uint32_t)1 << (sFilterConfig->FilterBank & 0x1FU);
 8000c68:	694b      	ldr	r3, [r1, #20]
 8000c6a:	f003 031f 	and.w	r3, r3, #31
 8000c6e:	2001      	movs	r0, #1
 8000c70:	fa00 f303 	lsl.w	r3, r0, r3
    CLEAR_BIT(can_ip->FA1R, filternbrbitpos);
 8000c74:	f8d2 021c 	ldr.w	r0, [r2, #540]	@ 0x21c
 8000c78:	ea6f 0c03 	mvn.w	ip, r3
 8000c7c:	ea20 0003 	bic.w	r0, r0, r3
 8000c80:	f8c2 021c 	str.w	r0, [r2, #540]	@ 0x21c
    if (sFilterConfig->FilterScale == CAN_FILTERSCALE_16BIT)
 8000c84:	69c8      	ldr	r0, [r1, #28]
 8000c86:	b9b0      	cbnz	r0, 8000cb6 <HAL_CAN_ConfigFilter+0x76>
      CLEAR_BIT(can_ip->FS1R, filternbrbitpos);
 8000c88:	f8d2 020c 	ldr.w	r0, [r2, #524]	@ 0x20c
 8000c8c:	ea0c 0000 	and.w	r0, ip, r0
 8000c90:	f8c2 020c 	str.w	r0, [r2, #524]	@ 0x20c
        (0x0000FFFFU & (uint32_t)sFilterConfig->FilterIdLow);
 8000c94:	888c      	ldrh	r4, [r1, #4]
      can_ip->sFilterRegister[sFilterConfig->FilterBank].FR1 =
 8000c96:	6948      	ldr	r0, [r1, #20]
        ((0x0000FFFFU & (uint32_t)sFilterConfig->FilterMaskIdLow) << 16U) |
 8000c98:	68cd      	ldr	r5, [r1, #12]
 8000c9a:	ea44 4405 	orr.w	r4, r4, r5, lsl #16
      can_ip->sFilterRegister[sFilterConfig->FilterBank].FR1 =
 8000c9e:	3048      	adds	r0, #72	@ 0x48
 8000ca0:	f842 4030 	str.w	r4, [r2, r0, lsl #3]
        (0x0000FFFFU & (uint32_t)sFilterConfig->FilterIdHigh);
 8000ca4:	880c      	ldrh	r4, [r1, #0]
      can_ip->sFilterRegister[sFilterConfig->FilterBank].FR2 =
 8000ca6:	6948      	ldr	r0, [r1, #20]
        ((0x0000FFFFU & (uint32_t)sFilterConfig->FilterMaskIdHigh) << 16U) |
 8000ca8:	688d      	ldr	r5, [r1, #8]
 8000caa:	ea44 4405 	orr.w	r4, r4, r5, lsl #16
      can_ip->sFilterRegister[sFilterConfig->FilterBank].FR2 =
 8000cae:	3048      	adds	r0, #72	@ 0x48
 8000cb0:	eb02 00c0 	add.w	r0, r2, r0, lsl #3
 8000cb4:	6044      	str	r4, [r0, #4]
    if (sFilterConfig->FilterScale == CAN_FILTERSCALE_32BIT)
 8000cb6:	69c8      	ldr	r0, [r1, #28]
 8000cb8:	2801      	cmp	r0, #1
 8000cba:	d01b      	beq.n	8000cf4 <HAL_CAN_ConfigFilter+0xb4>
    if (sFilterConfig->FilterMode == CAN_FILTERMODE_IDMASK)
 8000cbc:	6988      	ldr	r0, [r1, #24]
 8000cbe:	bb80      	cbnz	r0, 8000d22 <HAL_CAN_ConfigFilter+0xe2>
      CLEAR_BIT(can_ip->FM1R, filternbrbitpos);
 8000cc0:	f8d2 0204 	ldr.w	r0, [r2, #516]	@ 0x204
 8000cc4:	ea0c 0000 	and.w	r0, ip, r0
 8000cc8:	f8c2 0204 	str.w	r0, [r2, #516]	@ 0x204
    if (sFilterConfig->FilterFIFOAssignment == CAN_FILTER_FIFO0)
 8000ccc:	6908      	ldr	r0, [r1, #16]
 8000cce:	bb70      	cbnz	r0, 8000d2e <HAL_CAN_ConfigFilter+0xee>
      CLEAR_BIT(can_ip->FFA1R, filternbrbitpos);
 8000cd0:	f8d2 0214 	ldr.w	r0, [r2, #532]	@ 0x214
 8000cd4:	ea0c 0000 	and.w	r0, ip, r0
 8000cd8:	f8c2 0214 	str.w	r0, [r2, #532]	@ 0x214
    if (sFilterConfig->FilterActivation == CAN_FILTER_ENABLE)
 8000cdc:	6a09      	ldr	r1, [r1, #32]
 8000cde:	2901      	cmp	r1, #1
 8000ce0:	d02b      	beq.n	8000d3a <HAL_CAN_ConfigFilter+0xfa>
    CLEAR_BIT(can_ip->FMR, CAN_FMR_FINIT);
 8000ce2:	f8d2 3200 	ldr.w	r3, [r2, #512]	@ 0x200
 8000ce6:	f023 0301 	bic.w	r3, r3, #1
 8000cea:	f8c2 3200 	str.w	r3, [r2, #512]	@ 0x200
    return HAL_OK;
 8000cee:	2000      	movs	r0, #0
}
 8000cf0:	bc30      	pop	{r4, r5}
 8000cf2:	4770      	bx	lr
      SET_BIT(can_ip->FS1R, filternbrbitpos);
 8000cf4:	f8d2 020c 	ldr.w	r0, [r2, #524]	@ 0x20c
 8000cf8:	4318      	orrs	r0, r3
 8000cfa:	f8c2 020c 	str.w	r0, [r2, #524]	@ 0x20c
        (0x0000FFFFU & (uint32_t)sFilterConfig->FilterIdLow);
 8000cfe:	888c      	ldrh	r4, [r1, #4]
      can_ip->sFilterRegister[sFilterConfig->FilterBank].FR1 =
 8000d00:	6948      	ldr	r0, [r1, #20]
        ((0x0000FFFFU & (uint32_t)sFilterConfig->FilterIdHigh) << 16U) |
 8000d02:	680d      	ldr	r5, [r1, #0]
 8000d04:	ea44 4405 	orr.w	r4, r4, r5, lsl #16
      can_ip->sFilterRegister[sFilterConfig->FilterBank].FR1 =
 8000d08:	3048      	adds	r0, #72	@ 0x48
 8000d0a:	f842 4030 	str.w	r4, [r2, r0, lsl #3]
        (0x0000FFFFU & (uint32_t)sFilterConfig->FilterMaskIdLow);
 8000d0e:	898c      	ldrh	r4, [r1, #12]
      can_ip->sFilterRegister[sFilterConfig->FilterBank].FR2 =
 8000d10:	6948      	ldr	r0, [r1, #20]
        ((0x0000FFFFU & (uint32_t)sFilterConfig->FilterMaskIdHigh) << 16U) |
 8000d12:	688d      	ldr	r5, [r1, #8]
 8000d14:	ea44 4405 	orr.w	r4, r4, r5, lsl #16
      can_ip->sFilterRegister[sFilterConfig->FilterBank].FR2 =
 8000d18:	3048      	adds	r0, #72	@ 0x48
 8000d1a:	eb02 00c0 	add.w	r0, r2, r0, lsl #3
 8000d1e:	6044      	str	r4, [r0, #4]
 8000d20:	e7cc      	b.n	8000cbc <HAL_CAN_ConfigFilter+0x7c>
      SET_BIT(can_ip->FM1R, filternbrbitpos);
 8000d22:	f8d2 0204 	ldr.w	r0, [r2, #516]	@ 0x204
 8000d26:	4318      	orrs	r0, r3
 8000d28:	f8c2 0204 	str.w	r0, [r2, #516]	@ 0x204
 8000d2c:	e7ce      	b.n	8000ccc <HAL_CAN_ConfigFilter+0x8c>
      SET_BIT(can_ip->FFA1R, filternbrbitpos);
 8000d2e:	f8d2 0214 	ldr.w	r0, [r2, #532]	@ 0x214
 8000d32:	4318      	orrs	r0, r3
 8000d34:	f8c2 0214 	str.w	r0, [r2, #532]	@ 0x214
 8000d38:	e7d0      	b.n	8000cdc <HAL_CAN_ConfigFilter+0x9c>
      SET_BIT(can_ip->FA1R, filternbrbitpos);
 8000d3a:	f8d2 121c 	ldr.w	r1, [r2, #540]	@ 0x21c
 8000d3e:	430b      	orrs	r3, r1
 8000d40:	f8c2 321c 	str.w	r3, [r2, #540]	@ 0x21c
 8000d44:	e7cd      	b.n	8000ce2 <HAL_CAN_ConfigFilter+0xa2>

08000d46 <HAL_CAN_Start>:
  * @param  hcan pointer to an CAN_HandleTypeDef structure that contains
  *         the configuration information for the specified CAN.
  * @retval HAL status
  */
HAL_StatusTypeDef HAL_CAN_Start(CAN_HandleTypeDef *hcan)
{
 8000d46:	b570      	push	{r4, r5, r6, lr}
 8000d48:	4604      	mov	r4, r0
  uint32_t tickstart;

  if (hcan->State == HAL_CAN_STATE_READY)
 8000d4a:	f890 3020 	ldrb.w	r3, [r0, #32]
 8000d4e:	2b01      	cmp	r3, #1
 8000d50:	d006      	beq.n	8000d60 <HAL_CAN_Start+0x1a>
    return HAL_OK;
  }
  else
  {
    /* Update error code */
    hcan->ErrorCode |= HAL_CAN_ERROR_NOT_READY;
 8000d52:	6a43      	ldr	r3, [r0, #36]	@ 0x24
 8000d54:	f443 2300 	orr.w	r3, r3, #524288	@ 0x80000
 8000d58:	6243      	str	r3, [r0, #36]	@ 0x24

    return HAL_ERROR;
 8000d5a:	2601      	movs	r6, #1
  }
}
 8000d5c:	4630      	mov	r0, r6
 8000d5e:	bd70      	pop	{r4, r5, r6, pc}
 8000d60:	b2de      	uxtb	r6, r3
    hcan->State = HAL_CAN_STATE_LISTENING;
 8000d62:	2302      	movs	r3, #2
 8000d64:	f880 3020 	strb.w	r3, [r0, #32]
    CLEAR_BIT(hcan->Instance->MCR, CAN_MCR_INRQ);
 8000d68:	6802      	ldr	r2, [r0, #0]
 8000d6a:	6813      	ldr	r3, [r2, #0]
 8000d6c:	f023 0301 	bic.w	r3, r3, #1
 8000d70:	6013      	str	r3, [r2, #0]
    tickstart = HAL_GetTick();
 8000d72:	f7ff fea5 	bl	8000ac0 <HAL_GetTick>
 8000d76:	4605      	mov	r5, r0
    while ((hcan->Instance->MSR & CAN_MSR_INAK) != 0U)
 8000d78:	6823      	ldr	r3, [r4, #0]
 8000d7a:	685b      	ldr	r3, [r3, #4]
 8000d7c:	f013 0f01 	tst.w	r3, #1
 8000d80:	d00c      	beq.n	8000d9c <HAL_CAN_Start+0x56>
      if ((HAL_GetTick() - tickstart) > CAN_TIMEOUT_VALUE)
 8000d82:	f7ff fe9d 	bl	8000ac0 <HAL_GetTick>
 8000d86:	1b43      	subs	r3, r0, r5
 8000d88:	2b0a      	cmp	r3, #10
 8000d8a:	d9f5      	bls.n	8000d78 <HAL_CAN_Start+0x32>
        hcan->ErrorCode |= HAL_CAN_ERROR_TIMEOUT;
 8000d8c:	6a63      	ldr	r3, [r4, #36]	@ 0x24
 8000d8e:	f443 3300 	orr.w	r3, r3, #131072	@ 0x20000
 8000d92:	6263      	str	r3, [r4, #36]	@ 0x24
        hcan->State = HAL_CAN_STATE_ERROR;
 8000d94:	2305      	movs	r3, #5
 8000d96:	f884 3020 	strb.w	r3, [r4, #32]
        return HAL_ERROR;
 8000d9a:	e7df      	b.n	8000d5c <HAL_CAN_Start+0x16>
    hcan->ErrorCode = HAL_CAN_ERROR_NONE;
 8000d9c:	2600      	movs	r6, #0
 8000d9e:	6266      	str	r6, [r4, #36]	@ 0x24
    return HAL_OK;
 8000da0:	e7dc      	b.n	8000d5c <HAL_CAN_Start+0x16>

08000da2 <HAL_CAN_Stop>:
  * @param  hcan pointer to an CAN_HandleTypeDef structure that contains
  *         the configuration information for the specified CAN.
  * @retval HAL status
  */
HAL_StatusTypeDef HAL_CAN_Stop(CAN_HandleTypeDef *hcan)
{
 8000da2:	b538      	push	{r3, r4, r5, lr}
 8000da4:	4604      	mov	r4, r0
  uint32_t tickstart;

  if (hcan->State == HAL_CAN_STATE_LISTENING)
 8000da6:	f890 3020 	ldrb.w	r3, [r0, #32]
 8000daa:	2b02      	cmp	r3, #2
 8000dac:	d005      	beq.n	8000dba <HAL_CAN_Stop+0x18>
    return HAL_OK;
  }
  else
  {
    /* Update error code */
    hcan->ErrorCode |= HAL_CAN_ERROR_NOT_STARTED;
 8000dae:	6a43      	ldr	r3, [r0, #36]	@ 0x24
 8000db0:	f443 1380 	orr.w	r3, r3, #1048576	@ 0x100000
 8000db4:	6243      	str	r3, [r0, #36]	@ 0x24

    return HAL_ERROR;
 8000db6:	2001      	movs	r0, #1
  }
}
 8000db8:	bd38      	pop	{r3, r4, r5, pc}
    SET_BIT(hcan->Instance->MCR, CAN_MCR_INRQ);
 8000dba:	6802      	ldr	r2, [r0, #0]
 8000dbc:	6813      	ldr	r3, [r2, #0]
 8000dbe:	f043 0301 	orr.w	r3, r3, #1
 8000dc2:	6013      	str	r3, [r2, #0]
    tickstart = HAL_GetTick();
 8000dc4:	f7ff fe7c 	bl	8000ac0 <HAL_GetTick>
 8000dc8:	4605      	mov	r5, r0
    while ((hcan->Instance->MSR & CAN_MSR_INAK) == 0U)
 8000dca:	6823      	ldr	r3, [r4, #0]
 8000dcc:	685a      	ldr	r2, [r3, #4]
 8000dce:	f012 0f01 	tst.w	r2, #1
 8000dd2:	d10d      	bne.n	8000df0 <HAL_CAN_Stop+0x4e>
      if ((HAL_GetTick() - tickstart) > CAN_TIMEOUT_VALUE)
 8000dd4:	f7ff fe74 	bl	8000ac0 <HAL_GetTick>
 8000dd8:	1b43      	subs	r3, r0, r5
 8000dda:	2b0a      	cmp	r3, #10
 8000ddc:	d9f5      	bls.n	8000dca <HAL_CAN_Stop+0x28>
        hcan->ErrorCode |= HAL_CAN_ERROR_TIMEOUT;
 8000dde:	6a63      	ldr	r3, [r4, #36]	@ 0x24
 8000de0:	f443 3300 	orr.w	r3, r3, #131072	@ 0x20000
 8000de4:	6263      	str	r3, [r4, #36]	@ 0x24
        hcan->State = HAL_CAN_STATE_ERROR;
 8000de6:	2305      	movs	r3, #5
 8000de8:	f884 3020 	strb.w	r3, [r4, #32]
        return HAL_ERROR;
 8000dec:	2001      	movs	r0, #1
 8000dee:	e7e3      	b.n	8000db8 <HAL_CAN_Stop+0x16>
    CLEAR_BIT(hcan->Instance->MCR, CAN_MCR_SLEEP);
 8000df0:	681a      	ldr	r2, [r3, #0]
 8000df2:	f022 0202 	bic.w	r2, r2, #2
 8000df6:	601a      	str	r2, [r3, #0]
    hcan->State = HAL_CAN_STATE_READY;
 8000df8:	2301      	movs	r3, #1
 8000dfa:	f884 3020 	strb.w	r3, [r4, #32]
    return HAL_OK;
 8000dfe:	2000      	movs	r0, #0
 8000e00:	e7da      	b.n	8000db8 <HAL_CAN_Stop+0x16>

08000e02 <HAL_CAN_AddTxMessage>:
  *         This parameter can be a value of @arg CAN_Tx_Mailboxes.
  * @retval HAL status
  */
HAL_StatusTypeDef HAL_CAN_AddTxMessage(CAN_HandleTypeDef *hcan, const CAN_TxHeaderTypeDef *pHeader,
                                       const uint8_t aData[], uint32_t *pTxMailbox)
{
 8000e02:	b530      	push	{r4, r5, lr}
  uint32_t transmitmailbox;
  HAL_CAN_StateTypeDef state = hcan->State;
 8000e04:	f890 c020 	ldrb.w	ip, [r0, #32]
  uint32_t tsr = READ_REG(hcan->Instance->TSR);
 8000e08:	6804      	ldr	r4, [r0, #0]
 8000e0a:	68a4      	ldr	r4, [r4, #8]
  {
    assert_param(IS_CAN_EXTID(pHeader->ExtId));
  }
  assert_param(IS_FUNCTIONAL_STATE(pHeader->TransmitGlobalTime));

  if ((state == HAL_CAN_STATE_READY) ||
 8000e0c:	f10c 3cff 	add.w	ip, ip, #4294967295
 8000e10:	fa5f fc8c 	uxtb.w	ip, ip
 8000e14:	f1bc 0f01 	cmp.w	ip, #1
 8000e18:	d862      	bhi.n	8000ee0 <HAL_CAN_AddTxMessage+0xde>
      (state == HAL_CAN_STATE_LISTENING))
  {
    /* Check that all the Tx mailboxes are not full */
    if (((tsr & CAN_TSR_TME0) != 0U) ||
 8000e1a:	f014 5fe0 	tst.w	r4, #469762048	@ 0x1c000000
 8000e1e:	d059      	beq.n	8000ed4 <HAL_CAN_AddTxMessage+0xd2>
        ((tsr & CAN_TSR_TME1) != 0U) ||
        ((tsr & CAN_TSR_TME2) != 0U))
    {
      /* Select an empty transmit mailbox */
      transmitmailbox = (tsr & CAN_TSR_CODE) >> CAN_TSR_CODE_Pos;
 8000e20:	f3c4 6c01 	ubfx	ip, r4, #24, #2

      /* Store the Tx mailbox */
      *pTxMailbox = (uint32_t)1 << transmitmailbox;
 8000e24:	2401      	movs	r4, #1
 8000e26:	fa04 f40c 	lsl.w	r4, r4, ip
 8000e2a:	601c      	str	r4, [r3, #0]

      /* Set up the Id */
      if (pHeader->IDE == CAN_ID_STD)
 8000e2c:	688b      	ldr	r3, [r1, #8]
 8000e2e:	2b00      	cmp	r3, #0
 8000e30:	d13d      	bne.n	8000eae <HAL_CAN_AddTxMessage+0xac>
      {
        hcan->Instance->sTxMailBox[transmitmailbox].TIR = ((pHeader->StdId << CAN_TI0R_STID_Pos) |
 8000e32:	680d      	ldr	r5, [r1, #0]
                                                           pHeader->RTR);
 8000e34:	68cb      	ldr	r3, [r1, #12]
        hcan->Instance->sTxMailBox[transmitmailbox].TIR = ((pHeader->StdId << CAN_TI0R_STID_Pos) |
 8000e36:	6804      	ldr	r4, [r0, #0]
 8000e38:	ea43 5545 	orr.w	r5, r3, r5, lsl #21
 8000e3c:	f10c 0318 	add.w	r3, ip, #24
 8000e40:	011b      	lsls	r3, r3, #4
 8000e42:	50e5      	str	r5, [r4, r3]
                                                           pHeader->IDE |
                                                           pHeader->RTR);
      }

      /* Set up the DLC */
      hcan->Instance->sTxMailBox[transmitmailbox].TDTR = (pHeader->DLC);
 8000e44:	6803      	ldr	r3, [r0, #0]
 8000e46:	690c      	ldr	r4, [r1, #16]
 8000e48:	f10c 0e18 	add.w	lr, ip, #24
 8000e4c:	eb03 130e 	add.w	r3, r3, lr, lsl #4
 8000e50:	605c      	str	r4, [r3, #4]

      /* Set up the Transmit Global Time mode */
      if (pHeader->TransmitGlobalTime == ENABLE)
 8000e52:	7d0b      	ldrb	r3, [r1, #20]
 8000e54:	2b01      	cmp	r3, #1
 8000e56:	d035      	beq.n	8000ec4 <HAL_CAN_AddTxMessage+0xc2>
      {
        SET_BIT(hcan->Instance->sTxMailBox[transmitmailbox].TDTR, CAN_TDT0R_TGT);
      }

      /* Set up the data field */
      WRITE_REG(hcan->Instance->sTxMailBox[transmitmailbox].TDHR,
 8000e58:	79d1      	ldrb	r1, [r2, #7]
 8000e5a:	7993      	ldrb	r3, [r2, #6]
 8000e5c:	041b      	lsls	r3, r3, #16
 8000e5e:	ea43 6301 	orr.w	r3, r3, r1, lsl #24
 8000e62:	7951      	ldrb	r1, [r2, #5]
 8000e64:	ea43 2301 	orr.w	r3, r3, r1, lsl #8
 8000e68:	7914      	ldrb	r4, [r2, #4]
 8000e6a:	6801      	ldr	r1, [r0, #0]
 8000e6c:	4323      	orrs	r3, r4
 8000e6e:	eb01 110c 	add.w	r1, r1, ip, lsl #4
 8000e72:	f8c1 318c 	str.w	r3, [r1, #396]	@ 0x18c
                ((uint32_t)aData[7] << CAN_TDH0R_DATA7_Pos) |
                ((uint32_t)aData[6] << CAN_TDH0R_DATA6_Pos) |
                ((uint32_t)aData[5] << CAN_TDH0R_DATA5_Pos) |
                ((uint32_t)aData[4] << CAN_TDH0R_DATA4_Pos));
      WRITE_REG(hcan->Instance->sTxMailBox[transmitmailbox].TDLR,
 8000e76:	78d1      	ldrb	r1, [r2, #3]
 8000e78:	7893      	ldrb	r3, [r2, #2]
 8000e7a:	041b      	lsls	r3, r3, #16
 8000e7c:	ea43 6301 	orr.w	r3, r3, r1, lsl #24
 8000e80:	7851      	ldrb	r1, [r2, #1]
 8000e82:	ea43 2301 	orr.w	r3, r3, r1, lsl #8
 8000e86:	7811      	ldrb	r1, [r2, #0]
 8000e88:	6802      	ldr	r2, [r0, #0]
 8000e8a:	430b      	orrs	r3, r1
 8000e8c:	eb02 120c 	add.w	r2, r2, ip, lsl #4
 8000e90:	f8c2 3188 	str.w	r3, [r2, #392]	@ 0x188
                ((uint32_t)aData[2] << CAN_TDL0R_DATA2_Pos) |
                ((uint32_t)aData[1] << CAN_TDL0R_DATA1_Pos) |
                ((uint32_t)aData[0] << CAN_TDL0R_DATA0_Pos));

      /* Request transmission */
      SET_BIT(hcan->Instance->sTxMailBox[transmitmailbox].TIR, CAN_TI0R_TXRQ);
 8000e94:	6802      	ldr	r2, [r0, #0]
 8000e96:	f10c 0c18 	add.w	ip, ip, #24
 8000e9a:	ea4f 1c0c 	mov.w	ip, ip, lsl #4
 8000e9e:	f852 300c 	ldr.w	r3, [r2, ip]
 8000ea2:	f043 0301 	orr.w	r3, r3, #1
 8000ea6:	f842 300c 	str.w	r3, [r2, ip]

      /* Return function status */
      return HAL_OK;
 8000eaa:	2000      	movs	r0, #0
 8000eac:	e01d      	b.n	8000eea <HAL_CAN_AddTxMessage+0xe8>
        hcan->Instance->sTxMailBox[transmitmailbox].TIR = ((pHeader->ExtId << CAN_TI0R_EXID_Pos) |
 8000eae:	684c      	ldr	r4, [r1, #4]
 8000eb0:	ea43 03c4 	orr.w	r3, r3, r4, lsl #3
                                                           pHeader->RTR);
 8000eb4:	68cc      	ldr	r4, [r1, #12]
                                                           pHeader->IDE |
 8000eb6:	4323      	orrs	r3, r4
        hcan->Instance->sTxMailBox[transmitmailbox].TIR = ((pHeader->ExtId << CAN_TI0R_EXID_Pos) |
 8000eb8:	f10c 0418 	add.w	r4, ip, #24
 8000ebc:	0124      	lsls	r4, r4, #4
 8000ebe:	6805      	ldr	r5, [r0, #0]
 8000ec0:	512b      	str	r3, [r5, r4]
 8000ec2:	e7bf      	b.n	8000e44 <HAL_CAN_AddTxMessage+0x42>
        SET_BIT(hcan->Instance->sTxMailBox[transmitmailbox].TDTR, CAN_TDT0R_TGT);
 8000ec4:	6803      	ldr	r3, [r0, #0]
 8000ec6:	eb03 130e 	add.w	r3, r3, lr, lsl #4
 8000eca:	6859      	ldr	r1, [r3, #4]
 8000ecc:	f441 7180 	orr.w	r1, r1, #256	@ 0x100
 8000ed0:	6059      	str	r1, [r3, #4]
 8000ed2:	e7c1      	b.n	8000e58 <HAL_CAN_AddTxMessage+0x56>
    }
    else
    {
      /* Update error code */
      hcan->ErrorCode |= HAL_CAN_ERROR_PARAM;
 8000ed4:	6a43      	ldr	r3, [r0, #36]	@ 0x24
 8000ed6:	f443 1300 	orr.w	r3, r3, #2097152	@ 0x200000
 8000eda:	6243      	str	r3, [r0, #36]	@ 0x24

      return HAL_ERROR;
 8000edc:	2001      	movs	r0, #1
 8000ede:	e004      	b.n	8000eea <HAL_CAN_AddTxMessage+0xe8>
    }
  }
  else
  {
    /* Update error code */
    hcan->ErrorCode |= HAL_CAN_ERROR_NOT_INITIALIZED;
 8000ee0:	6a43      	ldr	r3, [r0, #36]	@ 0x24
 8000ee2:	f443 2380 	orr.w	r3, r3, #262144	@ 0x40000
 8000ee6:	6243      	str	r3, [r0, #36]	@ 0x24

    return HAL_ERROR;
 8000ee8:	2001      	movs	r0, #1
  }
}
 8000eea:	bd30      	pop	{r4, r5, pc}

08000eec <HAL_CAN_GetTxMailboxesFreeLevel>:
  * @retval Number of free Tx Mailboxes.
  */
uint32_t HAL_CAN_GetTxMailboxesFreeLevel(const CAN_HandleTypeDef *hcan)
{
  uint32_t freelevel = 0U;
  HAL_CAN_StateTypeDef state = hcan->State;
 8000eec:	f890 3020 	ldrb.w	r3, [r0, #32]

  if ((state == HAL_CAN_STATE_READY) ||
 8000ef0:	3b01      	subs	r3, #1
 8000ef2:	b2db      	uxtb	r3, r3
 8000ef4:	2b01      	cmp	r3, #1
 8000ef6:	d901      	bls.n	8000efc <HAL_CAN_GetTxMailboxesFreeLevel+0x10>
  uint32_t freelevel = 0U;
 8000ef8:	2000      	movs	r0, #0
    }
  }

  /* Return Tx Mailboxes free level */
  return freelevel;
}
 8000efa:	4770      	bx	lr
    if ((hcan->Instance->TSR & CAN_TSR_TME0) != 0U)
 8000efc:	6803      	ldr	r3, [r0, #0]
 8000efe:	6898      	ldr	r0, [r3, #8]
 8000f00:	f010 6080 	ands.w	r0, r0, #67108864	@ 0x4000000
 8000f04:	d000      	beq.n	8000f08 <HAL_CAN_GetTxMailboxesFreeLevel+0x1c>
      freelevel++;
 8000f06:	2001      	movs	r0, #1
    if ((hcan->Instance->TSR & CAN_TSR_TME1) != 0U)
 8000f08:	689a      	ldr	r2, [r3, #8]
 8000f0a:	f012 6f00 	tst.w	r2, #134217728	@ 0x8000000
 8000f0e:	d000      	beq.n	8000f12 <HAL_CAN_GetTxMailboxesFreeLevel+0x26>
      freelevel++;
 8000f10:	3001      	adds	r0, #1
    if ((hcan->Instance->TSR & CAN_TSR_TME2) != 0U)
 8000f12:	689b      	ldr	r3, [r3, #8]
 8000f14:	f013 5f80 	tst.w	r3, #268435456	@ 0x10000000
 8000f18:	d0ef      	beq.n	8000efa <HAL_CAN_GetTxMailboxesFreeLevel+0xe>
      freelevel++;
 8000f1a:	3001      	adds	r0, #1
 8000f1c:	4770      	bx	lr

08000f1e <HAL_CAN_GetRxMessage>:
  * @retval HAL status
  */
HAL_StatusTypeDef HAL_CAN_GetRxMessage(CAN_HandleTypeDef *hcan, uint32_t RxFifo,
                                       CAN_RxHeaderTypeDef *pHeader, uint8_t aData[])
{
  HAL_CAN_StateTypeDef state = hcan->State;
 8000f1e:	f890 c020 	ldrb.w	ip, [r0, #32]

  assert_param(IS_CAN_RX_FIFO(RxFifo));

  if ((state == HAL_CAN_STATE_READY) ||
 8000f22:	f10c 3cff 	add.w	ip, ip, #4294967295
 8000f26:	fa5f fc8c 	uxtb.w	ip, ip
 8000f2a:	f1bc 0f01 	cmp.w	ip, #1
 8000f2e:	f200 80a5 	bhi.w	800107c <HAL_CAN_GetRxMessage+0x15e>
{
 8000f32:	b430      	push	{r4, r5}
      (state == HAL_CAN_STATE_LISTENING))
  {
    /* Check the Rx FIFO */
    if (RxFifo == CAN_RX_FIFO0) /* Rx element is assigned to Rx FIFO 0 */
 8000f34:	b951      	cbnz	r1, 8000f4c <HAL_CAN_GetRxMessage+0x2e>
    {
      /* Check that the Rx FIFO 0 is not empty */
      if ((hcan->Instance->RF0R & CAN_RF0R_FMP0) == 0U)
 8000f36:	6804      	ldr	r4, [r0, #0]
 8000f38:	68e4      	ldr	r4, [r4, #12]
 8000f3a:	f014 0f03 	tst.w	r4, #3
 8000f3e:	d110      	bne.n	8000f62 <HAL_CAN_GetRxMessage+0x44>
      {
        /* Update error code */
        hcan->ErrorCode |= HAL_CAN_ERROR_PARAM;
 8000f40:	6a43      	ldr	r3, [r0, #36]	@ 0x24
 8000f42:	f443 1300 	orr.w	r3, r3, #2097152	@ 0x200000
 8000f46:	6243      	str	r3, [r0, #36]	@ 0x24

        return HAL_ERROR;
 8000f48:	2001      	movs	r0, #1
 8000f4a:	e07e      	b.n	800104a <HAL_CAN_GetRxMessage+0x12c>
      }
    }
    else /* Rx element is assigned to Rx FIFO 1 */
    {
      /* Check that the Rx FIFO 1 is not empty */
      if ((hcan->Instance->RF1R & CAN_RF1R_FMP1) == 0U)
 8000f4c:	6804      	ldr	r4, [r0, #0]
 8000f4e:	6924      	ldr	r4, [r4, #16]
 8000f50:	f014 0f03 	tst.w	r4, #3
 8000f54:	d105      	bne.n	8000f62 <HAL_CAN_GetRxMessage+0x44>
      {
        /* Update error code */
        hcan->ErrorCode |= HAL_CAN_ERROR_PARAM;
 8000f56:	6a43      	ldr	r3, [r0, #36]	@ 0x24
 8000f58:	f443 1300 	orr.w	r3, r3, #2097152	@ 0x200000
 8000f5c:	6243      	str	r3, [r0, #36]	@ 0x24

        return HAL_ERROR;
 8000f5e:	2001      	movs	r0, #1
 8000f60:	e073      	b.n	800104a <HAL_CAN_GetRxMessage+0x12c>
      }
    }

    /* Get the header */
    pHeader->IDE = CAN_RI0R_IDE & hcan->Instance->sFIFOMailBox[RxFifo].RIR;
 8000f62:	6805      	ldr	r5, [r0, #0]
 8000f64:	f101 041b 	add.w	r4, r1, #27
 8000f68:	0124      	lsls	r4, r4, #4
 8000f6a:	592c      	ldr	r4, [r5, r4]
 8000f6c:	f004 0404 	and.w	r4, r4, #4
 8000f70:	6094      	str	r4, [r2, #8]
    if (pHeader->IDE == CAN_ID_STD)
 8000f72:	2c00      	cmp	r4, #0
 8000f74:	d16b      	bne.n	800104e <HAL_CAN_GetRxMessage+0x130>
    {
      pHeader->StdId = (CAN_RI0R_STID & hcan->Instance->sFIFOMailBox[RxFifo].RIR) >> CAN_TI0R_STID_Pos;
 8000f76:	6805      	ldr	r5, [r0, #0]
 8000f78:	f101 041b 	add.w	r4, r1, #27
 8000f7c:	0124      	lsls	r4, r4, #4
 8000f7e:	592c      	ldr	r4, [r5, r4]
 8000f80:	0d64      	lsrs	r4, r4, #21
 8000f82:	6014      	str	r4, [r2, #0]
    else
    {
      pHeader->ExtId = ((CAN_RI0R_EXID | CAN_RI0R_STID) &
                        hcan->Instance->sFIFOMailBox[RxFifo].RIR) >> CAN_RI0R_EXID_Pos;
    }
    pHeader->RTR = (CAN_RI0R_RTR & hcan->Instance->sFIFOMailBox[RxFifo].RIR);
 8000f84:	6804      	ldr	r4, [r0, #0]
 8000f86:	f101 0c1b 	add.w	ip, r1, #27
 8000f8a:	ea4f 1c0c 	mov.w	ip, ip, lsl #4
 8000f8e:	f854 400c 	ldr.w	r4, [r4, ip]
 8000f92:	f004 0402 	and.w	r4, r4, #2
 8000f96:	60d4      	str	r4, [r2, #12]
    if (((CAN_RDT0R_DLC & hcan->Instance->sFIFOMailBox[RxFifo].RDTR) >> CAN_RDT0R_DLC_Pos) >= 8U)
 8000f98:	6804      	ldr	r4, [r0, #0]
 8000f9a:	44a4      	add	ip, r4
 8000f9c:	f8dc 5004 	ldr.w	r5, [ip, #4]
 8000fa0:	f015 0f08 	tst.w	r5, #8
 8000fa4:	d05b      	beq.n	800105e <HAL_CAN_GetRxMessage+0x140>
    {
      /* Truncate DLC to 8 if received field is over range */
      pHeader->DLC = 8U;
 8000fa6:	2408      	movs	r4, #8
 8000fa8:	6114      	str	r4, [r2, #16]
    }
    else
    {
      pHeader->DLC = (CAN_RDT0R_DLC & hcan->Instance->sFIFOMailBox[RxFifo].RDTR) >> CAN_RDT0R_DLC_Pos;
    }
    pHeader->FilterMatchIndex = (CAN_RDT0R_FMI & hcan->Instance->sFIFOMailBox[RxFifo].RDTR) >> CAN_RDT0R_FMI_Pos;
 8000faa:	6804      	ldr	r4, [r0, #0]
 8000fac:	f101 0c1b 	add.w	ip, r1, #27
 8000fb0:	eb04 140c 	add.w	r4, r4, ip, lsl #4
 8000fb4:	6864      	ldr	r4, [r4, #4]
 8000fb6:	f3c4 2407 	ubfx	r4, r4, #8, #8
 8000fba:	6194      	str	r4, [r2, #24]
    pHeader->Timestamp = (CAN_RDT0R_TIME & hcan->Instance->sFIFOMailBox[RxFifo].RDTR) >> CAN_RDT0R_TIME_Pos;
 8000fbc:	6804      	ldr	r4, [r0, #0]
 8000fbe:	eb04 140c 	add.w	r4, r4, ip, lsl #4
 8000fc2:	6864      	ldr	r4, [r4, #4]
 8000fc4:	0c24      	lsrs	r4, r4, #16
 8000fc6:	6154      	str	r4, [r2, #20]

    /* Get the data */
    aData[0] = (uint8_t)((CAN_RDL0R_DATA0 & hcan->Instance->sFIFOMailBox[RxFifo].RDLR) >> CAN_RDL0R_DATA0_Pos);
 8000fc8:	6802      	ldr	r2, [r0, #0]
 8000fca:	eb02 1201 	add.w	r2, r2, r1, lsl #4
 8000fce:	f8d2 21b8 	ldr.w	r2, [r2, #440]	@ 0x1b8
 8000fd2:	701a      	strb	r2, [r3, #0]
    aData[1] = (uint8_t)((CAN_RDL0R_DATA1 & hcan->Instance->sFIFOMailBox[RxFifo].RDLR) >> CAN_RDL0R_DATA1_Pos);
 8000fd4:	6802      	ldr	r2, [r0, #0]
 8000fd6:	eb02 1201 	add.w	r2, r2, r1, lsl #4
 8000fda:	f8d2 21b8 	ldr.w	r2, [r2, #440]	@ 0x1b8
 8000fde:	f3c2 2207 	ubfx	r2, r2, #8, #8
 8000fe2:	705a      	strb	r2, [r3, #1]
    aData[2] = (uint8_t)((CAN_RDL0R_DATA2 & hcan->Instance->sFIFOMailBox[RxFifo].RDLR) >> CAN_RDL0R_DATA2_Pos);
 8000fe4:	6802      	ldr	r2, [r0, #0]
 8000fe6:	eb02 1201 	add.w	r2, r2, r1, lsl #4
 8000fea:	f8d2 21b8 	ldr.w	r2, [r2, #440]	@ 0x1b8
 8000fee:	f3c2 4207 	ubfx	r2, r2, #16, #8
 8000ff2:	709a      	strb	r2, [r3, #2]
    aData[3] = (uint8_t)((CAN_RDL0R_DATA3 & hcan->Instance->sFIFOMailBox[RxFifo].RDLR) >> CAN_RDL0R_DATA3_Pos);
 8000ff4:	6802      	ldr	r2, [r0, #0]
 8000ff6:	eb02 1201 	add.w	r2, r2, r1, lsl #4
 8000ffa:	f8d2 21b8 	ldr.w	r2, [r2, #440]	@ 0x1b8
 8000ffe:	0e12      	lsrs	r2, r2, #24
 8001000:	70da      	strb	r2, [r3, #3]
    aData[4] = (uint8_t)((CAN_RDH0R_DATA4 & hcan->Instance->sFIFOMailBox[RxFifo].RDHR) >> CAN_RDH0R_DATA4_Pos);
 8001002:	6802      	ldr	r2, [r0, #0]
 8001004:	eb02 1201 	add.w	r2, r2, r1, lsl #4
 8001008:	f8d2 21bc 	ldr.w	r2, [r2, #444]	@ 0x1bc
 800100c:	711a      	strb	r2, [r3, #4]
    aData[5] = (uint8_t)((CAN_RDH0R_DATA5 & hcan->Instance->sFIFOMailBox[RxFifo].RDHR) >> CAN_RDH0R_DATA5_Pos);
 800100e:	6802      	ldr	r2, [r0, #0]
 8001010:	eb02 1201 	add.w	r2, r2, r1, lsl #4
 8001014:	f8d2 21bc 	ldr.w	r2, [r2, #444]	@ 0x1bc
 8001018:	f3c2 2207 	ubfx	r2, r2, #8, #8
 800101c:	715a      	strb	r2, [r3, #5]
    aData[6] = (uint8_t)((CAN_RDH0R_DATA6 & hcan->Instance->sFIFOMailBox[RxFifo].RDHR) >> CAN_RDH0R_DATA6_Pos);
 800101e:	6802      	ldr	r2, [r0, #0]
 8001020:	eb02 1201 	add.w	r2, r2, r1, lsl #4
 8001024:	f8d2 21bc 	ldr.w	r2, [r2, #444]	@ 0x1bc
 8001028:	f3c2 4207 	ubfx	r2, r2, #16, #8
 800102c:	719a      	strb	r2, [r3, #6]
    aData[7] = (uint8_t)((CAN_RDH0R_DATA7 & hcan->Instance->sFIFOMailBox[RxFifo].RDHR) >> CAN_RDH0R_DATA7_Pos);
 800102e:	6802      	ldr	r2, [r0, #0]
 8001030:	eb02 1201 	add.w	r2, r2, r1, lsl #4
 8001034:	f8d2 21bc 	ldr.w	r2, [r2, #444]	@ 0x1bc
 8001038:	0e12      	lsrs	r2, r2, #24
 800103a:	71da      	strb	r2, [r3, #7]

    /* Release the FIFO */
    if (RxFifo == CAN_RX_FIFO0) /* Rx element is assigned to Rx FIFO 0 */
 800103c:	b9c1      	cbnz	r1, 8001070 <HAL_CAN_GetRxMessage+0x152>
    {
      /* Release RX FIFO 0 */
      SET_BIT(hcan->Instance->RF0R, CAN_RF0R_RFOM0);
 800103e:	6802      	ldr	r2, [r0, #0]
 8001040:	68d3      	ldr	r3, [r2, #12]
 8001042:	f043 0320 	orr.w	r3, r3, #32
 8001046:	60d3      	str	r3, [r2, #12]
      /* Release RX FIFO 1 */
      SET_BIT(hcan->Instance->RF1R, CAN_RF1R_RFOM1);
    }

    /* Return function status */
    return HAL_OK;
 8001048:	2000      	movs	r0, #0
    /* Update error code */
    hcan->ErrorCode |= HAL_CAN_ERROR_NOT_INITIALIZED;

    return HAL_ERROR;
  }
}
 800104a:	bc30      	pop	{r4, r5}
 800104c:	4770      	bx	lr
                        hcan->Instance->sFIFOMailBox[RxFifo].RIR) >> CAN_RI0R_EXID_Pos;
 800104e:	6805      	ldr	r5, [r0, #0]
 8001050:	f101 041b 	add.w	r4, r1, #27
 8001054:	0124      	lsls	r4, r4, #4
 8001056:	592c      	ldr	r4, [r5, r4]
 8001058:	08e4      	lsrs	r4, r4, #3
      pHeader->ExtId = ((CAN_RI0R_EXID | CAN_RI0R_STID) &
 800105a:	6054      	str	r4, [r2, #4]
 800105c:	e792      	b.n	8000f84 <HAL_CAN_GetRxMessage+0x66>
      pHeader->DLC = (CAN_RDT0R_DLC & hcan->Instance->sFIFOMailBox[RxFifo].RDTR) >> CAN_RDT0R_DLC_Pos;
 800105e:	f101 051b 	add.w	r5, r1, #27
 8001062:	eb04 1405 	add.w	r4, r4, r5, lsl #4
 8001066:	6864      	ldr	r4, [r4, #4]
 8001068:	f004 040f 	and.w	r4, r4, #15
 800106c:	6114      	str	r4, [r2, #16]
 800106e:	e79c      	b.n	8000faa <HAL_CAN_GetRxMessage+0x8c>
      SET_BIT(hcan->Instance->RF1R, CAN_RF1R_RFOM1);
 8001070:	6802      	ldr	r2, [r0, #0]
 8001072:	6913      	ldr	r3, [r2, #16]
 8001074:	f043 0320 	orr.w	r3, r3, #32
 8001078:	6113      	str	r3, [r2, #16]
 800107a:	e7e5      	b.n	8001048 <HAL_CAN_GetRxMessage+0x12a>
    hcan->ErrorCode |= HAL_CAN_ERROR_NOT_INITIALIZED;
 800107c:	6a43      	ldr	r3, [r0, #36]	@ 0x24
 800107e:	f443 2380 	orr.w	r3, r3, #262144	@ 0x40000
 8001082:	6243      	str	r3, [r0, #36]	@ 0x24
    return HAL_ERROR;
 8001084:	2001      	movs	r0, #1
}
 8001086:	4770      	bx	lr

08001088 <HAL_CAN_ActivateNotification>:
  *         This parameter can be any combination of @arg CAN_Interrupts.
  * @retval HAL status
  */
HAL_StatusTypeDef HAL_CAN_ActivateNotification(CAN_HandleTypeDef *hcan, uint32_t ActiveITs)
{
  HAL_CAN_StateTypeDef state = hcan->State;
 8001088:	f890 3020 	ldrb.w	r3, [r0, #32]

  /* Check function parameters */
  assert_param(IS_CAN_IT(ActiveITs));

  if ((state == HAL_CAN_STATE_READY) ||
 800108c:	3b01      	subs	r3, #1
 800108e:	b2db      	uxtb	r3, r3
 8001090:	2b01      	cmp	r3, #1
 8001092:	d905      	bls.n	80010a0 <HAL_CAN_ActivateNotification+0x18>
    return HAL_OK;
  }
  else
  {
    /* Update error code */
    hcan->ErrorCode |= HAL_CAN_ERROR_NOT_INITIALIZED;
 8001094:	6a43      	ldr	r3, [r0, #36]	@ 0x24
 8001096:	f443 2380 	orr.w	r3, r3, #262144	@ 0x40000
 800109a:	6243      	str	r3, [r0, #36]	@ 0x24

    return HAL_ERROR;
 800109c:	2001      	movs	r0, #1
  }
}
 800109e:	4770      	bx	lr
    __HAL_CAN_ENABLE_IT(hcan, ActiveITs);
 80010a0:	6802      	ldr	r2, [r0, #0]
 80010a2:	6953      	ldr	r3, [r2, #20]
 80010a4:	430b      	orrs	r3, r1
 80010a6:	6153      	str	r3, [r2, #20]
    return HAL_OK;
 80010a8:	2000      	movs	r0, #0
 80010aa:	4770      	bx	lr

080010ac <HAL_CAN_DeactivateNotification>:
  *         This parameter can be any combination of @arg CAN_Interrupts.
  * @retval HAL status
  */
HAL_StatusTypeDef HAL_CAN_DeactivateNotification(CAN_HandleTypeDef *hcan, uint32_t InactiveITs)
{
  HAL_CAN_StateTypeDef state = hcan->State;
 80010ac:	f890 3020 	ldrb.w	r3, [r0, #32]

  /* Check function parameters */
  assert_param(IS_CAN_IT(InactiveITs));

  if ((state == HAL_CAN_STATE_READY) ||
 80010b0:	3b01      	subs	r3, #1
 80010b2:	b2db      	uxtb	r3, r3
 80010b4:	2b01      	cmp	r3, #1
 80010b6:	d905      	bls.n	80010c4 <HAL_CAN_DeactivateNotification+0x18>
    return HAL_OK;
  }
  else
  {
    /* Update error code */
    hcan->ErrorCode |= HAL_CAN_ERROR_NOT_INITIALIZED;
 80010b8:	6a43      	ldr	r3, [r0, #36]	@ 0x24
 80010ba:	f443 2380 	orr.w	r3, r3, #262144	@ 0x40000
 80010be:	6243      	str	r3, [r0, #36]	@ 0x24

    return HAL_ERROR;
 80010c0:	2001      	movs	r0, #1
  }
}
 80010c2:	4770      	bx	lr
    __HAL_CAN_DISABLE_IT(hcan, InactiveITs);
 80010c4:	6802      	ldr	r2, [r0, #0]
 80010c6:	6953      	ldr	r3, [r2, #20]
 80010c8:	ea23 0301 	bic.w	r3, r3, r1
 80010cc:	6153      	str	r3, [r2, #20]
    return HAL_OK;
 80010ce:	2000      	movs	r0, #0
 80010d0:	4770      	bx	lr

080010d2 <HAL_CAN_TxMailbox0CompleteCallback>:

  /* NOTE : This function Should not be modified, when the callback is needed,
            the HAL_CAN_TxMailbox0CompleteCallback could be implemented in the
            user file
   */
}
 80010d2:	4770      	bx	lr

080010d4 <HAL_CAN_TxMailbox1CompleteCallback>:

  /* NOTE : This function Should not be modified, when the callback is needed,
            the HAL_CAN_TxMailbox1CompleteCallback could be implemented in the
            user file
   */
}
 80010d4:	4770      	bx	lr

080010d6 <HAL_CAN_TxMailbox2CompleteCallback>:

  /* NOTE : This function Should not be modified, when the callback is needed,
            the HAL_CAN_TxMailbox2CompleteCallback could be implemented in the
            user file
   */
}
 80010d6:	4770      	bx	lr

080010d8 <HAL_CAN_TxMailbox0AbortCallback>:

  /* NOTE : This function Should not be modified, when the callback is needed,
            the HAL_CAN_TxMailbox0AbortCallback could be implemented in the
            user file
   */
}
 80010d8:	4770      	bx	lr

080010da <HAL_CAN_TxMailbox1AbortCallback>:

  /* NOTE : This function Should not be modified, when the callback is needed,
            the HAL_CAN_TxMailbox1AbortCallback could be implemented in the
            user file
   */
}
 80010da:	4770      	bx	lr

080010dc <HAL_CAN_TxMailbox2AbortCallback>:

  /* NOTE : This function Should not be modified, when the callback is needed,
            the HAL_CAN_TxMailbox2AbortCallback could be implemented in the
            user file
   */
}
 80010dc:	4770      	bx	lr

080010de <HAL_CAN_RxFifo0FullCallback>:

  /* NOTE : This function Should not be modified, when the callback is needed,
            the HAL_CAN_RxFifo0FullCallback could be implemented in the user
            file
   */
}
 80010de:	4770      	bx	lr

080010e0 <HAL_CAN_RxFifo1MsgPendingCallback>:

  /* NOTE : This function Should not be modified, when the callback is needed,
            the HAL_CAN_RxFifo1MsgPendingCallback could be implemented in the
            user file
   */
}
 80010e0:	4770      	bx	lr

080010e2 <HAL_CAN_RxFifo1FullCallback>:

  /* NOTE : This function Should not be modified, when the callback is needed,
            the HAL_CAN_RxFifo1FullCallback could be implemented in the user
            file
   */
}
 80010e2:	4770      	bx	lr

080010e4 <HAL_CAN_SleepCallback>:
  UNUSED(hcan);

  /* NOTE : This function Should not be modified, when the callback is needed,
            the HAL_CAN_SleepCallback could be implemented in the user file
   */
}
 80010e4:	4770      	bx	lr

080010e6 <HAL_CAN_WakeUpFromRxMsgCallback>:

  /* NOTE : This function Should not be modified, when the callback is needed,
            the HAL_CAN_WakeUpFromRxMsgCallback could be implemented in the
            user file
   */
}
 80010e6:	4770      	bx	lr

080010e8 <HAL_CAN_ErrorCallback>:
  UNUSED(hcan);

  /* NOTE : This function Should not be modified, when the callback is needed,
            the HAL_CAN_ErrorCallback could be implemented in the user file
   */
}
 80010e8:	4770      	bx	lr

080010ea <HAL_CAN_IRQHandler>:
{
 80010ea:	e92d 4ff8 	stmdb	sp!, {r3, r4, r5, r6, r7, r8, r9, sl, fp, lr}
 80010ee:	4605      	mov	r5, r0
  uint32_t interrupts = READ_REG(hcan->Instance->IER);
 80010f0:	6803      	ldr	r3, [r0, #0]
 80010f2:	695c      	ldr	r4, [r3, #20]
  uint32_t msrflags = READ_REG(hcan->Instance->MSR);
 80010f4:	f8d3 8004 	ldr.w	r8, [r3, #4]
  uint32_t tsrflags = READ_REG(hcan->Instance->TSR);
 80010f8:	689f      	ldr	r7, [r3, #8]
  uint32_t rf0rflags = READ_REG(hcan->Instance->RF0R);
 80010fa:	f8d3 a00c 	ldr.w	sl, [r3, #12]
  uint32_t rf1rflags = READ_REG(hcan->Instance->RF1R);
 80010fe:	f8d3 9010 	ldr.w	r9, [r3, #16]
  uint32_t esrflags = READ_REG(hcan->Instance->ESR);
 8001102:	f8d3 b018 	ldr.w	fp, [r3, #24]
  if ((interrupts & CAN_IT_TX_MAILBOX_EMPTY) != 0U)
 8001106:	f014 0601 	ands.w	r6, r4, #1
 800110a:	d03b      	beq.n	8001184 <HAL_CAN_IRQHandler+0x9a>
    if ((tsrflags & CAN_TSR_RQCP0) != 0U)
 800110c:	f017 0601 	ands.w	r6, r7, #1
 8001110:	d016      	beq.n	8001140 <HAL_CAN_IRQHandler+0x56>
      __HAL_CAN_CLEAR_FLAG(hcan, CAN_FLAG_RQCP0);
 8001112:	2201      	movs	r2, #1
 8001114:	609a      	str	r2, [r3, #8]
      if ((tsrflags & CAN_TSR_TXOK0) != 0U)
 8001116:	f017 0f02 	tst.w	r7, #2
 800111a:	d108      	bne.n	800112e <HAL_CAN_IRQHandler+0x44>
        if ((tsrflags & CAN_TSR_ALST0) != 0U)
 800111c:	f017 0f04 	tst.w	r7, #4
 8001120:	d10c      	bne.n	800113c <HAL_CAN_IRQHandler+0x52>
        else if ((tsrflags & CAN_TSR_TERR0) != 0U)
 8001122:	f017 0608 	ands.w	r6, r7, #8
 8001126:	d006      	beq.n	8001136 <HAL_CAN_IRQHandler+0x4c>
          errorcode |= HAL_CAN_ERROR_TX_TERR0;
 8001128:	f44f 5680 	mov.w	r6, #4096	@ 0x1000
 800112c:	e008      	b.n	8001140 <HAL_CAN_IRQHandler+0x56>
        HAL_CAN_TxMailbox0CompleteCallback(hcan);
 800112e:	f7ff ffd0 	bl	80010d2 <HAL_CAN_TxMailbox0CompleteCallback>
  uint32_t errorcode = HAL_CAN_ERROR_NONE;
 8001132:	2600      	movs	r6, #0
 8001134:	e004      	b.n	8001140 <HAL_CAN_IRQHandler+0x56>
          HAL_CAN_TxMailbox0AbortCallback(hcan);
 8001136:	f7ff ffcf 	bl	80010d8 <HAL_CAN_TxMailbox0AbortCallback>
 800113a:	e001      	b.n	8001140 <HAL_CAN_IRQHandler+0x56>
          errorcode |= HAL_CAN_ERROR_TX_ALST0;
 800113c:	f44f 6600 	mov.w	r6, #2048	@ 0x800
    if ((tsrflags & CAN_TSR_RQCP1) != 0U)
 8001140:	f417 7f80 	tst.w	r7, #256	@ 0x100
 8001144:	d00d      	beq.n	8001162 <HAL_CAN_IRQHandler+0x78>
      __HAL_CAN_CLEAR_FLAG(hcan, CAN_FLAG_RQCP1);
 8001146:	682b      	ldr	r3, [r5, #0]
 8001148:	f44f 7280 	mov.w	r2, #256	@ 0x100
 800114c:	609a      	str	r2, [r3, #8]
      if ((tsrflags & CAN_TSR_TXOK1) != 0U)
 800114e:	f417 7f00 	tst.w	r7, #512	@ 0x200
 8001152:	f040 8096 	bne.w	8001282 <HAL_CAN_IRQHandler+0x198>
        if ((tsrflags & CAN_TSR_ALST1) != 0U)
 8001156:	f417 6f80 	tst.w	r7, #1024	@ 0x400
 800115a:	f000 8096 	beq.w	800128a <HAL_CAN_IRQHandler+0x1a0>
          errorcode |= HAL_CAN_ERROR_TX_ALST1;
 800115e:	f446 5600 	orr.w	r6, r6, #8192	@ 0x2000
    if ((tsrflags & CAN_TSR_RQCP2) != 0U)
 8001162:	f417 3f80 	tst.w	r7, #65536	@ 0x10000
 8001166:	d00d      	beq.n	8001184 <HAL_CAN_IRQHandler+0x9a>
      __HAL_CAN_CLEAR_FLAG(hcan, CAN_FLAG_RQCP2);
 8001168:	682b      	ldr	r3, [r5, #0]
 800116a:	f44f 3280 	mov.w	r2, #65536	@ 0x10000
 800116e:	609a      	str	r2, [r3, #8]
      if ((tsrflags & CAN_TSR_TXOK2) != 0U)
 8001170:	f417 3f00 	tst.w	r7, #131072	@ 0x20000
 8001174:	f040 8093 	bne.w	800129e <HAL_CAN_IRQHandler+0x1b4>
        if ((tsrflags & CAN_TSR_ALST2) != 0U)
 8001178:	f417 2f80 	tst.w	r7, #262144	@ 0x40000
 800117c:	f000 8093 	beq.w	80012a6 <HAL_CAN_IRQHandler+0x1bc>
          errorcode |= HAL_CAN_ERROR_TX_ALST2;
 8001180:	f446 4600 	orr.w	r6, r6, #32768	@ 0x8000
  if ((interrupts & CAN_IT_RX_FIFO0_OVERRUN) != 0U)
 8001184:	f014 0f08 	tst.w	r4, #8
 8001188:	d007      	beq.n	800119a <HAL_CAN_IRQHandler+0xb0>
    if ((rf0rflags & CAN_RF0R_FOVR0) != 0U)
 800118a:	f01a 0f10 	tst.w	sl, #16
 800118e:	d004      	beq.n	800119a <HAL_CAN_IRQHandler+0xb0>
      errorcode |= HAL_CAN_ERROR_RX_FOV0;
 8001190:	f446 7600 	orr.w	r6, r6, #512	@ 0x200
      __HAL_CAN_CLEAR_FLAG(hcan, CAN_FLAG_FOV0);
 8001194:	682b      	ldr	r3, [r5, #0]
 8001196:	2210      	movs	r2, #16
 8001198:	60da      	str	r2, [r3, #12]
  if ((interrupts & CAN_IT_RX_FIFO0_FULL) != 0U)
 800119a:	f014 0f04 	tst.w	r4, #4
 800119e:	d003      	beq.n	80011a8 <HAL_CAN_IRQHandler+0xbe>
    if ((rf0rflags & CAN_RF0R_FULL0) != 0U)
 80011a0:	f01a 0f08 	tst.w	sl, #8
 80011a4:	f040 8089 	bne.w	80012ba <HAL_CAN_IRQHandler+0x1d0>
  if ((interrupts & CAN_IT_RX_FIFO0_MSG_PENDING) != 0U)
 80011a8:	f014 0f02 	tst.w	r4, #2
 80011ac:	d005      	beq.n	80011ba <HAL_CAN_IRQHandler+0xd0>
    if ((hcan->Instance->RF0R & CAN_RF0R_FMP0) != 0U)
 80011ae:	682b      	ldr	r3, [r5, #0]
 80011b0:	68db      	ldr	r3, [r3, #12]
 80011b2:	f013 0f03 	tst.w	r3, #3
 80011b6:	f040 8087 	bne.w	80012c8 <HAL_CAN_IRQHandler+0x1de>
  if ((interrupts & CAN_IT_RX_FIFO1_OVERRUN) != 0U)
 80011ba:	f014 0f40 	tst.w	r4, #64	@ 0x40
 80011be:	d007      	beq.n	80011d0 <HAL_CAN_IRQHandler+0xe6>
    if ((rf1rflags & CAN_RF1R_FOVR1) != 0U)
 80011c0:	f019 0f10 	tst.w	r9, #16
 80011c4:	d004      	beq.n	80011d0 <HAL_CAN_IRQHandler+0xe6>
      errorcode |= HAL_CAN_ERROR_RX_FOV1;
 80011c6:	f446 6680 	orr.w	r6, r6, #1024	@ 0x400
      __HAL_CAN_CLEAR_FLAG(hcan, CAN_FLAG_FOV1);
 80011ca:	682b      	ldr	r3, [r5, #0]
 80011cc:	2210      	movs	r2, #16
 80011ce:	611a      	str	r2, [r3, #16]
  if ((interrupts & CAN_IT_RX_FIFO1_FULL) != 0U)
 80011d0:	f014 0f20 	tst.w	r4, #32
 80011d4:	d002      	beq.n	80011dc <HAL_CAN_IRQHandler+0xf2>
    if ((rf1rflags & CAN_RF1R_FULL1) != 0U)
 80011d6:	f019 0f08 	tst.w	r9, #8
 80011da:	d179      	bne.n	80012d0 <HAL_CAN_IRQHandler+0x1e6>
  if ((interrupts & CAN_IT_RX_FIFO1_MSG_PENDING) != 0U)
 80011dc:	f014 0f10 	tst.w	r4, #16
 80011e0:	d004      	beq.n	80011ec <HAL_CAN_IRQHandler+0x102>
    if ((hcan->Instance->RF1R & CAN_RF1R_FMP1) != 0U)
 80011e2:	682b      	ldr	r3, [r5, #0]
 80011e4:	691b      	ldr	r3, [r3, #16]
 80011e6:	f013 0f03 	tst.w	r3, #3
 80011ea:	d178      	bne.n	80012de <HAL_CAN_IRQHandler+0x1f4>
  if ((interrupts & CAN_IT_SLEEP_ACK) != 0U)
 80011ec:	f414 3f00 	tst.w	r4, #131072	@ 0x20000
 80011f0:	d002      	beq.n	80011f8 <HAL_CAN_IRQHandler+0x10e>
    if ((msrflags & CAN_MSR_SLAKI) != 0U)
 80011f2:	f018 0f10 	tst.w	r8, #16
 80011f6:	d176      	bne.n	80012e6 <HAL_CAN_IRQHandler+0x1fc>
  if ((interrupts & CAN_IT_WAKEUP) != 0U)
 80011f8:	f414 3f80 	tst.w	r4, #65536	@ 0x10000
 80011fc:	d002      	beq.n	8001204 <HAL_CAN_IRQHandler+0x11a>
    if ((msrflags & CAN_MSR_WKUI) != 0U)
 80011fe:	f018 0f08 	tst.w	r8, #8
 8001202:	d177      	bne.n	80012f4 <HAL_CAN_IRQHandler+0x20a>
  if ((interrupts & CAN_IT_ERROR) != 0U)
 8001204:	f414 4f00 	tst.w	r4, #32768	@ 0x8000
 8001208:	d037      	beq.n	800127a <HAL_CAN_IRQHandler+0x190>
    if ((msrflags & CAN_MSR_ERRI) != 0U)
 800120a:	f018 0f04 	tst.w	r8, #4
 800120e:	d031      	beq.n	8001274 <HAL_CAN_IRQHandler+0x18a>
      if (((interrupts & CAN_IT_ERROR_WARNING) != 0U) &&
 8001210:	f414 7f80 	tst.w	r4, #256	@ 0x100
 8001214:	d004      	beq.n	8001220 <HAL_CAN_IRQHandler+0x136>
 8001216:	f01b 0f01 	tst.w	fp, #1
 800121a:	d001      	beq.n	8001220 <HAL_CAN_IRQHandler+0x136>
        errorcode |= HAL_CAN_ERROR_EWG;
 800121c:	f046 0601 	orr.w	r6, r6, #1
      if (((interrupts & CAN_IT_ERROR_PASSIVE) != 0U) &&
 8001220:	f414 7f00 	tst.w	r4, #512	@ 0x200
 8001224:	d004      	beq.n	8001230 <HAL_CAN_IRQHandler+0x146>
 8001226:	f01b 0f02 	tst.w	fp, #2
 800122a:	d001      	beq.n	8001230 <HAL_CAN_IRQHandler+0x146>
        errorcode |= HAL_CAN_ERROR_EPV;
 800122c:	f046 0602 	orr.w	r6, r6, #2
      if (((interrupts & CAN_IT_BUSOFF) != 0U) &&
 8001230:	f414 6f80 	tst.w	r4, #1024	@ 0x400
 8001234:	d004      	beq.n	8001240 <HAL_CAN_IRQHandler+0x156>
 8001236:	f01b 0f04 	tst.w	fp, #4
 800123a:	d001      	beq.n	8001240 <HAL_CAN_IRQHandler+0x156>
        errorcode |= HAL_CAN_ERROR_BOF;
 800123c:	f046 0604 	orr.w	r6, r6, #4
      if (((interrupts & CAN_IT_LAST_ERROR_CODE) != 0U) &&
 8001240:	f414 6f00 	tst.w	r4, #2048	@ 0x800
 8001244:	d016      	beq.n	8001274 <HAL_CAN_IRQHandler+0x18a>
 8001246:	f01b 0b70 	ands.w	fp, fp, #112	@ 0x70
 800124a:	d013      	beq.n	8001274 <HAL_CAN_IRQHandler+0x18a>
        switch (esrflags & CAN_ESR_LEC)
 800124c:	f1bb 0f40 	cmp.w	fp, #64	@ 0x40
 8001250:	d066      	beq.n	8001320 <HAL_CAN_IRQHandler+0x236>
 8001252:	d856      	bhi.n	8001302 <HAL_CAN_IRQHandler+0x218>
 8001254:	f1bb 0f20 	cmp.w	fp, #32
 8001258:	d05c      	beq.n	8001314 <HAL_CAN_IRQHandler+0x22a>
 800125a:	f1bb 0f30 	cmp.w	fp, #48	@ 0x30
 800125e:	d05c      	beq.n	800131a <HAL_CAN_IRQHandler+0x230>
 8001260:	f1bb 0f10 	cmp.w	fp, #16
 8001264:	d101      	bne.n	800126a <HAL_CAN_IRQHandler+0x180>
            errorcode |= HAL_CAN_ERROR_STF;
 8001266:	f046 0608 	orr.w	r6, r6, #8
        CLEAR_BIT(hcan->Instance->ESR, CAN_ESR_LEC);
 800126a:	682a      	ldr	r2, [r5, #0]
 800126c:	6993      	ldr	r3, [r2, #24]
 800126e:	f023 0370 	bic.w	r3, r3, #112	@ 0x70
 8001272:	6193      	str	r3, [r2, #24]
    __HAL_CAN_CLEAR_FLAG(hcan, CAN_FLAG_ERRI);
 8001274:	682b      	ldr	r3, [r5, #0]
 8001276:	2204      	movs	r2, #4
 8001278:	605a      	str	r2, [r3, #4]
  if (errorcode != HAL_CAN_ERROR_NONE)
 800127a:	2e00      	cmp	r6, #0
 800127c:	d156      	bne.n	800132c <HAL_CAN_IRQHandler+0x242>
}
 800127e:	e8bd 8ff8 	ldmia.w	sp!, {r3, r4, r5, r6, r7, r8, r9, sl, fp, pc}
        HAL_CAN_TxMailbox1CompleteCallback(hcan);
 8001282:	4628      	mov	r0, r5
 8001284:	f7ff ff26 	bl	80010d4 <HAL_CAN_TxMailbox1CompleteCallback>
 8001288:	e76b      	b.n	8001162 <HAL_CAN_IRQHandler+0x78>
        else if ((tsrflags & CAN_TSR_TERR1) != 0U)
 800128a:	f417 6f00 	tst.w	r7, #2048	@ 0x800
 800128e:	d002      	beq.n	8001296 <HAL_CAN_IRQHandler+0x1ac>
          errorcode |= HAL_CAN_ERROR_TX_TERR1;
 8001290:	f446 4680 	orr.w	r6, r6, #16384	@ 0x4000
 8001294:	e765      	b.n	8001162 <HAL_CAN_IRQHandler+0x78>
          HAL_CAN_TxMailbox1AbortCallback(hcan);
 8001296:	4628      	mov	r0, r5
 8001298:	f7ff ff1f 	bl	80010da <HAL_CAN_TxMailbox1AbortCallback>
 800129c:	e761      	b.n	8001162 <HAL_CAN_IRQHandler+0x78>
        HAL_CAN_TxMailbox2CompleteCallback(hcan);
 800129e:	4628      	mov	r0, r5
 80012a0:	f7ff ff19 	bl	80010d6 <HAL_CAN_TxMailbox2CompleteCallback>
 80012a4:	e76e      	b.n	8001184 <HAL_CAN_IRQHandler+0x9a>
        else if ((tsrflags & CAN_TSR_TERR2) != 0U)
 80012a6:	f417 2f00 	tst.w	r7, #524288	@ 0x80000
 80012aa:	d002      	beq.n	80012b2 <HAL_CAN_IRQHandler+0x1c8>
          errorcode |= HAL_CAN_ERROR_TX_TERR2;
 80012ac:	f446 3680 	orr.w	r6, r6, #65536	@ 0x10000
 80012b0:	e768      	b.n	8001184 <HAL_CAN_IRQHandler+0x9a>
          HAL_CAN_TxMailbox2AbortCallback(hcan);
 80012b2:	4628      	mov	r0, r5
 80012b4:	f7ff ff12 	bl	80010dc <HAL_CAN_TxMailbox2AbortCallback>
 80012b8:	e764      	b.n	8001184 <HAL_CAN_IRQHandler+0x9a>
      __HAL_CAN_CLEAR_FLAG(hcan, CAN_FLAG_FF0);
 80012ba:	682b      	ldr	r3, [r5, #0]
 80012bc:	2208      	movs	r2, #8
 80012be:	60da      	str	r2, [r3, #12]
      HAL_CAN_RxFifo0FullCallback(hcan);
 80012c0:	4628      	mov	r0, r5
 80012c2:	f7ff ff0c 	bl	80010de <HAL_CAN_RxFifo0FullCallback>
 80012c6:	e76f      	b.n	80011a8 <HAL_CAN_IRQHandler+0xbe>
      HAL_CAN_RxFifo0MsgPendingCallback(hcan);
 80012c8:	4628      	mov	r0, r5
 80012ca:	f7ff fb1f 	bl	800090c <HAL_CAN_RxFifo0MsgPendingCallback>
 80012ce:	e774      	b.n	80011ba <HAL_CAN_IRQHandler+0xd0>
      __HAL_CAN_CLEAR_FLAG(hcan, CAN_FLAG_FF1);
 80012d0:	682b      	ldr	r3, [r5, #0]
 80012d2:	2208      	movs	r2, #8
 80012d4:	611a      	str	r2, [r3, #16]
      HAL_CAN_RxFifo1FullCallback(hcan);
 80012d6:	4628      	mov	r0, r5
 80012d8:	f7ff ff03 	bl	80010e2 <HAL_CAN_RxFifo1FullCallback>
 80012dc:	e77e      	b.n	80011dc <HAL_CAN_IRQHandler+0xf2>
      HAL_CAN_RxFifo1MsgPendingCallback(hcan);
 80012de:	4628      	mov	r0, r5
 80012e0:	f7ff fefe 	bl	80010e0 <HAL_CAN_RxFifo1MsgPendingCallback>
 80012e4:	e782      	b.n	80011ec <HAL_CAN_IRQHandler+0x102>
      __HAL_CAN_CLEAR_FLAG(hcan, CAN_FLAG_SLAKI);
 80012e6:	682b      	ldr	r3, [r5, #0]
 80012e8:	2210      	movs	r2, #16
 80012ea:	605a      	str	r2, [r3, #4]
      HAL_CAN_SleepCallback(hcan);
 80012ec:	4628      	mov	r0, r5
 80012ee:	f7ff fef9 	bl	80010e4 <HAL_CAN_SleepCallback>
 80012f2:	e781      	b.n	80011f8 <HAL_CAN_IRQHandler+0x10e>
      __HAL_CAN_CLEAR_FLAG(hcan, CAN_FLAG_WKU);
 80012f4:	682b      	ldr	r3, [r5, #0]
 80012f6:	2208      	movs	r2, #8
 80012f8:	605a      	str	r2, [r3, #4]
      HAL_CAN_WakeUpFromRxMsgCallback(hcan);
 80012fa:	4628      	mov	r0, r5
 80012fc:	f7ff fef3 	bl	80010e6 <HAL_CAN_WakeUpFromRxMsgCallback>
 8001300:	e780      	b.n	8001204 <HAL_CAN_IRQHandler+0x11a>
        switch (esrflags & CAN_ESR_LEC)
 8001302:	f1bb 0f50 	cmp.w	fp, #80	@ 0x50
 8001306:	d00e      	beq.n	8001326 <HAL_CAN_IRQHandler+0x23c>
 8001308:	f1bb 0f60 	cmp.w	fp, #96	@ 0x60
 800130c:	d1ad      	bne.n	800126a <HAL_CAN_IRQHandler+0x180>
            errorcode |= HAL_CAN_ERROR_CRC;
 800130e:	f446 7680 	orr.w	r6, r6, #256	@ 0x100
            break;
 8001312:	e7aa      	b.n	800126a <HAL_CAN_IRQHandler+0x180>
            errorcode |= HAL_CAN_ERROR_FOR;
 8001314:	f046 0610 	orr.w	r6, r6, #16
            break;
 8001318:	e7a7      	b.n	800126a <HAL_CAN_IRQHandler+0x180>
            errorcode |= HAL_CAN_ERROR_ACK;
 800131a:	f046 0620 	orr.w	r6, r6, #32
            break;
 800131e:	e7a4      	b.n	800126a <HAL_CAN_IRQHandler+0x180>
            errorcode |= HAL_CAN_ERROR_BR;
 8001320:	f046 0640 	orr.w	r6, r6, #64	@ 0x40
            break;
 8001324:	e7a1      	b.n	800126a <HAL_CAN_IRQHandler+0x180>
            errorcode |= HAL_CAN_ERROR_BD;
 8001326:	f046 0680 	orr.w	r6, r6, #128	@ 0x80
            break;
 800132a:	e79e      	b.n	800126a <HAL_CAN_IRQHandler+0x180>
    hcan->ErrorCode |= errorcode;
 800132c:	6a6b      	ldr	r3, [r5, #36]	@ 0x24
 800132e:	4333      	orrs	r3, r6
 8001330:	626b      	str	r3, [r5, #36]	@ 0x24
    HAL_CAN_ErrorCallback(hcan);
 8001332:	4628      	mov	r0, r5
 8001334:	f7ff fed8 	bl	80010e8 <HAL_CAN_ErrorCallback>
}
 8001338:	e7a1      	b.n	800127e <HAL_CAN_IRQHandler+0x194>
	...

0800133c <__NVIC_EnableIRQ>:
  \param [in]      IRQn  Device specific interrupt number.
  \note    IRQn must not be negative.
 */
__STATIC_INLINE void __NVIC_EnableIRQ(IRQn_Type IRQn)
{
  if ((int32_t)(IRQn) >= 0)
 800133c:	2800      	cmp	r0, #0
 800133e:	db07      	blt.n	8001350 <__NVIC_EnableIRQ+0x14>
  {
    __COMPILER_BARRIER();
    NVIC->ISER[(((uint32_t)IRQn) >> 5UL)] = (uint32_t)(1UL << (((uint32_t)IRQn) & 0x1FUL));
 8001340:	f000 021f 	and.w	r2, r0, #31
 8001344:	0940      	lsrs	r0, r0, #5
 8001346:	2301      	movs	r3, #1
 8001348:	4093      	lsls	r3, r2
 800134a:	4a02      	ldr	r2, [pc, #8]	@ (8001354 <__NVIC_EnableIRQ+0x18>)
 800134c:	f842 3020 	str.w	r3, [r2, r0, lsl #2]
    __COMPILER_BARRIER();
  }
}
 8001350:	4770      	bx	lr
 8001352:	bf00      	nop
 8001354:	e000e100 	.word	0xe000e100

08001358 <__NVIC_DisableIRQ>:
  \param [in]      IRQn  Device specific interrupt number.
  \note    IRQn must not be negative.
 */
__STATIC_INLINE void __NVIC_DisableIRQ(IRQn_Type IRQn)
{
  if ((int32_t)(IRQn) >= 0)
 8001358:	2800      	cmp	r0, #0
 800135a:	db0c      	blt.n	8001376 <__NVIC_DisableIRQ+0x1e>
  {
    NVIC->ICER[(((uint32_t)IRQn) >> 5UL)] = (uint32_t)(1UL << (((uint32_t)IRQn) & 0x1FUL));
 800135c:	f000 021f 	and.w	r2, r0, #31
 8001360:	0940      	lsrs	r0, r0, #5
 8001362:	2301      	movs	r3, #1
 8001364:	4093      	lsls	r3, r2
 8001366:	3020      	adds	r0, #32
 8001368:	4a03      	ldr	r2, [pc, #12]	@ (8001378 <__NVIC_DisableIRQ+0x20>)
 800136a:	f842 3020 	str.w	r3, [r2, r0, lsl #2]
  \details Acts as a special kind of Data Memory Barrier.
           It completes when all explicit memory accesses before this instruction complete.
 */
__STATIC_FORCEINLINE void __DSB(void)
{
  __ASM volatile ("dsb 0xF":::"memory");
 800136e:	f3bf 8f4f 	dsb	sy
  __ASM volatile ("isb 0xF":::"memory");
 8001372:	f3bf 8f6f 	isb	sy
    __DSB();
    __ISB();
  }
}
 8001376:	4770      	bx	lr
 8001378:	e000e100 	.word	0xe000e100

0800137c <__NVIC_SetPriority>:
  \param [in]  priority  Priority to set.
  \note    The priority cannot be set for every processor exception.
 */
__STATIC_INLINE void __NVIC_SetPriority(IRQn_Type IRQn, uint32_t priority)
{
  if ((int32_t)(IRQn) >= 0)
 800137c:	2800      	cmp	r0, #0
 800137e:	db08      	blt.n	8001392 <__NVIC_SetPriority+0x16>
  {
    NVIC->IP[((uint32_t)IRQn)]               = (uint8_t)((priority << (8U - __NVIC_PRIO_BITS)) & (uint32_t)0xFFUL);
 8001380:	0109      	lsls	r1, r1, #4
 8001382:	b2c9      	uxtb	r1, r1
 8001384:	f100 4060 	add.w	r0, r0, #3758096384	@ 0xe0000000
 8001388:	f500 4061 	add.w	r0, r0, #57600	@ 0xe100
 800138c:	f880 1300 	strb.w	r1, [r0, #768]	@ 0x300
 8001390:	4770      	bx	lr
  }
  else
  {
    SCB->SHP[(((uint32_t)IRQn) & 0xFUL)-4UL] = (uint8_t)((priority << (8U - __NVIC_PRIO_BITS)) & (uint32_t)0xFFUL);
 8001392:	f000 000f 	and.w	r0, r0, #15
 8001396:	0109      	lsls	r1, r1, #4
 8001398:	b2c9      	uxtb	r1, r1
 800139a:	4b01      	ldr	r3, [pc, #4]	@ (80013a0 <__NVIC_SetPriority+0x24>)
 800139c:	5419      	strb	r1, [r3, r0]
  }
}
 800139e:	4770      	bx	lr
 80013a0:	e000ed14 	.word	0xe000ed14

080013a4 <NVIC_EncodePriority>:
  \param [in]   PreemptPriority  Preemptive priority value (starting from 0).
  \param [in]       SubPriority  Subpriority value (starting from 0).
  \return                        Encoded priority. Value can be used in the function \ref NVIC_SetPriority().
 */
__STATIC_INLINE uint32_t NVIC_EncodePriority (uint32_t PriorityGroup, uint32_t PreemptPriority, uint32_t SubPriority)
{
 80013a4:	b500      	push	{lr}
  uint32_t PriorityGroupTmp = (PriorityGroup & (uint32_t)0x07UL);   /* only values 0..7 are used          */
 80013a6:	f000 0007 	and.w	r0, r0, #7
  uint32_t PreemptPriorityBits;
  uint32_t SubPriorityBits;

  PreemptPriorityBits = ((7UL - PriorityGroupTmp) > (uint32_t)(__NVIC_PRIO_BITS)) ? (uint32_t)(__NVIC_PRIO_BITS) : (uint32_t)(7UL - PriorityGroupTmp);
 80013aa:	f1c0 0c07 	rsb	ip, r0, #7
 80013ae:	f1bc 0f04 	cmp.w	ip, #4
 80013b2:	bf28      	it	cs
 80013b4:	f04f 0c04 	movcs.w	ip, #4
  SubPriorityBits     = ((PriorityGroupTmp + (uint32_t)(__NVIC_PRIO_BITS)) < (uint32_t)7UL) ? (uint32_t)0UL : (uint32_t)((PriorityGroupTmp - 7UL) + (uint32_t)(__NVIC_PRIO_BITS));
 80013b8:	1d03      	adds	r3, r0, #4
 80013ba:	2b06      	cmp	r3, #6
 80013bc:	d90f      	bls.n	80013de <NVIC_EncodePriority+0x3a>
 80013be:	1ec3      	subs	r3, r0, #3

  return (
           ((PreemptPriority & (uint32_t)((1UL << (PreemptPriorityBits)) - 1UL)) << SubPriorityBits) |
 80013c0:	f04f 3eff 	mov.w	lr, #4294967295
 80013c4:	fa0e f00c 	lsl.w	r0, lr, ip
 80013c8:	ea21 0100 	bic.w	r1, r1, r0
 80013cc:	4099      	lsls	r1, r3
           ((SubPriority     & (uint32_t)((1UL << (SubPriorityBits    )) - 1UL)))
 80013ce:	fa0e fe03 	lsl.w	lr, lr, r3
 80013d2:	ea22 020e 	bic.w	r2, r2, lr
         );
}
 80013d6:	ea41 0002 	orr.w	r0, r1, r2
 80013da:	f85d fb04 	ldr.w	pc, [sp], #4
  SubPriorityBits     = ((PriorityGroupTmp + (uint32_t)(__NVIC_PRIO_BITS)) < (uint32_t)7UL) ? (uint32_t)0UL : (uint32_t)((PriorityGroupTmp - 7UL) + (uint32_t)(__NVIC_PRIO_BITS));
 80013de:	2300      	movs	r3, #0
 80013e0:	e7ee      	b.n	80013c0 <NVIC_EncodePriority+0x1c>
	...

080013e4 <HAL_NVIC_SetPriorityGrouping>:
  reg_value  =  SCB->AIRCR;                                                   /* read old register configuration    */
 80013e4:	4a07      	ldr	r2, [pc, #28]	@ (8001404 <HAL_NVIC_SetPriorityGrouping+0x20>)
 80013e6:	68d3      	ldr	r3, [r2, #12]
  reg_value &= ~((uint32_t)(SCB_AIRCR_VECTKEY_Msk | SCB_AIRCR_PRIGROUP_Msk)); /* clear bits to change               */
 80013e8:	f423 63e0 	bic.w	r3, r3, #1792	@ 0x700
 80013ec:	041b      	lsls	r3, r3, #16
 80013ee:	0c1b      	lsrs	r3, r3, #16
                (PriorityGroupTmp << SCB_AIRCR_PRIGROUP_Pos)  );              /* Insert write key and priority group */
 80013f0:	0200      	lsls	r0, r0, #8
 80013f2:	f400 60e0 	and.w	r0, r0, #1792	@ 0x700
                ((uint32_t)0x5FAUL << SCB_AIRCR_VECTKEY_Pos) |
 80013f6:	4303      	orrs	r3, r0
  reg_value  =  (reg_value                                   |
 80013f8:	f043 63bf 	orr.w	r3, r3, #100139008	@ 0x5f80000
 80013fc:	f443 3300 	orr.w	r3, r3, #131072	@ 0x20000
  SCB->AIRCR =  reg_value;
 8001400:	60d3      	str	r3, [r2, #12]
  /* Check the parameters */
  assert_param(IS_NVIC_PRIORITY_GROUP(PriorityGroup));

  /* Set the PRIGROUP[10:8] bits according to the PriorityGroup parameter value */
  NVIC_SetPriorityGrouping(PriorityGroup);
}
 8001402:	4770      	bx	lr
 8001404:	e000ed00 	.word	0xe000ed00

08001408 <HAL_NVIC_SetPriority>:
  *         This parameter can be a value between 0 and 15
  *         A lower priority value indicates a higher priority.
  * @retval None
  */
void HAL_NVIC_SetPriority(IRQn_Type IRQn, uint32_t PreemptPriority, uint32_t SubPriority)
{
 8001408:	b510      	push	{r4, lr}
 800140a:	4604      	mov	r4, r0
  return ((uint32_t)((SCB->AIRCR & SCB_AIRCR_PRIGROUP_Msk) >> SCB_AIRCR_PRIGROUP_Pos));
 800140c:	4b05      	ldr	r3, [pc, #20]	@ (8001424 <HAL_NVIC_SetPriority+0x1c>)
 800140e:	68d8      	ldr	r0, [r3, #12]
  assert_param(IS_NVIC_SUB_PRIORITY(SubPriority));
  assert_param(IS_NVIC_PREEMPTION_PRIORITY(PreemptPriority));

  prioritygroup = NVIC_GetPriorityGrouping();

  NVIC_SetPriority(IRQn, NVIC_EncodePriority(prioritygroup, PreemptPriority, SubPriority));
 8001410:	f3c0 2002 	ubfx	r0, r0, #8, #3
 8001414:	f7ff ffc6 	bl	80013a4 <NVIC_EncodePriority>
 8001418:	4601      	mov	r1, r0
 800141a:	4620      	mov	r0, r4
 800141c:	f7ff ffae 	bl	800137c <__NVIC_SetPriority>
}
 8001420:	bd10      	pop	{r4, pc}
 8001422:	bf00      	nop
 8001424:	e000ed00 	.word	0xe000ed00

08001428 <HAL_NVIC_EnableIRQ>:
  *         This parameter can be an enumerator of IRQn_Type enumeration
  *         (For the complete STM32 Devices IRQ Channels list, please refer to the appropriate CMSIS device file (stm32l4xxxx.h))
  * @retval None
  */
void HAL_NVIC_EnableIRQ(IRQn_Type IRQn)
{
 8001428:	b508      	push	{r3, lr}
  /* Check the parameters */
  assert_param(IS_NVIC_DEVICE_IRQ(IRQn));
  
  /* Enable interrupt */
  NVIC_EnableIRQ(IRQn);
 800142a:	f7ff ff87 	bl	800133c <__NVIC_EnableIRQ>
}
 800142e:	bd08      	pop	{r3, pc}

08001430 <HAL_NVIC_DisableIRQ>:
  *         This parameter can be an enumerator of IRQn_Type enumeration
  *         (For the complete STM32 Devices IRQ Channels list, please refer to the appropriate CMSIS device file (stm32l4xxxx.h))
  * @retval None
  */
void HAL_NVIC_DisableIRQ(IRQn_Type IRQn)
{
 8001430:	b508      	push	{r3, lr}
  /* Check the parameters */
  assert_param(IS_NVIC_DEVICE_IRQ(IRQn));
  
  /* Disable interrupt */
  NVIC_DisableIRQ(IRQn);
 8001432:	f7ff ff91 	bl	8001358 <__NVIC_DisableIRQ>
}
 8001436:	bd08      	pop	{r3, pc}

08001438 <HAL_SYSTICK_Config>:
           function <b>SysTick_Config</b> is not included. In this case, the file <b><i>device</i>.h</b>
           must contain a vendor-specific implementation of this function.
 */
__STATIC_INLINE uint32_t SysTick_Config(uint32_t ticks)
{
  if ((ticks - 1UL) > SysTick_LOAD_RELOAD_Msk)
 8001438:	3801      	subs	r0, #1
 800143a:	f1b0 7f80 	cmp.w	r0, #16777216	@ 0x1000000
 800143e:	d20b      	bcs.n	8001458 <HAL_SYSTICK_Config+0x20>
  {
    return (1UL);                                                   /* Reload value impossible */
  }

  SysTick->LOAD  = (uint32_t)(ticks - 1UL);                         /* set reload register */
 8001440:	f04f 23e0 	mov.w	r3, #3758153728	@ 0xe000e000
 8001444:	6158      	str	r0, [r3, #20]
    SCB->SHP[(((uint32_t)IRQn) & 0xFUL)-4UL] = (uint8_t)((priority << (8U - __NVIC_PRIO_BITS)) & (uint32_t)0xFFUL);
 8001446:	4a05      	ldr	r2, [pc, #20]	@ (800145c <HAL_SYSTICK_Config+0x24>)
 8001448:	21f0      	movs	r1, #240	@ 0xf0
 800144a:	f882 1023 	strb.w	r1, [r2, #35]	@ 0x23
  NVIC_SetPriority (SysTick_IRQn, (1UL << __NVIC_PRIO_BITS) - 1UL); /* set Priority for Systick Interrupt */
  SysTick->VAL   = 0UL;                                             /* Load the SysTick Counter Value */
 800144e:	2000      	movs	r0, #0
 8001450:	6198      	str	r0, [r3, #24]
  SysTick->CTRL  = SysTick_CTRL_CLKSOURCE_Msk |
 8001452:	2207      	movs	r2, #7
 8001454:	611a      	str	r2, [r3, #16]
                   SysTick_CTRL_TICKINT_Msk   |
                   SysTick_CTRL_ENABLE_Msk;                         /* Enable SysTick IRQ and SysTick Timer */
  return (0UL);                                                     /* Function successful */
 8001456:	4770      	bx	lr
    return (1UL);                                                   /* Reload value impossible */
 8001458:	2001      	movs	r0, #1
  *                  - 1  Function failed.
  */
uint32_t HAL_SYSTICK_Config(uint32_t TicksNumb)
{
   return SysTick_Config(TicksNumb);
}
 800145a:	4770      	bx	lr
 800145c:	e000ed00 	.word	0xe000ed00

08001460 <FLASH_Program_DoubleWord>:
  * @param  Address specifies the address to be programmed.
  * @param  Data specifies the data to be programmed.
  * @retval None
  */
static void FLASH_Program_DoubleWord(uint32_t Address, uint64_t Data)
{
 8001460:	b410      	push	{r4}
  /* Check the parameters */
  assert_param(IS_FLASH_PROGRAM_ADDRESS(Address));

  /* Set PG bit */
  SET_BIT(FLASH->CR, FLASH_CR_PG);
 8001462:	4c06      	ldr	r4, [pc, #24]	@ (800147c <FLASH_Program_DoubleWord+0x1c>)
 8001464:	6961      	ldr	r1, [r4, #20]
 8001466:	f041 0101 	orr.w	r1, r1, #1
 800146a:	6161      	str	r1, [r4, #20]

  /* Program first word */
  *(__IO uint32_t*)Address = (uint32_t)Data;
 800146c:	6002      	str	r2, [r0, #0]
 800146e:	f3bf 8f6f 	isb	sy
  /* Barrier to ensure programming is performed in 2 steps, in right order
    (independently of compiler optimization behavior) */
  __ISB();

  /* Program second word */
  *(__IO uint32_t*)(Address+4U) = (uint32_t)(Data >> 32);
 8001472:	6043      	str	r3, [r0, #4]
}
 8001474:	f85d 4b04 	ldr.w	r4, [sp], #4
 8001478:	4770      	bx	lr
 800147a:	bf00      	nop
 800147c:	40022000 	.word	0x40022000

08001480 <FLASH_Program_Fast>:

  /* Check the parameters */
  assert_param(IS_FLASH_MAIN_MEM_ADDRESS(Address));

  /* Set FSTPG bit */
  SET_BIT(FLASH->CR, FLASH_CR_FSTPG);
 8001480:	4a09      	ldr	r2, [pc, #36]	@ (80014a8 <FLASH_Program_Fast+0x28>)
 8001482:	6953      	ldr	r3, [r2, #20]
 8001484:	f443 2380 	orr.w	r3, r3, #262144	@ 0x40000
 8001488:	6153      	str	r3, [r2, #20]
  __ASM volatile ("MRS %0, primask" : "=r" (result) :: "memory");
 800148a:	f3ef 8c10 	mrs	ip, PRIMASK
  __ASM volatile ("cpsid i" : : : "memory");
 800148e:	b672      	cpsid	i
  uint8_t row_index = (2*FLASH_NB_DOUBLE_WORDS_IN_ROW);
 8001490:	2340      	movs	r3, #64	@ 0x40
  __disable_irq();

  /* Program the double word of the row */
  do
  {
    *dest_addr = *src_addr;
 8001492:	f851 2b04 	ldr.w	r2, [r1], #4
 8001496:	f840 2b04 	str.w	r2, [r0], #4
    dest_addr++;
    src_addr++;
    row_index--;
 800149a:	3b01      	subs	r3, #1
  } while (row_index != 0U);
 800149c:	f013 03ff 	ands.w	r3, r3, #255	@ 0xff
 80014a0:	d1f7      	bne.n	8001492 <FLASH_Program_Fast+0x12>
  __ASM volatile ("MSR primask, %0" : : "r" (priMask) : "memory");
 80014a2:	f38c 8810 	msr	PRIMASK, ip

  /* Re-enable the interrupts */
  __set_PRIMASK(primask_bit);
}
 80014a6:	4770      	bx	lr
 80014a8:	40022000 	.word	0x40022000

080014ac <HAL_FLASH_Unlock>:
  if(READ_BIT(FLASH->CR, FLASH_CR_LOCK) != 0U)
 80014ac:	4b09      	ldr	r3, [pc, #36]	@ (80014d4 <HAL_FLASH_Unlock+0x28>)
 80014ae:	695b      	ldr	r3, [r3, #20]
 80014b0:	2b00      	cmp	r3, #0
 80014b2:	db01      	blt.n	80014b8 <HAL_FLASH_Unlock+0xc>
  HAL_StatusTypeDef status = HAL_OK;
 80014b4:	2000      	movs	r0, #0
 80014b6:	4770      	bx	lr
    WRITE_REG(FLASH->KEYR, FLASH_KEY1);
 80014b8:	4b06      	ldr	r3, [pc, #24]	@ (80014d4 <HAL_FLASH_Unlock+0x28>)
 80014ba:	4a07      	ldr	r2, [pc, #28]	@ (80014d8 <HAL_FLASH_Unlock+0x2c>)
 80014bc:	609a      	str	r2, [r3, #8]
    WRITE_REG(FLASH->KEYR, FLASH_KEY2);
 80014be:	f102 3288 	add.w	r2, r2, #2290649224	@ 0x88888888
 80014c2:	609a      	str	r2, [r3, #8]
    if(READ_BIT(FLASH->CR, FLASH_CR_LOCK) != 0U)
 80014c4:	695b      	ldr	r3, [r3, #20]
 80014c6:	2b00      	cmp	r3, #0
 80014c8:	db01      	blt.n	80014ce <HAL_FLASH_Unlock+0x22>
  HAL_StatusTypeDef status = HAL_OK;
 80014ca:	2000      	movs	r0, #0
 80014cc:	4770      	bx	lr
      status = HAL_ERROR;
 80014ce:	2001      	movs	r0, #1
}
 80014d0:	4770      	bx	lr
 80014d2:	bf00      	nop
 80014d4:	40022000 	.word	0x40022000
 80014d8:	45670123 	.word	0x45670123

080014dc <HAL_FLASH_Lock>:
  SET_BIT(FLASH->CR, FLASH_CR_LOCK);
 80014dc:	4a03      	ldr	r2, [pc, #12]	@ (80014ec <HAL_FLASH_Lock+0x10>)
 80014de:	6953      	ldr	r3, [r2, #20]
 80014e0:	f043 4300 	orr.w	r3, r3, #2147483648	@ 0x80000000
 80014e4:	6153      	str	r3, [r2, #20]
}
 80014e6:	2000      	movs	r0, #0
 80014e8:	4770      	bx	lr
 80014ea:	bf00      	nop
 80014ec:	40022000 	.word	0x40022000

080014f0 <FLASH_WaitForLastOperation>:
{
 80014f0:	b538      	push	{r3, r4, r5, lr}
 80014f2:	4604      	mov	r4, r0
  uint32_t tickstart = HAL_GetTick();
 80014f4:	f7ff fae4 	bl	8000ac0 <HAL_GetTick>
 80014f8:	4605      	mov	r5, r0
  while(__HAL_FLASH_GET_FLAG(FLASH_FLAG_BSY))
 80014fa:	4b14      	ldr	r3, [pc, #80]	@ (800154c <FLASH_WaitForLastOperation+0x5c>)
 80014fc:	691b      	ldr	r3, [r3, #16]
 80014fe:	f413 3f80 	tst.w	r3, #65536	@ 0x10000
 8001502:	d009      	beq.n	8001518 <FLASH_WaitForLastOperation+0x28>
    if(Timeout != HAL_MAX_DELAY)
 8001504:	f1b4 3fff 	cmp.w	r4, #4294967295
 8001508:	d0f7      	beq.n	80014fa <FLASH_WaitForLastOperation+0xa>
      if((HAL_GetTick() - tickstart) >= Timeout)
 800150a:	f7ff fad9 	bl	8000ac0 <HAL_GetTick>
 800150e:	1b40      	subs	r0, r0, r5
 8001510:	42a0      	cmp	r0, r4
 8001512:	d3f2      	bcc.n	80014fa <FLASH_WaitForLastOperation+0xa>
        return HAL_TIMEOUT;
 8001514:	2003      	movs	r0, #3
 8001516:	e015      	b.n	8001544 <FLASH_WaitForLastOperation+0x54>
  error = (FLASH->SR & FLASH_FLAG_SR_ERRORS);
 8001518:	4b0c      	ldr	r3, [pc, #48]	@ (800154c <FLASH_WaitForLastOperation+0x5c>)
 800151a:	691b      	ldr	r3, [r3, #16]
 800151c:	4a0c      	ldr	r2, [pc, #48]	@ (8001550 <FLASH_WaitForLastOperation+0x60>)
  if(error != 0u)
 800151e:	4013      	ands	r3, r2
 8001520:	d109      	bne.n	8001536 <FLASH_WaitForLastOperation+0x46>
  if (__HAL_FLASH_GET_FLAG(FLASH_FLAG_EOP))
 8001522:	4b0a      	ldr	r3, [pc, #40]	@ (800154c <FLASH_WaitForLastOperation+0x5c>)
 8001524:	691b      	ldr	r3, [r3, #16]
 8001526:	f013 0f01 	tst.w	r3, #1
 800152a:	d00c      	beq.n	8001546 <FLASH_WaitForLastOperation+0x56>
    __HAL_FLASH_CLEAR_FLAG(FLASH_FLAG_EOP);
 800152c:	4b07      	ldr	r3, [pc, #28]	@ (800154c <FLASH_WaitForLastOperation+0x5c>)
 800152e:	2201      	movs	r2, #1
 8001530:	611a      	str	r2, [r3, #16]
  return HAL_OK;
 8001532:	2000      	movs	r0, #0
 8001534:	e006      	b.n	8001544 <FLASH_WaitForLastOperation+0x54>
    pFlash.ErrorCode |= error;
 8001536:	4907      	ldr	r1, [pc, #28]	@ (8001554 <FLASH_WaitForLastOperation+0x64>)
 8001538:	684a      	ldr	r2, [r1, #4]
 800153a:	431a      	orrs	r2, r3
 800153c:	604a      	str	r2, [r1, #4]
    __HAL_FLASH_CLEAR_FLAG(error);
 800153e:	4a03      	ldr	r2, [pc, #12]	@ (800154c <FLASH_WaitForLastOperation+0x5c>)
 8001540:	6113      	str	r3, [r2, #16]
    return HAL_ERROR;
 8001542:	2001      	movs	r0, #1
}
 8001544:	bd38      	pop	{r3, r4, r5, pc}
  return HAL_OK;
 8001546:	2000      	movs	r0, #0
 8001548:	e7fc      	b.n	8001544 <FLASH_WaitForLastOperation+0x54>
 800154a:	bf00      	nop
 800154c:	40022000 	.word	0x40022000
 8001550:	0002c3fa 	.word	0x0002c3fa
 8001554:	20000008 	.word	0x20000008

08001558 <HAL_FLASH_Program>:
{
 8001558:	e92d 41f0 	stmdb	sp!, {r4, r5, r6, r7, r8, lr}
 800155c:	4616      	mov	r6, r2
  __HAL_LOCK(&pFlash);
 800155e:	4a28      	ldr	r2, [pc, #160]	@ (8001600 <HAL_FLASH_Program+0xa8>)
 8001560:	7812      	ldrb	r2, [r2, #0]
 8001562:	2a01      	cmp	r2, #1
 8001564:	d049      	beq.n	80015fa <HAL_FLASH_Program+0xa2>
 8001566:	4604      	mov	r4, r0
 8001568:	460d      	mov	r5, r1
 800156a:	4698      	mov	r8, r3
 800156c:	4b24      	ldr	r3, [pc, #144]	@ (8001600 <HAL_FLASH_Program+0xa8>)
 800156e:	2201      	movs	r2, #1
 8001570:	701a      	strb	r2, [r3, #0]
  status = FLASH_WaitForLastOperation((uint32_t)FLASH_TIMEOUT_VALUE);
 8001572:	f24c 3050 	movw	r0, #50000	@ 0xc350
 8001576:	f7ff ffbb 	bl	80014f0 <FLASH_WaitForLastOperation>
  if(status == HAL_OK)
 800157a:	4607      	mov	r7, r0
 800157c:	bb08      	cbnz	r0, 80015c2 <HAL_FLASH_Program+0x6a>
    pFlash.ErrorCode = HAL_FLASH_ERROR_NONE;
 800157e:	4b20      	ldr	r3, [pc, #128]	@ (8001600 <HAL_FLASH_Program+0xa8>)
 8001580:	2200      	movs	r2, #0
 8001582:	605a      	str	r2, [r3, #4]
    if(READ_BIT(FLASH->ACR, FLASH_ACR_DCEN) != 0U)
 8001584:	4b1f      	ldr	r3, [pc, #124]	@ (8001604 <HAL_FLASH_Program+0xac>)
 8001586:	681b      	ldr	r3, [r3, #0]
 8001588:	f413 6f80 	tst.w	r3, #1024	@ 0x400
 800158c:	d01f      	beq.n	80015ce <HAL_FLASH_Program+0x76>
      __HAL_FLASH_DATA_CACHE_DISABLE();
 800158e:	4a1d      	ldr	r2, [pc, #116]	@ (8001604 <HAL_FLASH_Program+0xac>)
 8001590:	6813      	ldr	r3, [r2, #0]
 8001592:	f423 6380 	bic.w	r3, r3, #1024	@ 0x400
 8001596:	6013      	str	r3, [r2, #0]
      pFlash.CacheToReactivate = FLASH_CACHE_DCACHE_ENABLED;
 8001598:	4b19      	ldr	r3, [pc, #100]	@ (8001600 <HAL_FLASH_Program+0xa8>)
 800159a:	2202      	movs	r2, #2
 800159c:	771a      	strb	r2, [r3, #28]
    if(TypeProgram == FLASH_TYPEPROGRAM_DOUBLEWORD)
 800159e:	b1d4      	cbz	r4, 80015d6 <HAL_FLASH_Program+0x7e>
    else if((TypeProgram == FLASH_TYPEPROGRAM_FAST) || (TypeProgram == FLASH_TYPEPROGRAM_FAST_AND_LAST))
 80015a0:	1e63      	subs	r3, r4, #1
 80015a2:	2b01      	cmp	r3, #1
 80015a4:	d91e      	bls.n	80015e4 <HAL_FLASH_Program+0x8c>
  uint32_t prog_bit = 0;
 80015a6:	2400      	movs	r4, #0
    status = FLASH_WaitForLastOperation((uint32_t)FLASH_TIMEOUT_VALUE);
 80015a8:	f24c 3050 	movw	r0, #50000	@ 0xc350
 80015ac:	f7ff ffa0 	bl	80014f0 <FLASH_WaitForLastOperation>
 80015b0:	4607      	mov	r7, r0
    if (prog_bit != 0U)
 80015b2:	b124      	cbz	r4, 80015be <HAL_FLASH_Program+0x66>
      CLEAR_BIT(FLASH->CR, prog_bit);
 80015b4:	4a13      	ldr	r2, [pc, #76]	@ (8001604 <HAL_FLASH_Program+0xac>)
 80015b6:	6953      	ldr	r3, [r2, #20]
 80015b8:	ea23 0304 	bic.w	r3, r3, r4
 80015bc:	6153      	str	r3, [r2, #20]
    FLASH_FlushCaches();
 80015be:	f000 f847 	bl	8001650 <FLASH_FlushCaches>
  __HAL_UNLOCK(&pFlash);
 80015c2:	4b0f      	ldr	r3, [pc, #60]	@ (8001600 <HAL_FLASH_Program+0xa8>)
 80015c4:	2200      	movs	r2, #0
 80015c6:	701a      	strb	r2, [r3, #0]
}
 80015c8:	4638      	mov	r0, r7
 80015ca:	e8bd 81f0 	ldmia.w	sp!, {r4, r5, r6, r7, r8, pc}
      pFlash.CacheToReactivate = FLASH_CACHE_DISABLED;
 80015ce:	4b0c      	ldr	r3, [pc, #48]	@ (8001600 <HAL_FLASH_Program+0xa8>)
 80015d0:	2200      	movs	r2, #0
 80015d2:	771a      	strb	r2, [r3, #28]
 80015d4:	e7e3      	b.n	800159e <HAL_FLASH_Program+0x46>
      FLASH_Program_DoubleWord(Address, Data);
 80015d6:	4632      	mov	r2, r6
 80015d8:	4643      	mov	r3, r8
 80015da:	4628      	mov	r0, r5
 80015dc:	f7ff ff40 	bl	8001460 <FLASH_Program_DoubleWord>
      prog_bit = FLASH_CR_PG;
 80015e0:	2401      	movs	r4, #1
 80015e2:	e7e1      	b.n	80015a8 <HAL_FLASH_Program+0x50>
      FLASH_Program_Fast(Address, (uint32_t)Data);
 80015e4:	4631      	mov	r1, r6
 80015e6:	4628      	mov	r0, r5
 80015e8:	f7ff ff4a 	bl	8001480 <FLASH_Program_Fast>
      if(TypeProgram == FLASH_TYPEPROGRAM_FAST_AND_LAST)
 80015ec:	2c02      	cmp	r4, #2
 80015ee:	d001      	beq.n	80015f4 <HAL_FLASH_Program+0x9c>
  uint32_t prog_bit = 0;
 80015f0:	2400      	movs	r4, #0
 80015f2:	e7d9      	b.n	80015a8 <HAL_FLASH_Program+0x50>
        prog_bit = FLASH_CR_FSTPG;
 80015f4:	f44f 2480 	mov.w	r4, #262144	@ 0x40000
 80015f8:	e7d6      	b.n	80015a8 <HAL_FLASH_Program+0x50>
  __HAL_LOCK(&pFlash);
 80015fa:	2702      	movs	r7, #2
 80015fc:	e7e4      	b.n	80015c8 <HAL_FLASH_Program+0x70>
 80015fe:	bf00      	nop
 8001600:	20000008 	.word	0x20000008
 8001604:	40022000 	.word	0x40022000

08001608 <FLASH_MassErase>:
  {
    /* Check the parameters */
    assert_param(IS_FLASH_BANK(Banks));

    /* Set the Mass Erase Bit for the bank 1 if requested */
    if((Banks & FLASH_BANK_1) != 0U)
 8001608:	f010 0f01 	tst.w	r0, #1
 800160c:	d004      	beq.n	8001618 <FLASH_MassErase+0x10>
    {
      SET_BIT(FLASH->CR, FLASH_CR_MER1);
 800160e:	4a05      	ldr	r2, [pc, #20]	@ (8001624 <FLASH_MassErase+0x1c>)
 8001610:	6953      	ldr	r3, [r2, #20]
 8001612:	f043 0304 	orr.w	r3, r3, #4
 8001616:	6153      	str	r3, [r2, #20]
    SET_BIT(FLASH->CR, (FLASH_CR_MER1 | FLASH_CR_MER2));
  }
#endif

  /* Proceed to erase all sectors */
  SET_BIT(FLASH->CR, FLASH_CR_STRT);
 8001618:	4a02      	ldr	r2, [pc, #8]	@ (8001624 <FLASH_MassErase+0x1c>)
 800161a:	6953      	ldr	r3, [r2, #20]
 800161c:	f443 3380 	orr.w	r3, r3, #65536	@ 0x10000
 8001620:	6153      	str	r3, [r2, #20]
}
 8001622:	4770      	bx	lr
 8001624:	40022000 	.word	0x40022000

08001628 <FLASH_PageErase>:
  /* Prevent unused argument(s) compilation warning */
  UNUSED(Banks);
#endif

  /* Proceed to erase the page */
  MODIFY_REG(FLASH->CR, FLASH_CR_PNB, ((Page & 0xFFU) << FLASH_CR_PNB_Pos));
 8001628:	4b08      	ldr	r3, [pc, #32]	@ (800164c <FLASH_PageErase+0x24>)
 800162a:	695a      	ldr	r2, [r3, #20]
 800162c:	f422 727e 	bic.w	r2, r2, #1016	@ 0x3f8
 8001630:	00c0      	lsls	r0, r0, #3
 8001632:	f400 60ff 	and.w	r0, r0, #2040	@ 0x7f8
 8001636:	4302      	orrs	r2, r0
 8001638:	615a      	str	r2, [r3, #20]
  SET_BIT(FLASH->CR, FLASH_CR_PER);
 800163a:	695a      	ldr	r2, [r3, #20]
 800163c:	f042 0202 	orr.w	r2, r2, #2
 8001640:	615a      	str	r2, [r3, #20]
  SET_BIT(FLASH->CR, FLASH_CR_STRT);
 8001642:	695a      	ldr	r2, [r3, #20]
 8001644:	f442 3280 	orr.w	r2, r2, #65536	@ 0x10000
 8001648:	615a      	str	r2, [r3, #20]
}
 800164a:	4770      	bx	lr
 800164c:	40022000 	.word	0x40022000

08001650 <FLASH_FlushCaches>:
  * @brief  Flush the instruction and data caches.
  * @retval None
  */
void FLASH_FlushCaches(void)
{
  FLASH_CacheTypeDef cache = pFlash.CacheToReactivate;
 8001650:	4b16      	ldr	r3, [pc, #88]	@ (80016ac <FLASH_FlushCaches+0x5c>)
 8001652:	7f1a      	ldrb	r2, [r3, #28]
 8001654:	b2d3      	uxtb	r3, r2

  /* Flush instruction cache  */
  if((cache == FLASH_CACHE_ICACHE_ENABLED) ||
 8001656:	2a01      	cmp	r2, #1
 8001658:	d001      	beq.n	800165e <FLASH_FlushCaches+0xe>
 800165a:	2b03      	cmp	r3, #3
 800165c:	d110      	bne.n	8001680 <FLASH_FlushCaches+0x30>
     (cache == FLASH_CACHE_ICACHE_DCACHE_ENABLED))
  {
    /* Disable instruction cache */
    __HAL_FLASH_INSTRUCTION_CACHE_DISABLE();
 800165e:	4a14      	ldr	r2, [pc, #80]	@ (80016b0 <FLASH_FlushCaches+0x60>)
 8001660:	6811      	ldr	r1, [r2, #0]
 8001662:	f421 7100 	bic.w	r1, r1, #512	@ 0x200
 8001666:	6011      	str	r1, [r2, #0]
    /* Reset instruction cache */
    __HAL_FLASH_INSTRUCTION_CACHE_RESET();
 8001668:	6811      	ldr	r1, [r2, #0]
 800166a:	f441 6100 	orr.w	r1, r1, #2048	@ 0x800
 800166e:	6011      	str	r1, [r2, #0]
 8001670:	6811      	ldr	r1, [r2, #0]
 8001672:	f421 6100 	bic.w	r1, r1, #2048	@ 0x800
 8001676:	6011      	str	r1, [r2, #0]
    /* Enable instruction cache */
    __HAL_FLASH_INSTRUCTION_CACHE_ENABLE();
 8001678:	6811      	ldr	r1, [r2, #0]
 800167a:	f441 7100 	orr.w	r1, r1, #512	@ 0x200
 800167e:	6011      	str	r1, [r2, #0]
  }

  /* Flush data cache */
  if((cache == FLASH_CACHE_DCACHE_ENABLED) ||
 8001680:	3b02      	subs	r3, #2
 8001682:	b2db      	uxtb	r3, r3
 8001684:	2b01      	cmp	r3, #1
 8001686:	d903      	bls.n	8001690 <FLASH_FlushCaches+0x40>
    /* Enable data cache */
    __HAL_FLASH_DATA_CACHE_ENABLE();
  }

  /* Reset internal variable */
  pFlash.CacheToReactivate = FLASH_CACHE_DISABLED;
 8001688:	4b08      	ldr	r3, [pc, #32]	@ (80016ac <FLASH_FlushCaches+0x5c>)
 800168a:	2200      	movs	r2, #0
 800168c:	771a      	strb	r2, [r3, #28]
}
 800168e:	4770      	bx	lr
    __HAL_FLASH_DATA_CACHE_RESET();
 8001690:	4b07      	ldr	r3, [pc, #28]	@ (80016b0 <FLASH_FlushCaches+0x60>)
 8001692:	681a      	ldr	r2, [r3, #0]
 8001694:	f442 5280 	orr.w	r2, r2, #4096	@ 0x1000
 8001698:	601a      	str	r2, [r3, #0]
 800169a:	681a      	ldr	r2, [r3, #0]
 800169c:	f422 5280 	bic.w	r2, r2, #4096	@ 0x1000
 80016a0:	601a      	str	r2, [r3, #0]
    __HAL_FLASH_DATA_CACHE_ENABLE();
 80016a2:	681a      	ldr	r2, [r3, #0]
 80016a4:	f442 6280 	orr.w	r2, r2, #1024	@ 0x400
 80016a8:	601a      	str	r2, [r3, #0]
 80016aa:	e7ed      	b.n	8001688 <FLASH_FlushCaches+0x38>
 80016ac:	20000008 	.word	0x20000008
 80016b0:	40022000 	.word	0x40022000

080016b4 <HAL_FLASHEx_Erase>:
{
 80016b4:	b5f8      	push	{r3, r4, r5, r6, r7, lr}
  __HAL_LOCK(&pFlash);
 80016b6:	4b39      	ldr	r3, [pc, #228]	@ (800179c <HAL_FLASHEx_Erase+0xe8>)
 80016b8:	781b      	ldrb	r3, [r3, #0]
 80016ba:	2b01      	cmp	r3, #1
 80016bc:	d06b      	beq.n	8001796 <HAL_FLASHEx_Erase+0xe2>
 80016be:	4604      	mov	r4, r0
 80016c0:	460e      	mov	r6, r1
 80016c2:	4b36      	ldr	r3, [pc, #216]	@ (800179c <HAL_FLASHEx_Erase+0xe8>)
 80016c4:	2201      	movs	r2, #1
 80016c6:	701a      	strb	r2, [r3, #0]
  status = FLASH_WaitForLastOperation((uint32_t)FLASH_TIMEOUT_VALUE);
 80016c8:	f24c 3050 	movw	r0, #50000	@ 0xc350
 80016cc:	f7ff ff10 	bl	80014f0 <FLASH_WaitForLastOperation>
  if (status == HAL_OK)
 80016d0:	4607      	mov	r7, r0
 80016d2:	2800      	cmp	r0, #0
 80016d4:	d15a      	bne.n	800178c <HAL_FLASHEx_Erase+0xd8>
    pFlash.ErrorCode = HAL_FLASH_ERROR_NONE;
 80016d6:	4b31      	ldr	r3, [pc, #196]	@ (800179c <HAL_FLASHEx_Erase+0xe8>)
 80016d8:	2200      	movs	r2, #0
 80016da:	605a      	str	r2, [r3, #4]
    if(READ_BIT(FLASH->ACR, FLASH_ACR_ICEN) != 0U)
 80016dc:	4b30      	ldr	r3, [pc, #192]	@ (80017a0 <HAL_FLASHEx_Erase+0xec>)
 80016de:	681b      	ldr	r3, [r3, #0]
 80016e0:	f413 7f00 	tst.w	r3, #512	@ 0x200
 80016e4:	d02f      	beq.n	8001746 <HAL_FLASHEx_Erase+0x92>
      if(READ_BIT(FLASH->ACR, FLASH_ACR_DCEN) != 0U)
 80016e6:	4b2e      	ldr	r3, [pc, #184]	@ (80017a0 <HAL_FLASHEx_Erase+0xec>)
 80016e8:	681b      	ldr	r3, [r3, #0]
 80016ea:	f413 6f80 	tst.w	r3, #1024	@ 0x400
 80016ee:	d026      	beq.n	800173e <HAL_FLASHEx_Erase+0x8a>
        __HAL_FLASH_DATA_CACHE_DISABLE();
 80016f0:	4a2b      	ldr	r2, [pc, #172]	@ (80017a0 <HAL_FLASHEx_Erase+0xec>)
 80016f2:	6813      	ldr	r3, [r2, #0]
 80016f4:	f423 6380 	bic.w	r3, r3, #1024	@ 0x400
 80016f8:	6013      	str	r3, [r2, #0]
        pFlash.CacheToReactivate = FLASH_CACHE_ICACHE_DCACHE_ENABLED;
 80016fa:	4b28      	ldr	r3, [pc, #160]	@ (800179c <HAL_FLASHEx_Erase+0xe8>)
 80016fc:	2203      	movs	r2, #3
 80016fe:	771a      	strb	r2, [r3, #28]
    if (pEraseInit->TypeErase == FLASH_TYPEERASE_MASSERASE)
 8001700:	6823      	ldr	r3, [r4, #0]
 8001702:	2b01      	cmp	r3, #1
 8001704:	d031      	beq.n	800176a <HAL_FLASHEx_Erase+0xb6>
      *PageError = 0xFFFFFFFFU;
 8001706:	f04f 33ff 	mov.w	r3, #4294967295
 800170a:	6033      	str	r3, [r6, #0]
      for(page_index = pEraseInit->Page; page_index < (pEraseInit->Page + pEraseInit->NbPages); page_index++)
 800170c:	68a5      	ldr	r5, [r4, #8]
 800170e:	68a3      	ldr	r3, [r4, #8]
 8001710:	68e2      	ldr	r2, [r4, #12]
 8001712:	4413      	add	r3, r2
 8001714:	42ab      	cmp	r3, r5
 8001716:	d937      	bls.n	8001788 <HAL_FLASHEx_Erase+0xd4>
        FLASH_PageErase(page_index, pEraseInit->Banks);
 8001718:	6861      	ldr	r1, [r4, #4]
 800171a:	4628      	mov	r0, r5
 800171c:	f7ff ff84 	bl	8001628 <FLASH_PageErase>
        status = FLASH_WaitForLastOperation((uint32_t)FLASH_TIMEOUT_VALUE);
 8001720:	f24c 3050 	movw	r0, #50000	@ 0xc350
 8001724:	f7ff fee4 	bl	80014f0 <FLASH_WaitForLastOperation>
        CLEAR_BIT(FLASH->CR, (FLASH_CR_PER | FLASH_CR_PNB));
 8001728:	4a1d      	ldr	r2, [pc, #116]	@ (80017a0 <HAL_FLASHEx_Erase+0xec>)
 800172a:	6953      	ldr	r3, [r2, #20]
 800172c:	f423 737e 	bic.w	r3, r3, #1016	@ 0x3f8
 8001730:	f023 0302 	bic.w	r3, r3, #2
 8001734:	6153      	str	r3, [r2, #20]
        if (status != HAL_OK)
 8001736:	4607      	mov	r7, r0
 8001738:	bb28      	cbnz	r0, 8001786 <HAL_FLASHEx_Erase+0xd2>
      for(page_index = pEraseInit->Page; page_index < (pEraseInit->Page + pEraseInit->NbPages); page_index++)
 800173a:	3501      	adds	r5, #1
 800173c:	e7e7      	b.n	800170e <HAL_FLASHEx_Erase+0x5a>
        pFlash.CacheToReactivate = FLASH_CACHE_ICACHE_ENABLED;
 800173e:	4b17      	ldr	r3, [pc, #92]	@ (800179c <HAL_FLASHEx_Erase+0xe8>)
 8001740:	2201      	movs	r2, #1
 8001742:	771a      	strb	r2, [r3, #28]
 8001744:	e7dc      	b.n	8001700 <HAL_FLASHEx_Erase+0x4c>
    else if(READ_BIT(FLASH->ACR, FLASH_ACR_DCEN) != 0U)
 8001746:	4b16      	ldr	r3, [pc, #88]	@ (80017a0 <HAL_FLASHEx_Erase+0xec>)
 8001748:	681b      	ldr	r3, [r3, #0]
 800174a:	f413 6f80 	tst.w	r3, #1024	@ 0x400
 800174e:	d008      	beq.n	8001762 <HAL_FLASHEx_Erase+0xae>
      __HAL_FLASH_DATA_CACHE_DISABLE();
 8001750:	4a13      	ldr	r2, [pc, #76]	@ (80017a0 <HAL_FLASHEx_Erase+0xec>)
 8001752:	6813      	ldr	r3, [r2, #0]
 8001754:	f423 6380 	bic.w	r3, r3, #1024	@ 0x400
 8001758:	6013      	str	r3, [r2, #0]
      pFlash.CacheToReactivate = FLASH_CACHE_DCACHE_ENABLED;
 800175a:	4b10      	ldr	r3, [pc, #64]	@ (800179c <HAL_FLASHEx_Erase+0xe8>)
 800175c:	2202      	movs	r2, #2
 800175e:	771a      	strb	r2, [r3, #28]
 8001760:	e7ce      	b.n	8001700 <HAL_FLASHEx_Erase+0x4c>
      pFlash.CacheToReactivate = FLASH_CACHE_DISABLED;
 8001762:	4b0e      	ldr	r3, [pc, #56]	@ (800179c <HAL_FLASHEx_Erase+0xe8>)
 8001764:	2200      	movs	r2, #0
 8001766:	771a      	strb	r2, [r3, #28]
 8001768:	e7ca      	b.n	8001700 <HAL_FLASHEx_Erase+0x4c>
      FLASH_MassErase(pEraseInit->Banks);
 800176a:	6860      	ldr	r0, [r4, #4]
 800176c:	f7ff ff4c 	bl	8001608 <FLASH_MassErase>
      status = FLASH_WaitForLastOperation((uint32_t)FLASH_TIMEOUT_VALUE);
 8001770:	f24c 3050 	movw	r0, #50000	@ 0xc350
 8001774:	f7ff febc 	bl	80014f0 <FLASH_WaitForLastOperation>
 8001778:	4607      	mov	r7, r0
      CLEAR_BIT(FLASH->CR, (FLASH_CR_MER1));
 800177a:	4a09      	ldr	r2, [pc, #36]	@ (80017a0 <HAL_FLASHEx_Erase+0xec>)
 800177c:	6953      	ldr	r3, [r2, #20]
 800177e:	f023 0304 	bic.w	r3, r3, #4
 8001782:	6153      	str	r3, [r2, #20]
 8001784:	e000      	b.n	8001788 <HAL_FLASHEx_Erase+0xd4>
          *PageError = page_index;
 8001786:	6035      	str	r5, [r6, #0]
    FLASH_FlushCaches();
 8001788:	f7ff ff62 	bl	8001650 <FLASH_FlushCaches>
  __HAL_UNLOCK(&pFlash);
 800178c:	4b03      	ldr	r3, [pc, #12]	@ (800179c <HAL_FLASHEx_Erase+0xe8>)
 800178e:	2200      	movs	r2, #0
 8001790:	701a      	strb	r2, [r3, #0]
}
 8001792:	4638      	mov	r0, r7
 8001794:	bdf8      	pop	{r3, r4, r5, r6, r7, pc}
  __HAL_LOCK(&pFlash);
 8001796:	2702      	movs	r7, #2
 8001798:	e7fb      	b.n	8001792 <HAL_FLASHEx_Erase+0xde>
 800179a:	bf00      	nop
 800179c:	20000008 	.word	0x20000008
 80017a0:	40022000 	.word	0x40022000

080017a4 <HAL_GPIO_Init>:
  * @param  GPIO_Init pointer to a GPIO_InitTypeDef structure that contains
  *         the configuration information for the specified GPIO peripheral.
  * @retval None
  */
void HAL_GPIO_Init(GPIO_TypeDef  *GPIOx, GPIO_InitTypeDef *GPIO_Init)
{
 80017a4:	b5f0      	push	{r4, r5, r6, r7, lr}
 80017a6:	b083      	sub	sp, #12
  uint32_t position = 0x00u;
 80017a8:	2300      	movs	r3, #0
  assert_param(IS_GPIO_ALL_INSTANCE(GPIOx));
  assert_param(IS_GPIO_PIN(GPIO_Init->Pin));
  assert_param(IS_GPIO_MODE(GPIO_Init->Mode));

  /* Configure the port pins */
  while (((GPIO_Init->Pin) >> position) != 0x00u)
 80017aa:	e062      	b.n	8001872 <HAL_GPIO_Init+0xce>
      {
        /* Check the Speed parameter */
        assert_param(IS_GPIO_SPEED(GPIO_Init->Speed));

        /* Configure the IO Speed */
        temp = GPIOx->OSPEEDR;
 80017ac:	6885      	ldr	r5, [r0, #8]
        temp &= ~(GPIO_OSPEEDR_OSPEED0 << (position * 2u));
 80017ae:	005e      	lsls	r6, r3, #1
 80017b0:	2403      	movs	r4, #3
 80017b2:	40b4      	lsls	r4, r6
 80017b4:	ea25 0504 	bic.w	r5, r5, r4
        temp |= (GPIO_Init->Speed << (position * 2u));
 80017b8:	68cc      	ldr	r4, [r1, #12]
 80017ba:	40b4      	lsls	r4, r6
 80017bc:	432c      	orrs	r4, r5
        GPIOx->OSPEEDR = temp;
 80017be:	6084      	str	r4, [r0, #8]

        /* Configure the IO Output Type */
        temp = GPIOx->OTYPER;
 80017c0:	6845      	ldr	r5, [r0, #4]
        temp &= ~(GPIO_OTYPER_OT0 << position) ;
 80017c2:	ea25 050c 	bic.w	r5, r5, ip
        temp |= (((GPIO_Init->Mode & OUTPUT_TYPE) >> OUTPUT_TYPE_Pos) << position);
 80017c6:	684c      	ldr	r4, [r1, #4]
 80017c8:	f3c4 1400 	ubfx	r4, r4, #4, #1
 80017cc:	409c      	lsls	r4, r3
 80017ce:	432c      	orrs	r4, r5
        GPIOx->OTYPER = temp;
 80017d0:	6044      	str	r4, [r0, #4]
 80017d2:	e05f      	b.n	8001894 <HAL_GPIO_Init+0xf0>
        /* Check the Alternate function parameters */
        assert_param(IS_GPIO_AF_INSTANCE(GPIOx));
        assert_param(IS_GPIO_AF(GPIO_Init->Alternate));

        /* Configure Alternate function mapped with the current IO */
        temp = GPIOx->AFR[position >> 3u];
 80017d4:	08dd      	lsrs	r5, r3, #3
 80017d6:	3508      	adds	r5, #8
 80017d8:	f850 4025 	ldr.w	r4, [r0, r5, lsl #2]
        temp &= ~(0xFu << ((position & 0x07u) * 4u));
 80017dc:	f003 0c07 	and.w	ip, r3, #7
 80017e0:	ea4f 0c8c 	mov.w	ip, ip, lsl #2
 80017e4:	f04f 0e0f 	mov.w	lr, #15
 80017e8:	fa0e fe0c 	lsl.w	lr, lr, ip
 80017ec:	ea24 0e0e 	bic.w	lr, r4, lr
        temp |= ((GPIO_Init->Alternate) << ((position & 0x07u) * 4u));
 80017f0:	690c      	ldr	r4, [r1, #16]
 80017f2:	fa04 f40c 	lsl.w	r4, r4, ip
 80017f6:	ea44 040e 	orr.w	r4, r4, lr
        GPIOx->AFR[position >> 3u] = temp;
 80017fa:	f840 4025 	str.w	r4, [r0, r5, lsl #2]
 80017fe:	e060      	b.n	80018c2 <HAL_GPIO_Init+0x11e>
        /* Enable SYSCFG Clock */
        __HAL_RCC_SYSCFG_CLK_ENABLE();

        temp = SYSCFG->EXTICR[position >> 2u];
        temp &= ~(0x0FuL << (4u * (position & 0x03u)));
        temp |= (GPIO_GET_INDEX(GPIOx) << (4u * (position & 0x03u)));
 8001800:	2402      	movs	r4, #2
 8001802:	e000      	b.n	8001806 <HAL_GPIO_Init+0x62>
 8001804:	2400      	movs	r4, #0
 8001806:	fa04 f40e 	lsl.w	r4, r4, lr
 800180a:	432c      	orrs	r4, r5
        SYSCFG->EXTICR[position >> 2u] = temp;
 800180c:	f10c 0c02 	add.w	ip, ip, #2
 8001810:	4d4c      	ldr	r5, [pc, #304]	@ (8001944 <HAL_GPIO_Init+0x1a0>)
 8001812:	f845 402c 	str.w	r4, [r5, ip, lsl #2]

        /* Clear Rising Falling edge configuration */
        temp = EXTI->RTSR1;
 8001816:	4c4c      	ldr	r4, [pc, #304]	@ (8001948 <HAL_GPIO_Init+0x1a4>)
 8001818:	68a5      	ldr	r5, [r4, #8]
        temp &= ~(iocurrent);
 800181a:	43d4      	mvns	r4, r2
 800181c:	ea25 0602 	bic.w	r6, r5, r2
        if ((GPIO_Init->Mode & TRIGGER_RISING) != 0x00u)
 8001820:	684f      	ldr	r7, [r1, #4]
 8001822:	f417 1f80 	tst.w	r7, #1048576	@ 0x100000
 8001826:	d001      	beq.n	800182c <HAL_GPIO_Init+0x88>
        {
          temp |= iocurrent;
 8001828:	ea42 0605 	orr.w	r6, r2, r5
        }
        EXTI->RTSR1 = temp;
 800182c:	4d46      	ldr	r5, [pc, #280]	@ (8001948 <HAL_GPIO_Init+0x1a4>)
 800182e:	60ae      	str	r6, [r5, #8]

        temp = EXTI->FTSR1;
 8001830:	68ed      	ldr	r5, [r5, #12]
        temp &= ~(iocurrent);
 8001832:	ea04 0605 	and.w	r6, r4, r5
        if ((GPIO_Init->Mode & TRIGGER_FALLING) != 0x00u)
 8001836:	684f      	ldr	r7, [r1, #4]
 8001838:	f417 1f00 	tst.w	r7, #2097152	@ 0x200000
 800183c:	d001      	beq.n	8001842 <HAL_GPIO_Init+0x9e>
        {
          temp |= iocurrent;
 800183e:	ea42 0605 	orr.w	r6, r2, r5
        }
        EXTI->FTSR1 = temp;
 8001842:	4d41      	ldr	r5, [pc, #260]	@ (8001948 <HAL_GPIO_Init+0x1a4>)
 8001844:	60ee      	str	r6, [r5, #12]

        /* Clear EXTI line configuration */
        temp = EXTI->EMR1;
 8001846:	686d      	ldr	r5, [r5, #4]
        temp &= ~(iocurrent);
 8001848:	ea04 0605 	and.w	r6, r4, r5
        if ((GPIO_Init->Mode & EXTI_EVT) != 0x00u)
 800184c:	684f      	ldr	r7, [r1, #4]
 800184e:	f417 3f00 	tst.w	r7, #131072	@ 0x20000
 8001852:	d001      	beq.n	8001858 <HAL_GPIO_Init+0xb4>
        {
          temp |= iocurrent;
 8001854:	ea42 0605 	orr.w	r6, r2, r5
        }
        EXTI->EMR1 = temp;
 8001858:	4d3b      	ldr	r5, [pc, #236]	@ (8001948 <HAL_GPIO_Init+0x1a4>)
 800185a:	606e      	str	r6, [r5, #4]

        temp = EXTI->IMR1;
 800185c:	682d      	ldr	r5, [r5, #0]
        temp &= ~(iocurrent);
 800185e:	402c      	ands	r4, r5
        if ((GPIO_Init->Mode & EXTI_IT) != 0x00u)
 8001860:	684e      	ldr	r6, [r1, #4]
 8001862:	f416 3f80 	tst.w	r6, #65536	@ 0x10000
 8001866:	d001      	beq.n	800186c <HAL_GPIO_Init+0xc8>
        {
          temp |= iocurrent;
 8001868:	ea42 0405 	orr.w	r4, r2, r5
        }
        EXTI->IMR1 = temp;
 800186c:	4a36      	ldr	r2, [pc, #216]	@ (8001948 <HAL_GPIO_Init+0x1a4>)
 800186e:	6014      	str	r4, [r2, #0]
      }
    }

    position++;
 8001870:	3301      	adds	r3, #1
  while (((GPIO_Init->Pin) >> position) != 0x00u)
 8001872:	680a      	ldr	r2, [r1, #0]
 8001874:	fa32 f403 	lsrs.w	r4, r2, r3
 8001878:	d062      	beq.n	8001940 <HAL_GPIO_Init+0x19c>
    iocurrent = (GPIO_Init->Pin) & (1uL << position);
 800187a:	f04f 0c01 	mov.w	ip, #1
 800187e:	fa0c fc03 	lsl.w	ip, ip, r3
    if (iocurrent != 0x00u)
 8001882:	ea1c 0202 	ands.w	r2, ip, r2
 8001886:	d0f3      	beq.n	8001870 <HAL_GPIO_Init+0xcc>
      if (((GPIO_Init->Mode & GPIO_MODE) == MODE_OUTPUT) || ((GPIO_Init->Mode & GPIO_MODE) == MODE_AF))
 8001888:	684c      	ldr	r4, [r1, #4]
 800188a:	f004 0403 	and.w	r4, r4, #3
 800188e:	3c01      	subs	r4, #1
 8001890:	2c01      	cmp	r4, #1
 8001892:	d98b      	bls.n	80017ac <HAL_GPIO_Init+0x8>
      if ((GPIO_Init->Mode & GPIO_MODE) != MODE_ANALOG)
 8001894:	684c      	ldr	r4, [r1, #4]
 8001896:	f004 0403 	and.w	r4, r4, #3
 800189a:	2c03      	cmp	r4, #3
 800189c:	d00c      	beq.n	80018b8 <HAL_GPIO_Init+0x114>
        temp = GPIOx->PUPDR;
 800189e:	68c4      	ldr	r4, [r0, #12]
        temp &= ~(GPIO_PUPDR_PUPD0 << (position * 2U));
 80018a0:	005d      	lsls	r5, r3, #1
 80018a2:	f04f 0c03 	mov.w	ip, #3
 80018a6:	fa0c fc05 	lsl.w	ip, ip, r5
 80018aa:	ea24 0c0c 	bic.w	ip, r4, ip
        temp |= ((GPIO_Init->Pull) << (position * 2U));
 80018ae:	688c      	ldr	r4, [r1, #8]
 80018b0:	40ac      	lsls	r4, r5
 80018b2:	ea44 040c 	orr.w	r4, r4, ip
        GPIOx->PUPDR = temp;
 80018b6:	60c4      	str	r4, [r0, #12]
      if ((GPIO_Init->Mode & GPIO_MODE) == MODE_AF)
 80018b8:	684c      	ldr	r4, [r1, #4]
 80018ba:	f004 0403 	and.w	r4, r4, #3
 80018be:	2c02      	cmp	r4, #2
 80018c0:	d088      	beq.n	80017d4 <HAL_GPIO_Init+0x30>
      temp = GPIOx->MODER;
 80018c2:	6804      	ldr	r4, [r0, #0]
      temp &= ~(GPIO_MODER_MODE0 << (position * 2u));
 80018c4:	ea4f 0e43 	mov.w	lr, r3, lsl #1
 80018c8:	f04f 0c03 	mov.w	ip, #3
 80018cc:	fa0c fc0e 	lsl.w	ip, ip, lr
 80018d0:	ea24 0c0c 	bic.w	ip, r4, ip
      temp |= ((GPIO_Init->Mode & GPIO_MODE) << (position * 2u));
 80018d4:	684c      	ldr	r4, [r1, #4]
 80018d6:	f004 0403 	and.w	r4, r4, #3
 80018da:	fa04 f40e 	lsl.w	r4, r4, lr
 80018de:	ea44 040c 	orr.w	r4, r4, ip
      GPIOx->MODER = temp;
 80018e2:	6004      	str	r4, [r0, #0]
      if ((GPIO_Init->Mode & EXTI_MODE) != 0x00u)
 80018e4:	684c      	ldr	r4, [r1, #4]
 80018e6:	f414 3f40 	tst.w	r4, #196608	@ 0x30000
 80018ea:	d0c1      	beq.n	8001870 <HAL_GPIO_Init+0xcc>
        __HAL_RCC_SYSCFG_CLK_ENABLE();
 80018ec:	4c17      	ldr	r4, [pc, #92]	@ (800194c <HAL_GPIO_Init+0x1a8>)
 80018ee:	6e25      	ldr	r5, [r4, #96]	@ 0x60
 80018f0:	f045 0501 	orr.w	r5, r5, #1
 80018f4:	6625      	str	r5, [r4, #96]	@ 0x60
 80018f6:	6e24      	ldr	r4, [r4, #96]	@ 0x60
 80018f8:	f004 0401 	and.w	r4, r4, #1
 80018fc:	9401      	str	r4, [sp, #4]
 80018fe:	9c01      	ldr	r4, [sp, #4]
        temp = SYSCFG->EXTICR[position >> 2u];
 8001900:	ea4f 0c93 	mov.w	ip, r3, lsr #2
 8001904:	f10c 0502 	add.w	r5, ip, #2
 8001908:	4c0e      	ldr	r4, [pc, #56]	@ (8001944 <HAL_GPIO_Init+0x1a0>)
 800190a:	f854 5025 	ldr.w	r5, [r4, r5, lsl #2]
        temp &= ~(0x0FuL << (4u * (position & 0x03u)));
 800190e:	f003 0e03 	and.w	lr, r3, #3
 8001912:	ea4f 0e8e 	mov.w	lr, lr, lsl #2
 8001916:	240f      	movs	r4, #15
 8001918:	fa04 f40e 	lsl.w	r4, r4, lr
 800191c:	ea25 0504 	bic.w	r5, r5, r4
        temp |= (GPIO_GET_INDEX(GPIOx) << (4u * (position & 0x03u)));
 8001920:	f1b0 4f90 	cmp.w	r0, #1207959552	@ 0x48000000
 8001924:	f43f af6e 	beq.w	8001804 <HAL_GPIO_Init+0x60>
 8001928:	4c09      	ldr	r4, [pc, #36]	@ (8001950 <HAL_GPIO_Init+0x1ac>)
 800192a:	42a0      	cmp	r0, r4
 800192c:	d006      	beq.n	800193c <HAL_GPIO_Init+0x198>
 800192e:	f504 6480 	add.w	r4, r4, #1024	@ 0x400
 8001932:	42a0      	cmp	r0, r4
 8001934:	f43f af64 	beq.w	8001800 <HAL_GPIO_Init+0x5c>
 8001938:	2407      	movs	r4, #7
 800193a:	e764      	b.n	8001806 <HAL_GPIO_Init+0x62>
 800193c:	2401      	movs	r4, #1
 800193e:	e762      	b.n	8001806 <HAL_GPIO_Init+0x62>
  }
}
 8001940:	b003      	add	sp, #12
 8001942:	bdf0      	pop	{r4, r5, r6, r7, pc}
 8001944:	40010000 	.word	0x40010000
 8001948:	40010400 	.word	0x40010400
 800194c:	40021000 	.word	0x40021000
 8001950:	48000400 	.word	0x48000400

08001954 <HAL_GPIO_DeInit>:
  *         This parameter can be any combination of GPIO_PIN_x where x can be (0..15).
  * @retval None
  */
void HAL_GPIO_DeInit(GPIO_TypeDef  *GPIOx, uint32_t GPIO_Pin)
{
  uint32_t position = 0x00u;
 8001954:	2300      	movs	r3, #0
  /* Check the parameters */
  assert_param(IS_GPIO_ALL_INSTANCE(GPIOx));
  assert_param(IS_GPIO_PIN(GPIO_Pin));

  /* Configure the port pins */
  while ((GPIO_Pin >> position) != 0x00u)
 8001956:	fa31 f203 	lsrs.w	r2, r1, r3
 800195a:	d06d      	beq.n	8001a38 <HAL_GPIO_DeInit+0xe4>
{
 800195c:	b5f0      	push	{r4, r5, r6, r7, lr}
 800195e:	e02e      	b.n	80019be <HAL_GPIO_DeInit+0x6a>
      /*------------------------- EXTI Mode Configuration --------------------*/
      /* Clear the External Interrupt or Event for the current IO */

      tmp = SYSCFG->EXTICR[position >> 2u];
      tmp &= (0x0FuL << (4u * (position & 0x03u)));
      if (tmp == (GPIO_GET_INDEX(GPIOx) << (4u * (position & 0x03u))))
 8001960:	2502      	movs	r5, #2
 8001962:	e000      	b.n	8001966 <HAL_GPIO_DeInit+0x12>
 8001964:	2500      	movs	r5, #0
 8001966:	fa05 f50c 	lsl.w	r5, r5, ip
 800196a:	42a5      	cmp	r5, r4
 800196c:	d049      	beq.n	8001a02 <HAL_GPIO_DeInit+0xae>
        SYSCFG->EXTICR[position >> 2u] &= ~tmp;
      }

      /*------------------------- GPIO Mode Configuration --------------------*/
      /* Configure IO in Analog Mode */
      GPIOx->MODER |= (GPIO_MODER_MODE0 << (position * 2u));
 800196e:	6804      	ldr	r4, [r0, #0]
 8001970:	005d      	lsls	r5, r3, #1
 8001972:	f04f 0c03 	mov.w	ip, #3
 8001976:	fa0c fc05 	lsl.w	ip, ip, r5
 800197a:	ea44 040c 	orr.w	r4, r4, ip
 800197e:	6004      	str	r4, [r0, #0]

      /* Configure the default Alternate Function in current IO */
      GPIOx->AFR[position >> 3u] &= ~(0xFu << ((position & 0x07u) * 4u)) ;
 8001980:	ea4f 0ed3 	mov.w	lr, r3, lsr #3
 8001984:	f10e 0e08 	add.w	lr, lr, #8
 8001988:	f850 402e 	ldr.w	r4, [r0, lr, lsl #2]
 800198c:	f003 0607 	and.w	r6, r3, #7
 8001990:	00b6      	lsls	r6, r6, #2
 8001992:	250f      	movs	r5, #15
 8001994:	40b5      	lsls	r5, r6
 8001996:	ea24 0405 	bic.w	r4, r4, r5
 800199a:	f840 402e 	str.w	r4, [r0, lr, lsl #2]

      /* Configure the default value for IO Speed */
      GPIOx->OSPEEDR &= ~(GPIO_OSPEEDR_OSPEED0 << (position * 2u));
 800199e:	6884      	ldr	r4, [r0, #8]
 80019a0:	ea24 040c 	bic.w	r4, r4, ip
 80019a4:	6084      	str	r4, [r0, #8]

      /* Configure the default value IO Output Type */
      GPIOx->OTYPER  &= ~(GPIO_OTYPER_OT0 << position) ;
 80019a6:	6844      	ldr	r4, [r0, #4]
 80019a8:	ea24 0202 	bic.w	r2, r4, r2
 80019ac:	6042      	str	r2, [r0, #4]

      /* Deactivate the Pull-up and Pull-down resistor for the current IO */
      GPIOx->PUPDR &= ~(GPIO_PUPDR_PUPD0 << (position * 2u));
 80019ae:	68c2      	ldr	r2, [r0, #12]
 80019b0:	ea22 020c 	bic.w	r2, r2, ip
 80019b4:	60c2      	str	r2, [r0, #12]
      /* Deactivate the Control bit of Analog mode for the current IO */
      GPIOx->ASCR &= ~(GPIO_ASCR_ASC0<< position);
#endif /* STM32L471xx || STM32L475xx || STM32L476xx || STM32L485xx || STM32L486xx */
    }

    position++;
 80019b6:	3301      	adds	r3, #1
  while ((GPIO_Pin >> position) != 0x00u)
 80019b8:	fa31 f203 	lsrs.w	r2, r1, r3
 80019bc:	d03b      	beq.n	8001a36 <HAL_GPIO_DeInit+0xe2>
    iocurrent = (GPIO_Pin) & (1uL << position);
 80019be:	2201      	movs	r2, #1
 80019c0:	409a      	lsls	r2, r3
    if (iocurrent != 0x00u)
 80019c2:	ea12 0701 	ands.w	r7, r2, r1
 80019c6:	d0f6      	beq.n	80019b6 <HAL_GPIO_DeInit+0x62>
      tmp = SYSCFG->EXTICR[position >> 2u];
 80019c8:	089e      	lsrs	r6, r3, #2
 80019ca:	1cb5      	adds	r5, r6, #2
 80019cc:	4c1b      	ldr	r4, [pc, #108]	@ (8001a3c <HAL_GPIO_DeInit+0xe8>)
 80019ce:	f854 4025 	ldr.w	r4, [r4, r5, lsl #2]
      tmp &= (0x0FuL << (4u * (position & 0x03u)));
 80019d2:	f003 0c03 	and.w	ip, r3, #3
 80019d6:	ea4f 0c8c 	mov.w	ip, ip, lsl #2
 80019da:	f04f 0e0f 	mov.w	lr, #15
 80019de:	fa0e fe0c 	lsl.w	lr, lr, ip
 80019e2:	ea0e 0404 	and.w	r4, lr, r4
      if (tmp == (GPIO_GET_INDEX(GPIOx) << (4u * (position & 0x03u))))
 80019e6:	f1b0 4f90 	cmp.w	r0, #1207959552	@ 0x48000000
 80019ea:	d0bb      	beq.n	8001964 <HAL_GPIO_DeInit+0x10>
 80019ec:	4d14      	ldr	r5, [pc, #80]	@ (8001a40 <HAL_GPIO_DeInit+0xec>)
 80019ee:	42a8      	cmp	r0, r5
 80019f0:	d005      	beq.n	80019fe <HAL_GPIO_DeInit+0xaa>
 80019f2:	f505 6580 	add.w	r5, r5, #1024	@ 0x400
 80019f6:	42a8      	cmp	r0, r5
 80019f8:	d0b2      	beq.n	8001960 <HAL_GPIO_DeInit+0xc>
 80019fa:	2507      	movs	r5, #7
 80019fc:	e7b3      	b.n	8001966 <HAL_GPIO_DeInit+0x12>
 80019fe:	2501      	movs	r5, #1
 8001a00:	e7b1      	b.n	8001966 <HAL_GPIO_DeInit+0x12>
        EXTI->IMR1 &= ~(iocurrent);
 8001a02:	4c10      	ldr	r4, [pc, #64]	@ (8001a44 <HAL_GPIO_DeInit+0xf0>)
 8001a04:	6825      	ldr	r5, [r4, #0]
 8001a06:	ea25 0507 	bic.w	r5, r5, r7
 8001a0a:	6025      	str	r5, [r4, #0]
        EXTI->EMR1 &= ~(iocurrent);
 8001a0c:	6865      	ldr	r5, [r4, #4]
 8001a0e:	ea25 0507 	bic.w	r5, r5, r7
 8001a12:	6065      	str	r5, [r4, #4]
        EXTI->FTSR1 &= ~(iocurrent);
 8001a14:	68e5      	ldr	r5, [r4, #12]
 8001a16:	ea25 0507 	bic.w	r5, r5, r7
 8001a1a:	60e5      	str	r5, [r4, #12]
        EXTI->RTSR1 &= ~(iocurrent);
 8001a1c:	68a5      	ldr	r5, [r4, #8]
 8001a1e:	ea25 0507 	bic.w	r5, r5, r7
 8001a22:	60a5      	str	r5, [r4, #8]
        SYSCFG->EXTICR[position >> 2u] &= ~tmp;
 8001a24:	4d05      	ldr	r5, [pc, #20]	@ (8001a3c <HAL_GPIO_DeInit+0xe8>)
 8001a26:	3602      	adds	r6, #2
 8001a28:	f855 4026 	ldr.w	r4, [r5, r6, lsl #2]
 8001a2c:	ea24 040e 	bic.w	r4, r4, lr
 8001a30:	f845 4026 	str.w	r4, [r5, r6, lsl #2]
 8001a34:	e79b      	b.n	800196e <HAL_GPIO_DeInit+0x1a>
  }
}
 8001a36:	bdf0      	pop	{r4, r5, r6, r7, pc}
 8001a38:	4770      	bx	lr
 8001a3a:	bf00      	nop
 8001a3c:	40010000 	.word	0x40010000
 8001a40:	48000400 	.word	0x48000400
 8001a44:	40010400 	.word	0x40010400

08001a48 <HAL_MspInit>:
/* USER CODE END 0 */
/**
  * Initializes the Global MSP.
  */
void HAL_MspInit(void)
{
 8001a48:	b082      	sub	sp, #8

  /* USER CODE BEGIN MspInit 0 */

  /* USER CODE END MspInit 0 */

  __HAL_RCC_SYSCFG_CLK_ENABLE();
 8001a4a:	4b0a      	ldr	r3, [pc, #40]	@ (8001a74 <HAL_MspInit+0x2c>)
 8001a4c:	6e1a      	ldr	r2, [r3, #96]	@ 0x60
 8001a4e:	f042 0201 	orr.w	r2, r2, #1
 8001a52:	661a      	str	r2, [r3, #96]	@ 0x60
 8001a54:	6e1a      	ldr	r2, [r3, #96]	@ 0x60
 8001a56:	f002 0201 	and.w	r2, r2, #1
 8001a5a:	9200      	str	r2, [sp, #0]
 8001a5c:	9a00      	ldr	r2, [sp, #0]
  __HAL_RCC_PWR_CLK_ENABLE();
 8001a5e:	6d9a      	ldr	r2, [r3, #88]	@ 0x58
 8001a60:	f042 5280 	orr.w	r2, r2, #268435456	@ 0x10000000
 8001a64:	659a      	str	r2, [r3, #88]	@ 0x58
 8001a66:	6d9b      	ldr	r3, [r3, #88]	@ 0x58
 8001a68:	f003 5380 	and.w	r3, r3, #268435456	@ 0x10000000
 8001a6c:	9301      	str	r3, [sp, #4]
 8001a6e:	9b01      	ldr	r3, [sp, #4]
  /* System interrupt init*/

  /* USER CODE BEGIN MspInit 1 */

  /* USER CODE END MspInit 1 */
}
 8001a70:	b002      	add	sp, #8
 8001a72:	4770      	bx	lr
 8001a74:	40021000 	.word	0x40021000

08001a78 <HAL_CAN_MspInit>:
  * This function configures the hardware resources used in this example
  * @param hcan: CAN handle pointer
  * @retval None
  */
void HAL_CAN_MspInit(CAN_HandleTypeDef* hcan)
{
 8001a78:	b500      	push	{lr}
 8001a7a:	b089      	sub	sp, #36	@ 0x24
  GPIO_InitTypeDef GPIO_InitStruct = {0};
 8001a7c:	2300      	movs	r3, #0
 8001a7e:	9303      	str	r3, [sp, #12]
 8001a80:	9304      	str	r3, [sp, #16]
 8001a82:	9305      	str	r3, [sp, #20]
 8001a84:	9306      	str	r3, [sp, #24]
 8001a86:	9307      	str	r3, [sp, #28]
  if(hcan->Instance==CAN1)
 8001a88:	6802      	ldr	r2, [r0, #0]
 8001a8a:	4b24      	ldr	r3, [pc, #144]	@ (8001b1c <HAL_CAN_MspInit+0xa4>)
 8001a8c:	429a      	cmp	r2, r3
 8001a8e:	d002      	beq.n	8001a96 <HAL_CAN_MspInit+0x1e>

    /* USER CODE END CAN1_MspInit 1 */

  }

}
 8001a90:	b009      	add	sp, #36	@ 0x24
 8001a92:	f85d fb04 	ldr.w	pc, [sp], #4
    __HAL_RCC_CAN1_CLK_ENABLE();
 8001a96:	f503 33d6 	add.w	r3, r3, #109568	@ 0x1ac00
 8001a9a:	6d9a      	ldr	r2, [r3, #88]	@ 0x58
 8001a9c:	f042 7200 	orr.w	r2, r2, #33554432	@ 0x2000000
 8001aa0:	659a      	str	r2, [r3, #88]	@ 0x58
 8001aa2:	6d9a      	ldr	r2, [r3, #88]	@ 0x58
 8001aa4:	f002 7200 	and.w	r2, r2, #33554432	@ 0x2000000
 8001aa8:	9201      	str	r2, [sp, #4]
 8001aaa:	9a01      	ldr	r2, [sp, #4]
    __HAL_RCC_GPIOA_CLK_ENABLE();
 8001aac:	6cda      	ldr	r2, [r3, #76]	@ 0x4c
 8001aae:	f042 0201 	orr.w	r2, r2, #1
 8001ab2:	64da      	str	r2, [r3, #76]	@ 0x4c
 8001ab4:	6cdb      	ldr	r3, [r3, #76]	@ 0x4c
 8001ab6:	f003 0301 	and.w	r3, r3, #1
 8001aba:	9302      	str	r3, [sp, #8]
 8001abc:	9b02      	ldr	r3, [sp, #8]
    GPIO_InitStruct.Pin = GPIO_PIN_11|GPIO_PIN_12;
 8001abe:	f44f 53c0 	mov.w	r3, #6144	@ 0x1800
 8001ac2:	9303      	str	r3, [sp, #12]
    GPIO_InitStruct.Mode = GPIO_MODE_AF_PP;
 8001ac4:	2302      	movs	r3, #2
 8001ac6:	9304      	str	r3, [sp, #16]
    GPIO_InitStruct.Speed = GPIO_SPEED_FREQ_VERY_HIGH;
 8001ac8:	2303      	movs	r3, #3
 8001aca:	9306      	str	r3, [sp, #24]
    GPIO_InitStruct.Alternate = GPIO_AF9_CAN1;
 8001acc:	2309      	movs	r3, #9
 8001ace:	9307      	str	r3, [sp, #28]
    HAL_GPIO_Init(GPIOA, &GPIO_InitStruct);
 8001ad0:	a903      	add	r1, sp, #12
 8001ad2:	f04f 4090 	mov.w	r0, #1207959552	@ 0x48000000
 8001ad6:	f7ff fe65 	bl	80017a4 <HAL_GPIO_Init>
    HAL_NVIC_SetPriority(CAN1_RX0_IRQn, 0, 0);
 8001ada:	2200      	movs	r2, #0
 8001adc:	4611      	mov	r1, r2
 8001ade:	2014      	movs	r0, #20
 8001ae0:	f7ff fc92 	bl	8001408 <HAL_NVIC_SetPriority>
    HAL_NVIC_EnableIRQ(CAN1_RX0_IRQn);
 8001ae4:	2014      	movs	r0, #20
 8001ae6:	f7ff fc9f 	bl	8001428 <HAL_NVIC_EnableIRQ>
    HAL_NVIC_SetPriority(CAN1_RX1_IRQn, 0, 0);
 8001aea:	2200      	movs	r2, #0
 8001aec:	4611      	mov	r1, r2
 8001aee:	2015      	movs	r0, #21
 8001af0:	f7ff fc8a 	bl	8001408 <HAL_NVIC_SetPriority>
    HAL_NVIC_EnableIRQ(CAN1_RX1_IRQn);
 8001af4:	2015      	movs	r0, #21
 8001af6:	f7ff fc97 	bl	8001428 <HAL_NVIC_EnableIRQ>
    HAL_NVIC_SetPriority(CAN1_TX_IRQn, 0, 0);
 8001afa:	2200      	movs	r2, #0
 8001afc:	4611      	mov	r1, r2
 8001afe:	2013      	movs	r0, #19
 8001b00:	f7ff fc82 	bl	8001408 <HAL_NVIC_SetPriority>
    HAL_NVIC_EnableIRQ(CAN1_TX_IRQn);
 8001b04:	2013      	movs	r0, #19
 8001b06:	f7ff fc8f 	bl	8001428 <HAL_NVIC_EnableIRQ>
    HAL_NVIC_SetPriority(CAN1_SCE_IRQn, 0, 0);
 8001b0a:	2200      	movs	r2, #0
 8001b0c:	4611      	mov	r1, r2
 8001b0e:	2016      	movs	r0, #22
 8001b10:	f7ff fc7a 	bl	8001408 <HAL_NVIC_SetPriority>
    HAL_NVIC_EnableIRQ(CAN1_SCE_IRQn);
 8001b14:	2016      	movs	r0, #22
 8001b16:	f7ff fc87 	bl	8001428 <HAL_NVIC_EnableIRQ>
}
 8001b1a:	e7b9      	b.n	8001a90 <HAL_CAN_MspInit+0x18>
 8001b1c:	40006400 	.word	0x40006400

08001b20 <HAL_CAN_MspDeInit>:
  * This function freeze the hardware resources used in this example
  * @param hcan: CAN handle pointer
  * @retval None
  */
void HAL_CAN_MspDeInit(CAN_HandleTypeDef* hcan)
{
 8001b20:	b508      	push	{r3, lr}
  if(hcan->Instance==CAN1)
 8001b22:	6802      	ldr	r2, [r0, #0]
 8001b24:	4b0d      	ldr	r3, [pc, #52]	@ (8001b5c <HAL_CAN_MspDeInit+0x3c>)
 8001b26:	429a      	cmp	r2, r3
 8001b28:	d000      	beq.n	8001b2c <HAL_CAN_MspDeInit+0xc>
    HAL_NVIC_DisableIRQ(CAN1_SCE_IRQn);

    /* USER CODE END CAN1_MspDeInit 1 */
  }

}
 8001b2a:	bd08      	pop	{r3, pc}
    __HAL_RCC_CAN1_CLK_DISABLE();
 8001b2c:	4a0c      	ldr	r2, [pc, #48]	@ (8001b60 <HAL_CAN_MspDeInit+0x40>)
 8001b2e:	6d93      	ldr	r3, [r2, #88]	@ 0x58
 8001b30:	f023 7300 	bic.w	r3, r3, #33554432	@ 0x2000000
 8001b34:	6593      	str	r3, [r2, #88]	@ 0x58
    HAL_GPIO_DeInit(GPIOA, GPIO_PIN_11|GPIO_PIN_12);
 8001b36:	f44f 51c0 	mov.w	r1, #6144	@ 0x1800
 8001b3a:	f04f 4090 	mov.w	r0, #1207959552	@ 0x48000000
 8001b3e:	f7ff ff09 	bl	8001954 <HAL_GPIO_DeInit>
    HAL_NVIC_DisableIRQ(CAN1_RX0_IRQn);
 8001b42:	2014      	movs	r0, #20
 8001b44:	f7ff fc74 	bl	8001430 <HAL_NVIC_DisableIRQ>
    HAL_NVIC_DisableIRQ(CAN1_RX1_IRQn);
 8001b48:	2015      	movs	r0, #21
 8001b4a:	f7ff fc71 	bl	8001430 <HAL_NVIC_DisableIRQ>
    HAL_NVIC_DisableIRQ(CAN1_TX_IRQn);
 8001b4e:	2013      	movs	r0, #19
 8001b50:	f7ff fc6e 	bl	8001430 <HAL_NVIC_DisableIRQ>
    HAL_NVIC_DisableIRQ(CAN1_SCE_IRQn);
 8001b54:	2016      	movs	r0, #22
 8001b56:	f7ff fc6b 	bl	8001430 <HAL_NVIC_DisableIRQ>
}
 8001b5a:	e7e6      	b.n	8001b2a <HAL_CAN_MspDeInit+0xa>
 8001b5c:	40006400 	.word	0x40006400
 8001b60:	40021000 	.word	0x40021000

08001b64 <HAL_PWREx_GetVoltageRange>:
    else
    {
      return PWR_REGULATOR_VOLTAGE_SCALE1_BOOST;
    }
#else
  return  (PWR->CR1 & PWR_CR1_VOS);
 8001b64:	4b02      	ldr	r3, [pc, #8]	@ (8001b70 <HAL_PWREx_GetVoltageRange+0xc>)
 8001b66:	6818      	ldr	r0, [r3, #0]
#endif
}
 8001b68:	f400 60c0 	and.w	r0, r0, #1536	@ 0x600
 8001b6c:	4770      	bx	lr
 8001b6e:	bf00      	nop
 8001b70:	40007000 	.word	0x40007000

08001b74 <HAL_PWREx_ControlVoltageScaling>:
  }

#else

  /* If Set Range 1 */
  if (VoltageScaling == PWR_REGULATOR_VOLTAGE_SCALE1)
 8001b74:	f5b0 7f00 	cmp.w	r0, #512	@ 0x200
 8001b78:	d00f      	beq.n	8001b9a <HAL_PWREx_ControlVoltageScaling+0x26>
      }
    }
  }
  else
  {
    if (READ_BIT(PWR->CR1, PWR_CR1_VOS) != PWR_REGULATOR_VOLTAGE_SCALE2)
 8001b7a:	4b1f      	ldr	r3, [pc, #124]	@ (8001bf8 <HAL_PWREx_ControlVoltageScaling+0x84>)
 8001b7c:	681b      	ldr	r3, [r3, #0]
 8001b7e:	f403 63c0 	and.w	r3, r3, #1536	@ 0x600
 8001b82:	f5b3 6f80 	cmp.w	r3, #1024	@ 0x400
 8001b86:	d034      	beq.n	8001bf2 <HAL_PWREx_ControlVoltageScaling+0x7e>
    {
      /* Set Range 2 */
      MODIFY_REG(PWR->CR1, PWR_CR1_VOS, PWR_REGULATOR_VOLTAGE_SCALE2);
 8001b88:	4a1b      	ldr	r2, [pc, #108]	@ (8001bf8 <HAL_PWREx_ControlVoltageScaling+0x84>)
 8001b8a:	6813      	ldr	r3, [r2, #0]
 8001b8c:	f423 63c0 	bic.w	r3, r3, #1536	@ 0x600
 8001b90:	f443 6380 	orr.w	r3, r3, #1024	@ 0x400
 8001b94:	6013      	str	r3, [r2, #0]
      /* No need to wait for VOSF to be cleared for this transition */
    }
  }
#endif

  return HAL_OK;
 8001b96:	2000      	movs	r0, #0
 8001b98:	4770      	bx	lr
    if (READ_BIT(PWR->CR1, PWR_CR1_VOS) != PWR_REGULATOR_VOLTAGE_SCALE1)
 8001b9a:	4b17      	ldr	r3, [pc, #92]	@ (8001bf8 <HAL_PWREx_ControlVoltageScaling+0x84>)
 8001b9c:	681b      	ldr	r3, [r3, #0]
 8001b9e:	f403 63c0 	and.w	r3, r3, #1536	@ 0x600
 8001ba2:	f5b3 7f00 	cmp.w	r3, #512	@ 0x200
 8001ba6:	d020      	beq.n	8001bea <HAL_PWREx_ControlVoltageScaling+0x76>
      MODIFY_REG(PWR->CR1, PWR_CR1_VOS, PWR_REGULATOR_VOLTAGE_SCALE1);
 8001ba8:	4a13      	ldr	r2, [pc, #76]	@ (8001bf8 <HAL_PWREx_ControlVoltageScaling+0x84>)
 8001baa:	6813      	ldr	r3, [r2, #0]
 8001bac:	f423 63c0 	bic.w	r3, r3, #1536	@ 0x600
 8001bb0:	f443 7300 	orr.w	r3, r3, #512	@ 0x200
 8001bb4:	6013      	str	r3, [r2, #0]
      wait_loop_index = ((PWR_FLAG_SETTING_DELAY_US * SystemCoreClock) / 1000000U) + 1U;
 8001bb6:	4b11      	ldr	r3, [pc, #68]	@ (8001bfc <HAL_PWREx_ControlVoltageScaling+0x88>)
 8001bb8:	681b      	ldr	r3, [r3, #0]
 8001bba:	2232      	movs	r2, #50	@ 0x32
 8001bbc:	fb02 f303 	mul.w	r3, r2, r3
 8001bc0:	4a0f      	ldr	r2, [pc, #60]	@ (8001c00 <HAL_PWREx_ControlVoltageScaling+0x8c>)
 8001bc2:	fba2 2303 	umull	r2, r3, r2, r3
 8001bc6:	0c9b      	lsrs	r3, r3, #18
 8001bc8:	3301      	adds	r3, #1
      while ((HAL_IS_BIT_SET(PWR->SR2, PWR_SR2_VOSF)) && (wait_loop_index != 0U))
 8001bca:	e000      	b.n	8001bce <HAL_PWREx_ControlVoltageScaling+0x5a>
        wait_loop_index--;
 8001bcc:	3b01      	subs	r3, #1
      while ((HAL_IS_BIT_SET(PWR->SR2, PWR_SR2_VOSF)) && (wait_loop_index != 0U))
 8001bce:	4a0a      	ldr	r2, [pc, #40]	@ (8001bf8 <HAL_PWREx_ControlVoltageScaling+0x84>)
 8001bd0:	6952      	ldr	r2, [r2, #20]
 8001bd2:	f412 6f80 	tst.w	r2, #1024	@ 0x400
 8001bd6:	d001      	beq.n	8001bdc <HAL_PWREx_ControlVoltageScaling+0x68>
 8001bd8:	2b00      	cmp	r3, #0
 8001bda:	d1f7      	bne.n	8001bcc <HAL_PWREx_ControlVoltageScaling+0x58>
      if (HAL_IS_BIT_SET(PWR->SR2, PWR_SR2_VOSF))
 8001bdc:	4b06      	ldr	r3, [pc, #24]	@ (8001bf8 <HAL_PWREx_ControlVoltageScaling+0x84>)
 8001bde:	695b      	ldr	r3, [r3, #20]
 8001be0:	f413 6f80 	tst.w	r3, #1024	@ 0x400
 8001be4:	d103      	bne.n	8001bee <HAL_PWREx_ControlVoltageScaling+0x7a>
  return HAL_OK;
 8001be6:	2000      	movs	r0, #0
 8001be8:	4770      	bx	lr
 8001bea:	2000      	movs	r0, #0
 8001bec:	4770      	bx	lr
        return HAL_TIMEOUT;
 8001bee:	2003      	movs	r0, #3
 8001bf0:	4770      	bx	lr
  return HAL_OK;
 8001bf2:	2000      	movs	r0, #0
}
 8001bf4:	4770      	bx	lr
 8001bf6:	bf00      	nop
 8001bf8:	40007000 	.word	0x40007000
 8001bfc:	20000028 	.word	0x20000028
 8001c00:	431bde83 	.word	0x431bde83

08001c04 <RCC_SetFlashLatencyFromMSIRange>:
            voltage range.
  * @param  msirange  MSI range value from RCC_MSIRANGE_0 to RCC_MSIRANGE_11
  * @retval HAL status
  */
static HAL_StatusTypeDef RCC_SetFlashLatencyFromMSIRange(uint32_t msirange)
{
 8001c04:	b530      	push	{r4, r5, lr}
 8001c06:	b083      	sub	sp, #12
 8001c08:	4604      	mov	r4, r0
  uint32_t vos;
  uint32_t latency = FLASH_LATENCY_0;  /* default value 0WS */

  if(__HAL_RCC_PWR_IS_CLK_ENABLED())
 8001c0a:	4b20      	ldr	r3, [pc, #128]	@ (8001c8c <RCC_SetFlashLatencyFromMSIRange+0x88>)
 8001c0c:	6d9b      	ldr	r3, [r3, #88]	@ 0x58
 8001c0e:	f013 5f80 	tst.w	r3, #268435456	@ 0x10000000
 8001c12:	d00b      	beq.n	8001c2c <RCC_SetFlashLatencyFromMSIRange+0x28>
  {
    vos = HAL_PWREx_GetVoltageRange();
 8001c14:	f7ff ffa6 	bl	8001b64 <HAL_PWREx_GetVoltageRange>
    __HAL_RCC_PWR_CLK_ENABLE();
    vos = HAL_PWREx_GetVoltageRange();
    __HAL_RCC_PWR_CLK_DISABLE();
  }

  if(vos == PWR_REGULATOR_VOLTAGE_SCALE1)
 8001c18:	f5b0 7f00 	cmp.w	r0, #512	@ 0x200
 8001c1c:	d017      	beq.n	8001c4e <RCC_SetFlashLatencyFromMSIRange+0x4a>
        latency = FLASH_LATENCY_1; /* 1WS */
      }
      /* else MSI < 8Mhz default FLASH_LATENCY_0 0WS */
    }
#else
    if(msirange > RCC_MSIRANGE_8)
 8001c1e:	2c80      	cmp	r4, #128	@ 0x80
 8001c20:	d81f      	bhi.n	8001c62 <RCC_SetFlashLatencyFromMSIRange+0x5e>
      /* MSI > 16Mhz */
      latency = FLASH_LATENCY_3; /* 3WS */
    }
    else
    {
      if(msirange == RCC_MSIRANGE_8)
 8001c22:	d02d      	beq.n	8001c80 <RCC_SetFlashLatencyFromMSIRange+0x7c>
      {
        /* MSI 16Mhz */
        latency = FLASH_LATENCY_2; /* 2WS */
      }
      else if(msirange == RCC_MSIRANGE_7)
 8001c24:	2c70      	cmp	r4, #112	@ 0x70
 8001c26:	d02d      	beq.n	8001c84 <RCC_SetFlashLatencyFromMSIRange+0x80>
  uint32_t latency = FLASH_LATENCY_0;  /* default value 0WS */
 8001c28:	2100      	movs	r1, #0
 8001c2a:	e01b      	b.n	8001c64 <RCC_SetFlashLatencyFromMSIRange+0x60>
    __HAL_RCC_PWR_CLK_ENABLE();
 8001c2c:	4d17      	ldr	r5, [pc, #92]	@ (8001c8c <RCC_SetFlashLatencyFromMSIRange+0x88>)
 8001c2e:	6dab      	ldr	r3, [r5, #88]	@ 0x58
 8001c30:	f043 5380 	orr.w	r3, r3, #268435456	@ 0x10000000
 8001c34:	65ab      	str	r3, [r5, #88]	@ 0x58
 8001c36:	6dab      	ldr	r3, [r5, #88]	@ 0x58
 8001c38:	f003 5380 	and.w	r3, r3, #268435456	@ 0x10000000
 8001c3c:	9301      	str	r3, [sp, #4]
 8001c3e:	9b01      	ldr	r3, [sp, #4]
    vos = HAL_PWREx_GetVoltageRange();
 8001c40:	f7ff ff90 	bl	8001b64 <HAL_PWREx_GetVoltageRange>
    __HAL_RCC_PWR_CLK_DISABLE();
 8001c44:	6dab      	ldr	r3, [r5, #88]	@ 0x58
 8001c46:	f023 5380 	bic.w	r3, r3, #268435456	@ 0x10000000
 8001c4a:	65ab      	str	r3, [r5, #88]	@ 0x58
 8001c4c:	e7e4      	b.n	8001c18 <RCC_SetFlashLatencyFromMSIRange+0x14>
    if(msirange > RCC_MSIRANGE_8)
 8001c4e:	2c80      	cmp	r4, #128	@ 0x80
 8001c50:	d903      	bls.n	8001c5a <RCC_SetFlashLatencyFromMSIRange+0x56>
      if(msirange > RCC_MSIRANGE_10)
 8001c52:	2ca0      	cmp	r4, #160	@ 0xa0
 8001c54:	d903      	bls.n	8001c5e <RCC_SetFlashLatencyFromMSIRange+0x5a>
        latency = FLASH_LATENCY_2; /* 2WS */
 8001c56:	2102      	movs	r1, #2
 8001c58:	e004      	b.n	8001c64 <RCC_SetFlashLatencyFromMSIRange+0x60>
  uint32_t latency = FLASH_LATENCY_0;  /* default value 0WS */
 8001c5a:	2100      	movs	r1, #0
 8001c5c:	e002      	b.n	8001c64 <RCC_SetFlashLatencyFromMSIRange+0x60>
        latency = FLASH_LATENCY_1; /* 1WS */
 8001c5e:	2101      	movs	r1, #1
 8001c60:	e000      	b.n	8001c64 <RCC_SetFlashLatencyFromMSIRange+0x60>
      latency = FLASH_LATENCY_3; /* 3WS */
 8001c62:	2103      	movs	r1, #3
      }
    }
#endif
  }

  __HAL_FLASH_SET_LATENCY(latency);
 8001c64:	4a0a      	ldr	r2, [pc, #40]	@ (8001c90 <RCC_SetFlashLatencyFromMSIRange+0x8c>)
 8001c66:	6813      	ldr	r3, [r2, #0]
 8001c68:	f023 0307 	bic.w	r3, r3, #7
 8001c6c:	430b      	orrs	r3, r1
 8001c6e:	6013      	str	r3, [r2, #0]

  /* Check that the new number of wait states is taken into account to access the Flash
     memory by reading the FLASH_ACR register */
  if(__HAL_FLASH_GET_LATENCY() != latency)
 8001c70:	6813      	ldr	r3, [r2, #0]
 8001c72:	f003 0307 	and.w	r3, r3, #7
 8001c76:	428b      	cmp	r3, r1
 8001c78:	d106      	bne.n	8001c88 <RCC_SetFlashLatencyFromMSIRange+0x84>
  {
    return HAL_ERROR;
  }

  return HAL_OK;
 8001c7a:	2000      	movs	r0, #0
}
 8001c7c:	b003      	add	sp, #12
 8001c7e:	bd30      	pop	{r4, r5, pc}
        latency = FLASH_LATENCY_2; /* 2WS */
 8001c80:	2102      	movs	r1, #2
 8001c82:	e7ef      	b.n	8001c64 <RCC_SetFlashLatencyFromMSIRange+0x60>
        latency = FLASH_LATENCY_1; /* 1WS */
 8001c84:	2101      	movs	r1, #1
 8001c86:	e7ed      	b.n	8001c64 <RCC_SetFlashLatencyFromMSIRange+0x60>
    return HAL_ERROR;
 8001c88:	2001      	movs	r0, #1
 8001c8a:	e7f7      	b.n	8001c7c <RCC_SetFlashLatencyFromMSIRange+0x78>
 8001c8c:	40021000 	.word	0x40021000
 8001c90:	40022000 	.word	0x40022000

08001c94 <HAL_RCC_GetSysClockFreq>:
  sysclk_source = __HAL_RCC_GET_SYSCLK_SOURCE();
 8001c94:	4a25      	ldr	r2, [pc, #148]	@ (8001d2c <HAL_RCC_GetSysClockFreq+0x98>)
 8001c96:	6893      	ldr	r3, [r2, #8]
  pll_oscsource = __HAL_RCC_GET_PLL_OSCSOURCE();
 8001c98:	68d2      	ldr	r2, [r2, #12]
 8001c9a:	f002 0203 	and.w	r2, r2, #3
  if((sysclk_source == RCC_CFGR_SWS_MSI) ||
 8001c9e:	f013 030c 	ands.w	r3, r3, #12
 8001ca2:	d009      	beq.n	8001cb8 <HAL_RCC_GetSysClockFreq+0x24>
 8001ca4:	2b0c      	cmp	r3, #12
 8001ca6:	d005      	beq.n	8001cb4 <HAL_RCC_GetSysClockFreq+0x20>
  else if(sysclk_source == RCC_CFGR_SWS_HSI)
 8001ca8:	2b04      	cmp	r3, #4
 8001caa:	d03b      	beq.n	8001d24 <HAL_RCC_GetSysClockFreq+0x90>
  else if(sysclk_source == RCC_CFGR_SWS_HSE)
 8001cac:	2b08      	cmp	r3, #8
 8001cae:	d03b      	beq.n	8001d28 <HAL_RCC_GetSysClockFreq+0x94>
  uint32_t msirange = 0U, sysclockfreq = 0U;
 8001cb0:	2000      	movs	r0, #0
 8001cb2:	e00f      	b.n	8001cd4 <HAL_RCC_GetSysClockFreq+0x40>
     ((sysclk_source == RCC_CFGR_SWS_PLL) && (pll_oscsource == RCC_PLLSOURCE_MSI)))
 8001cb4:	2a01      	cmp	r2, #1
 8001cb6:	d1f7      	bne.n	8001ca8 <HAL_RCC_GetSysClockFreq+0x14>
    if(READ_BIT(RCC->CR, RCC_CR_MSIRGSEL) == 0U)
 8001cb8:	4a1c      	ldr	r2, [pc, #112]	@ (8001d2c <HAL_RCC_GetSysClockFreq+0x98>)
 8001cba:	6812      	ldr	r2, [r2, #0]
 8001cbc:	f012 0f08 	tst.w	r2, #8
 8001cc0:	d10c      	bne.n	8001cdc <HAL_RCC_GetSysClockFreq+0x48>
      msirange = READ_BIT(RCC->CSR, RCC_CSR_MSISRANGE) >> RCC_CSR_MSISRANGE_Pos;
 8001cc2:	4a1a      	ldr	r2, [pc, #104]	@ (8001d2c <HAL_RCC_GetSysClockFreq+0x98>)
 8001cc4:	f8d2 2094 	ldr.w	r2, [r2, #148]	@ 0x94
 8001cc8:	f3c2 2203 	ubfx	r2, r2, #8, #4
    msirange = MSIRangeTable[msirange];
 8001ccc:	4918      	ldr	r1, [pc, #96]	@ (8001d30 <HAL_RCC_GetSysClockFreq+0x9c>)
 8001cce:	f851 0022 	ldr.w	r0, [r1, r2, lsl #2]
    if(sysclk_source == RCC_CFGR_SWS_MSI)
 8001cd2:	b113      	cbz	r3, 8001cda <HAL_RCC_GetSysClockFreq+0x46>
  if(sysclk_source == RCC_CFGR_SWS_PLL)
 8001cd4:	2b0c      	cmp	r3, #12
 8001cd6:	d006      	beq.n	8001ce6 <HAL_RCC_GetSysClockFreq+0x52>
 8001cd8:	2000      	movs	r0, #0
}
 8001cda:	4770      	bx	lr
      msirange = READ_BIT(RCC->CR, RCC_CR_MSIRANGE) >> RCC_CR_MSIRANGE_Pos;
 8001cdc:	4a13      	ldr	r2, [pc, #76]	@ (8001d2c <HAL_RCC_GetSysClockFreq+0x98>)
 8001cde:	6812      	ldr	r2, [r2, #0]
 8001ce0:	f3c2 1203 	ubfx	r2, r2, #4, #4
 8001ce4:	e7f2      	b.n	8001ccc <HAL_RCC_GetSysClockFreq+0x38>
    pllsource = READ_BIT(RCC->PLLCFGR, RCC_PLLCFGR_PLLSRC);
 8001ce6:	4b11      	ldr	r3, [pc, #68]	@ (8001d2c <HAL_RCC_GetSysClockFreq+0x98>)
 8001ce8:	68db      	ldr	r3, [r3, #12]
 8001cea:	f003 0303 	and.w	r3, r3, #3
    switch (pllsource)
 8001cee:	2b02      	cmp	r3, #2
 8001cf0:	d016      	beq.n	8001d20 <HAL_RCC_GetSysClockFreq+0x8c>
 8001cf2:	2b03      	cmp	r3, #3
 8001cf4:	d100      	bne.n	8001cf8 <HAL_RCC_GetSysClockFreq+0x64>
      pllvco = HSE_VALUE;
 8001cf6:	480f      	ldr	r0, [pc, #60]	@ (8001d34 <HAL_RCC_GetSysClockFreq+0xa0>)
    pllm = (READ_BIT(RCC->PLLCFGR, RCC_PLLCFGR_PLLM) >> RCC_PLLCFGR_PLLM_Pos) + 1U ;
 8001cf8:	490c      	ldr	r1, [pc, #48]	@ (8001d2c <HAL_RCC_GetSysClockFreq+0x98>)
 8001cfa:	68ca      	ldr	r2, [r1, #12]
 8001cfc:	f3c2 1202 	ubfx	r2, r2, #4, #3
 8001d00:	3201      	adds	r2, #1
    pllvco = (pllvco * (READ_BIT(RCC->PLLCFGR, RCC_PLLCFGR_PLLN) >> RCC_PLLCFGR_PLLN_Pos)) / pllm;
 8001d02:	68cb      	ldr	r3, [r1, #12]
 8001d04:	f3c3 2306 	ubfx	r3, r3, #8, #7
 8001d08:	fb00 f303 	mul.w	r3, r0, r3
 8001d0c:	fbb3 f3f2 	udiv	r3, r3, r2
    pllr = ((READ_BIT(RCC->PLLCFGR, RCC_PLLCFGR_PLLR) >> RCC_PLLCFGR_PLLR_Pos) + 1U ) * 2U;
 8001d10:	68c8      	ldr	r0, [r1, #12]
 8001d12:	f3c0 6041 	ubfx	r0, r0, #25, #2
 8001d16:	3001      	adds	r0, #1
 8001d18:	0040      	lsls	r0, r0, #1
    sysclockfreq = pllvco / pllr;
 8001d1a:	fbb3 f0f0 	udiv	r0, r3, r0
 8001d1e:	4770      	bx	lr
    switch (pllsource)
 8001d20:	4805      	ldr	r0, [pc, #20]	@ (8001d38 <HAL_RCC_GetSysClockFreq+0xa4>)
 8001d22:	e7e9      	b.n	8001cf8 <HAL_RCC_GetSysClockFreq+0x64>
    sysclockfreq = HSI_VALUE;
 8001d24:	4804      	ldr	r0, [pc, #16]	@ (8001d38 <HAL_RCC_GetSysClockFreq+0xa4>)
 8001d26:	4770      	bx	lr
    sysclockfreq = HSE_VALUE;
 8001d28:	4802      	ldr	r0, [pc, #8]	@ (8001d34 <HAL_RCC_GetSysClockFreq+0xa0>)
 8001d2a:	4770      	bx	lr
 8001d2c:	40021000 	.word	0x40021000
 8001d30:	08002660 	.word	0x08002660
 8001d34:	007a1200 	.word	0x007a1200
 8001d38:	00f42400 	.word	0x00f42400

08001d3c <HAL_RCC_OscConfig>:
  if(RCC_OscInitStruct == NULL)
 8001d3c:	2800      	cmp	r0, #0
 8001d3e:	f000 831c 	beq.w	800237a <HAL_RCC_OscConfig+0x63e>
{
 8001d42:	b5f0      	push	{r4, r5, r6, r7, lr}
 8001d44:	b083      	sub	sp, #12
 8001d46:	4604      	mov	r4, r0
  sysclk_source = __HAL_RCC_GET_SYSCLK_SOURCE();
 8001d48:	4b96      	ldr	r3, [pc, #600]	@ (8001fa4 <HAL_RCC_OscConfig+0x268>)
 8001d4a:	689d      	ldr	r5, [r3, #8]
 8001d4c:	f005 050c 	and.w	r5, r5, #12
  pll_config = __HAL_RCC_GET_PLL_OSCSOURCE();
 8001d50:	68de      	ldr	r6, [r3, #12]
 8001d52:	f006 0603 	and.w	r6, r6, #3
  if(((RCC_OscInitStruct->OscillatorType) & RCC_OSCILLATORTYPE_MSI) == RCC_OSCILLATORTYPE_MSI)
 8001d56:	6803      	ldr	r3, [r0, #0]
 8001d58:	f013 0f10 	tst.w	r3, #16
 8001d5c:	d05a      	beq.n	8001e14 <HAL_RCC_OscConfig+0xd8>
    if((sysclk_source == RCC_CFGR_SWS_MSI) ||
 8001d5e:	b1e5      	cbz	r5, 8001d9a <HAL_RCC_OscConfig+0x5e>
 8001d60:	2d0c      	cmp	r5, #12
 8001d62:	d018      	beq.n	8001d96 <HAL_RCC_OscConfig+0x5a>
      if(RCC_OscInitStruct->MSIState != RCC_MSI_OFF)
 8001d64:	69a3      	ldr	r3, [r4, #24]
 8001d66:	2b00      	cmp	r3, #0
 8001d68:	f000 80bb 	beq.w	8001ee2 <HAL_RCC_OscConfig+0x1a6>
        __HAL_RCC_MSI_ENABLE();
 8001d6c:	4a8d      	ldr	r2, [pc, #564]	@ (8001fa4 <HAL_RCC_OscConfig+0x268>)
 8001d6e:	6813      	ldr	r3, [r2, #0]
 8001d70:	f043 0301 	orr.w	r3, r3, #1
 8001d74:	6013      	str	r3, [r2, #0]
        tickstart = HAL_GetTick();
 8001d76:	f7fe fea3 	bl	8000ac0 <HAL_GetTick>
 8001d7a:	4607      	mov	r7, r0
        while(READ_BIT(RCC->CR, RCC_CR_MSIRDY) == 0U)
 8001d7c:	4b89      	ldr	r3, [pc, #548]	@ (8001fa4 <HAL_RCC_OscConfig+0x268>)
 8001d7e:	681b      	ldr	r3, [r3, #0]
 8001d80:	f013 0f02 	tst.w	r3, #2
 8001d84:	f040 809a 	bne.w	8001ebc <HAL_RCC_OscConfig+0x180>
          if((HAL_GetTick() - tickstart) > MSI_TIMEOUT_VALUE)
 8001d88:	f7fe fe9a 	bl	8000ac0 <HAL_GetTick>
 8001d8c:	1bc0      	subs	r0, r0, r7
 8001d8e:	2802      	cmp	r0, #2
 8001d90:	d9f4      	bls.n	8001d7c <HAL_RCC_OscConfig+0x40>
            return HAL_TIMEOUT;
 8001d92:	2003      	movs	r0, #3
 8001d94:	e2fc      	b.n	8002390 <HAL_RCC_OscConfig+0x654>
       ((sysclk_source == RCC_CFGR_SWS_PLL) && (pll_config == RCC_PLLSOURCE_MSI)))
 8001d96:	2e01      	cmp	r6, #1
 8001d98:	d1e4      	bne.n	8001d64 <HAL_RCC_OscConfig+0x28>
      if((READ_BIT(RCC->CR, RCC_CR_MSIRDY) != 0U) && (RCC_OscInitStruct->MSIState == RCC_MSI_OFF))
 8001d9a:	4b82      	ldr	r3, [pc, #520]	@ (8001fa4 <HAL_RCC_OscConfig+0x268>)
 8001d9c:	681b      	ldr	r3, [r3, #0]
 8001d9e:	f013 0f02 	tst.w	r3, #2
 8001da2:	d003      	beq.n	8001dac <HAL_RCC_OscConfig+0x70>
 8001da4:	69a3      	ldr	r3, [r4, #24]
 8001da6:	2b00      	cmp	r3, #0
 8001da8:	f000 82e9 	beq.w	800237e <HAL_RCC_OscConfig+0x642>
        if(RCC_OscInitStruct->MSIClockRange > __HAL_RCC_GET_MSI_RANGE())
 8001dac:	6a20      	ldr	r0, [r4, #32]
 8001dae:	4b7d      	ldr	r3, [pc, #500]	@ (8001fa4 <HAL_RCC_OscConfig+0x268>)
 8001db0:	681b      	ldr	r3, [r3, #0]
 8001db2:	f013 0f08 	tst.w	r3, #8
 8001db6:	d05b      	beq.n	8001e70 <HAL_RCC_OscConfig+0x134>
 8001db8:	4b7a      	ldr	r3, [pc, #488]	@ (8001fa4 <HAL_RCC_OscConfig+0x268>)
 8001dba:	681b      	ldr	r3, [r3, #0]
 8001dbc:	f003 03f0 	and.w	r3, r3, #240	@ 0xf0
 8001dc0:	4298      	cmp	r0, r3
 8001dc2:	d85c      	bhi.n	8001e7e <HAL_RCC_OscConfig+0x142>
          __HAL_RCC_MSI_RANGE_CONFIG(RCC_OscInitStruct->MSIClockRange);
 8001dc4:	4b77      	ldr	r3, [pc, #476]	@ (8001fa4 <HAL_RCC_OscConfig+0x268>)
 8001dc6:	681a      	ldr	r2, [r3, #0]
 8001dc8:	f042 0208 	orr.w	r2, r2, #8
 8001dcc:	601a      	str	r2, [r3, #0]
 8001dce:	681a      	ldr	r2, [r3, #0]
 8001dd0:	f022 02f0 	bic.w	r2, r2, #240	@ 0xf0
 8001dd4:	6a21      	ldr	r1, [r4, #32]
 8001dd6:	430a      	orrs	r2, r1
 8001dd8:	601a      	str	r2, [r3, #0]
          __HAL_RCC_MSI_CALIBRATIONVALUE_ADJUST(RCC_OscInitStruct->MSICalibrationValue);
 8001dda:	685a      	ldr	r2, [r3, #4]
 8001ddc:	f422 427f 	bic.w	r2, r2, #65280	@ 0xff00
 8001de0:	69e1      	ldr	r1, [r4, #28]
 8001de2:	ea42 2201 	orr.w	r2, r2, r1, lsl #8
 8001de6:	605a      	str	r2, [r3, #4]
          if(sysclk_source == RCC_CFGR_SWS_MSI)
 8001de8:	2d00      	cmp	r5, #0
 8001dea:	d060      	beq.n	8001eae <HAL_RCC_OscConfig+0x172>
        SystemCoreClock = HAL_RCC_GetSysClockFreq() >> (AHBPrescTable[READ_BIT(RCC->CFGR, RCC_CFGR_HPRE) >> RCC_CFGR_HPRE_Pos] & 0x1FU);
 8001dec:	f7ff ff52 	bl	8001c94 <HAL_RCC_GetSysClockFreq>
 8001df0:	4b6c      	ldr	r3, [pc, #432]	@ (8001fa4 <HAL_RCC_OscConfig+0x268>)
 8001df2:	689b      	ldr	r3, [r3, #8]
 8001df4:	f3c3 1303 	ubfx	r3, r3, #4, #4
 8001df8:	4a6b      	ldr	r2, [pc, #428]	@ (8001fa8 <HAL_RCC_OscConfig+0x26c>)
 8001dfa:	5cd3      	ldrb	r3, [r2, r3]
 8001dfc:	f003 031f 	and.w	r3, r3, #31
 8001e00:	40d8      	lsrs	r0, r3
 8001e02:	4b6a      	ldr	r3, [pc, #424]	@ (8001fac <HAL_RCC_OscConfig+0x270>)
 8001e04:	6018      	str	r0, [r3, #0]
        status = HAL_InitTick(uwTickPrio);
 8001e06:	4b6a      	ldr	r3, [pc, #424]	@ (8001fb0 <HAL_RCC_OscConfig+0x274>)
 8001e08:	6818      	ldr	r0, [r3, #0]
 8001e0a:	f7fe fe15 	bl	8000a38 <HAL_InitTick>
        if(status != HAL_OK)
 8001e0e:	2800      	cmp	r0, #0
 8001e10:	f040 82be 	bne.w	8002390 <HAL_RCC_OscConfig+0x654>
  if(((RCC_OscInitStruct->OscillatorType) & RCC_OSCILLATORTYPE_HSE) == RCC_OSCILLATORTYPE_HSE)
 8001e14:	6823      	ldr	r3, [r4, #0]
 8001e16:	f013 0f01 	tst.w	r3, #1
 8001e1a:	f000 8081 	beq.w	8001f20 <HAL_RCC_OscConfig+0x1e4>
    if((sysclk_source == RCC_CFGR_SWS_HSE) ||
 8001e1e:	2d08      	cmp	r5, #8
 8001e20:	d075      	beq.n	8001f0e <HAL_RCC_OscConfig+0x1d2>
 8001e22:	2d0c      	cmp	r5, #12
 8001e24:	d071      	beq.n	8001f0a <HAL_RCC_OscConfig+0x1ce>
      __HAL_RCC_HSE_CONFIG(RCC_OscInitStruct->HSEState);
 8001e26:	6863      	ldr	r3, [r4, #4]
 8001e28:	f5b3 3f80 	cmp.w	r3, #65536	@ 0x10000
 8001e2c:	f000 8097 	beq.w	8001f5e <HAL_RCC_OscConfig+0x222>
 8001e30:	f5b3 2fa0 	cmp.w	r3, #327680	@ 0x50000
 8001e34:	f000 8099 	beq.w	8001f6a <HAL_RCC_OscConfig+0x22e>
 8001e38:	4b5a      	ldr	r3, [pc, #360]	@ (8001fa4 <HAL_RCC_OscConfig+0x268>)
 8001e3a:	681a      	ldr	r2, [r3, #0]
 8001e3c:	f422 3280 	bic.w	r2, r2, #65536	@ 0x10000
 8001e40:	601a      	str	r2, [r3, #0]
 8001e42:	681a      	ldr	r2, [r3, #0]
 8001e44:	f422 2280 	bic.w	r2, r2, #262144	@ 0x40000
 8001e48:	601a      	str	r2, [r3, #0]
      if(RCC_OscInitStruct->HSEState != RCC_HSE_OFF)
 8001e4a:	6863      	ldr	r3, [r4, #4]
 8001e4c:	2b00      	cmp	r3, #0
 8001e4e:	f000 8099 	beq.w	8001f84 <HAL_RCC_OscConfig+0x248>
        tickstart = HAL_GetTick();
 8001e52:	f7fe fe35 	bl	8000ac0 <HAL_GetTick>
 8001e56:	4607      	mov	r7, r0
        while(READ_BIT(RCC->CR, RCC_CR_HSERDY) == 0U)
 8001e58:	4b52      	ldr	r3, [pc, #328]	@ (8001fa4 <HAL_RCC_OscConfig+0x268>)
 8001e5a:	681b      	ldr	r3, [r3, #0]
 8001e5c:	f413 3f00 	tst.w	r3, #131072	@ 0x20000
 8001e60:	d15e      	bne.n	8001f20 <HAL_RCC_OscConfig+0x1e4>
          if((HAL_GetTick() - tickstart) > HSE_TIMEOUT_VALUE)
 8001e62:	f7fe fe2d 	bl	8000ac0 <HAL_GetTick>
 8001e66:	1bc0      	subs	r0, r0, r7
 8001e68:	2864      	cmp	r0, #100	@ 0x64
 8001e6a:	d9f5      	bls.n	8001e58 <HAL_RCC_OscConfig+0x11c>
            return HAL_TIMEOUT;
 8001e6c:	2003      	movs	r0, #3
 8001e6e:	e28f      	b.n	8002390 <HAL_RCC_OscConfig+0x654>
        if(RCC_OscInitStruct->MSIClockRange > __HAL_RCC_GET_MSI_RANGE())
 8001e70:	4b4c      	ldr	r3, [pc, #304]	@ (8001fa4 <HAL_RCC_OscConfig+0x268>)
 8001e72:	f8d3 3094 	ldr.w	r3, [r3, #148]	@ 0x94
 8001e76:	091b      	lsrs	r3, r3, #4
 8001e78:	f003 03f0 	and.w	r3, r3, #240	@ 0xf0
 8001e7c:	e7a0      	b.n	8001dc0 <HAL_RCC_OscConfig+0x84>
          if(RCC_SetFlashLatencyFromMSIRange(RCC_OscInitStruct->MSIClockRange) != HAL_OK)
 8001e7e:	f7ff fec1 	bl	8001c04 <RCC_SetFlashLatencyFromMSIRange>
 8001e82:	2800      	cmp	r0, #0
 8001e84:	f040 827d 	bne.w	8002382 <HAL_RCC_OscConfig+0x646>
          __HAL_RCC_MSI_RANGE_CONFIG(RCC_OscInitStruct->MSIClockRange);
 8001e88:	4b46      	ldr	r3, [pc, #280]	@ (8001fa4 <HAL_RCC_OscConfig+0x268>)
 8001e8a:	681a      	ldr	r2, [r3, #0]
 8001e8c:	f042 0208 	orr.w	r2, r2, #8
 8001e90:	601a      	str	r2, [r3, #0]
 8001e92:	681a      	ldr	r2, [r3, #0]
 8001e94:	f022 02f0 	bic.w	r2, r2, #240	@ 0xf0
 8001e98:	6a21      	ldr	r1, [r4, #32]
 8001e9a:	430a      	orrs	r2, r1
 8001e9c:	601a      	str	r2, [r3, #0]
          __HAL_RCC_MSI_CALIBRATIONVALUE_ADJUST(RCC_OscInitStruct->MSICalibrationValue);
 8001e9e:	685a      	ldr	r2, [r3, #4]
 8001ea0:	f422 427f 	bic.w	r2, r2, #65280	@ 0xff00
 8001ea4:	69e1      	ldr	r1, [r4, #28]
 8001ea6:	ea42 2201 	orr.w	r2, r2, r1, lsl #8
 8001eaa:	605a      	str	r2, [r3, #4]
 8001eac:	e79e      	b.n	8001dec <HAL_RCC_OscConfig+0xb0>
            if(RCC_SetFlashLatencyFromMSIRange(RCC_OscInitStruct->MSIClockRange) != HAL_OK)
 8001eae:	6a20      	ldr	r0, [r4, #32]
 8001eb0:	f7ff fea8 	bl	8001c04 <RCC_SetFlashLatencyFromMSIRange>
 8001eb4:	2800      	cmp	r0, #0
 8001eb6:	d099      	beq.n	8001dec <HAL_RCC_OscConfig+0xb0>
              return HAL_ERROR;
 8001eb8:	2001      	movs	r0, #1
 8001eba:	e269      	b.n	8002390 <HAL_RCC_OscConfig+0x654>
        __HAL_RCC_MSI_RANGE_CONFIG(RCC_OscInitStruct->MSIClockRange);
 8001ebc:	4b39      	ldr	r3, [pc, #228]	@ (8001fa4 <HAL_RCC_OscConfig+0x268>)
 8001ebe:	681a      	ldr	r2, [r3, #0]
 8001ec0:	f042 0208 	orr.w	r2, r2, #8
 8001ec4:	601a      	str	r2, [r3, #0]
 8001ec6:	681a      	ldr	r2, [r3, #0]
 8001ec8:	f022 02f0 	bic.w	r2, r2, #240	@ 0xf0
 8001ecc:	6a21      	ldr	r1, [r4, #32]
 8001ece:	430a      	orrs	r2, r1
 8001ed0:	601a      	str	r2, [r3, #0]
        __HAL_RCC_MSI_CALIBRATIONVALUE_ADJUST(RCC_OscInitStruct->MSICalibrationValue);
 8001ed2:	685a      	ldr	r2, [r3, #4]
 8001ed4:	f422 427f 	bic.w	r2, r2, #65280	@ 0xff00
 8001ed8:	69e1      	ldr	r1, [r4, #28]
 8001eda:	ea42 2201 	orr.w	r2, r2, r1, lsl #8
 8001ede:	605a      	str	r2, [r3, #4]
 8001ee0:	e798      	b.n	8001e14 <HAL_RCC_OscConfig+0xd8>
        __HAL_RCC_MSI_DISABLE();
 8001ee2:	4a30      	ldr	r2, [pc, #192]	@ (8001fa4 <HAL_RCC_OscConfig+0x268>)
 8001ee4:	6813      	ldr	r3, [r2, #0]
 8001ee6:	f023 0301 	bic.w	r3, r3, #1
 8001eea:	6013      	str	r3, [r2, #0]
        tickstart = HAL_GetTick();
 8001eec:	f7fe fde8 	bl	8000ac0 <HAL_GetTick>
 8001ef0:	4607      	mov	r7, r0
        while(READ_BIT(RCC->CR, RCC_CR_MSIRDY) != 0U)
 8001ef2:	4b2c      	ldr	r3, [pc, #176]	@ (8001fa4 <HAL_RCC_OscConfig+0x268>)
 8001ef4:	681b      	ldr	r3, [r3, #0]
 8001ef6:	f013 0f02 	tst.w	r3, #2
 8001efa:	d08b      	beq.n	8001e14 <HAL_RCC_OscConfig+0xd8>
          if((HAL_GetTick() - tickstart) > MSI_TIMEOUT_VALUE)
 8001efc:	f7fe fde0 	bl	8000ac0 <HAL_GetTick>
 8001f00:	1bc0      	subs	r0, r0, r7
 8001f02:	2802      	cmp	r0, #2
 8001f04:	d9f5      	bls.n	8001ef2 <HAL_RCC_OscConfig+0x1b6>
            return HAL_TIMEOUT;
 8001f06:	2003      	movs	r0, #3
 8001f08:	e242      	b.n	8002390 <HAL_RCC_OscConfig+0x654>
       ((sysclk_source == RCC_CFGR_SWS_PLL) && (pll_config == RCC_PLLSOURCE_HSE)))
 8001f0a:	2e03      	cmp	r6, #3
 8001f0c:	d18b      	bne.n	8001e26 <HAL_RCC_OscConfig+0xea>
      if((READ_BIT(RCC->CR, RCC_CR_HSERDY) != 0U) && (RCC_OscInitStruct->HSEState == RCC_HSE_OFF))
 8001f0e:	4b25      	ldr	r3, [pc, #148]	@ (8001fa4 <HAL_RCC_OscConfig+0x268>)
 8001f10:	681b      	ldr	r3, [r3, #0]
 8001f12:	f413 3f00 	tst.w	r3, #131072	@ 0x20000
 8001f16:	d003      	beq.n	8001f20 <HAL_RCC_OscConfig+0x1e4>
 8001f18:	6863      	ldr	r3, [r4, #4]
 8001f1a:	2b00      	cmp	r3, #0
 8001f1c:	f000 8233 	beq.w	8002386 <HAL_RCC_OscConfig+0x64a>
  if(((RCC_OscInitStruct->OscillatorType) & RCC_OSCILLATORTYPE_HSI) == RCC_OSCILLATORTYPE_HSI)
 8001f20:	6823      	ldr	r3, [r4, #0]
 8001f22:	f013 0f02 	tst.w	r3, #2
 8001f26:	d058      	beq.n	8001fda <HAL_RCC_OscConfig+0x29e>
    if((sysclk_source == RCC_CFGR_SWS_HSI) ||
 8001f28:	2d04      	cmp	r5, #4
 8001f2a:	d045      	beq.n	8001fb8 <HAL_RCC_OscConfig+0x27c>
 8001f2c:	2d0c      	cmp	r5, #12
 8001f2e:	d041      	beq.n	8001fb4 <HAL_RCC_OscConfig+0x278>
      if(RCC_OscInitStruct->HSIState != RCC_HSI_OFF)
 8001f30:	68e3      	ldr	r3, [r4, #12]
 8001f32:	2b00      	cmp	r3, #0
 8001f34:	d077      	beq.n	8002026 <HAL_RCC_OscConfig+0x2ea>
        __HAL_RCC_HSI_ENABLE();
 8001f36:	4a1b      	ldr	r2, [pc, #108]	@ (8001fa4 <HAL_RCC_OscConfig+0x268>)
 8001f38:	6813      	ldr	r3, [r2, #0]
 8001f3a:	f443 7380 	orr.w	r3, r3, #256	@ 0x100
 8001f3e:	6013      	str	r3, [r2, #0]
        tickstart = HAL_GetTick();
 8001f40:	f7fe fdbe 	bl	8000ac0 <HAL_GetTick>
 8001f44:	4606      	mov	r6, r0
        while(READ_BIT(RCC->CR, RCC_CR_HSIRDY) == 0U)
 8001f46:	4b17      	ldr	r3, [pc, #92]	@ (8001fa4 <HAL_RCC_OscConfig+0x268>)
 8001f48:	681b      	ldr	r3, [r3, #0]
 8001f4a:	f413 6f80 	tst.w	r3, #1024	@ 0x400
 8001f4e:	d161      	bne.n	8002014 <HAL_RCC_OscConfig+0x2d8>
          if((HAL_GetTick() - tickstart) > HSI_TIMEOUT_VALUE)
 8001f50:	f7fe fdb6 	bl	8000ac0 <HAL_GetTick>
 8001f54:	1b80      	subs	r0, r0, r6
 8001f56:	2802      	cmp	r0, #2
 8001f58:	d9f5      	bls.n	8001f46 <HAL_RCC_OscConfig+0x20a>
            return HAL_TIMEOUT;
 8001f5a:	2003      	movs	r0, #3
 8001f5c:	e218      	b.n	8002390 <HAL_RCC_OscConfig+0x654>
      __HAL_RCC_HSE_CONFIG(RCC_OscInitStruct->HSEState);
 8001f5e:	4a11      	ldr	r2, [pc, #68]	@ (8001fa4 <HAL_RCC_OscConfig+0x268>)
 8001f60:	6813      	ldr	r3, [r2, #0]
 8001f62:	f443 3380 	orr.w	r3, r3, #65536	@ 0x10000
 8001f66:	6013      	str	r3, [r2, #0]
 8001f68:	e76f      	b.n	8001e4a <HAL_RCC_OscConfig+0x10e>
 8001f6a:	f103 4380 	add.w	r3, r3, #1073741824	@ 0x40000000
 8001f6e:	f5a3 333c 	sub.w	r3, r3, #192512	@ 0x2f000
 8001f72:	681a      	ldr	r2, [r3, #0]
 8001f74:	f442 2280 	orr.w	r2, r2, #262144	@ 0x40000
 8001f78:	601a      	str	r2, [r3, #0]
 8001f7a:	681a      	ldr	r2, [r3, #0]
 8001f7c:	f442 3280 	orr.w	r2, r2, #65536	@ 0x10000
 8001f80:	601a      	str	r2, [r3, #0]
 8001f82:	e762      	b.n	8001e4a <HAL_RCC_OscConfig+0x10e>
        tickstart = HAL_GetTick();
 8001f84:	f7fe fd9c 	bl	8000ac0 <HAL_GetTick>
 8001f88:	4607      	mov	r7, r0
        while(READ_BIT(RCC->CR, RCC_CR_HSERDY) != 0U)
 8001f8a:	4b06      	ldr	r3, [pc, #24]	@ (8001fa4 <HAL_RCC_OscConfig+0x268>)
 8001f8c:	681b      	ldr	r3, [r3, #0]
 8001f8e:	f413 3f00 	tst.w	r3, #131072	@ 0x20000
 8001f92:	d0c5      	beq.n	8001f20 <HAL_RCC_OscConfig+0x1e4>
          if((HAL_GetTick() - tickstart) > HSE_TIMEOUT_VALUE)
 8001f94:	f7fe fd94 	bl	8000ac0 <HAL_GetTick>
 8001f98:	1bc0      	subs	r0, r0, r7
 8001f9a:	2864      	cmp	r0, #100	@ 0x64
 8001f9c:	d9f5      	bls.n	8001f8a <HAL_RCC_OscConfig+0x24e>
            return HAL_TIMEOUT;
 8001f9e:	2003      	movs	r0, #3
 8001fa0:	e1f6      	b.n	8002390 <HAL_RCC_OscConfig+0x654>
 8001fa2:	bf00      	nop
 8001fa4:	40021000 	.word	0x40021000
 8001fa8:	08002690 	.word	0x08002690
 8001fac:	20000028 	.word	0x20000028
 8001fb0:	20000004 	.word	0x20000004
       ((sysclk_source == RCC_CFGR_SWS_PLL) && (pll_config == RCC_PLLSOURCE_HSI)))
 8001fb4:	2e02      	cmp	r6, #2
 8001fb6:	d1bb      	bne.n	8001f30 <HAL_RCC_OscConfig+0x1f4>
      if((READ_BIT(RCC->CR, RCC_CR_HSIRDY) != 0U) && (RCC_OscInitStruct->HSIState == RCC_HSI_OFF))
 8001fb8:	4ba4      	ldr	r3, [pc, #656]	@ (800224c <HAL_RCC_OscConfig+0x510>)
 8001fba:	681b      	ldr	r3, [r3, #0]
 8001fbc:	f413 6f80 	tst.w	r3, #1024	@ 0x400
 8001fc0:	d003      	beq.n	8001fca <HAL_RCC_OscConfig+0x28e>
 8001fc2:	68e3      	ldr	r3, [r4, #12]
 8001fc4:	2b00      	cmp	r3, #0
 8001fc6:	f000 81e0 	beq.w	800238a <HAL_RCC_OscConfig+0x64e>
        __HAL_RCC_HSI_CALIBRATIONVALUE_ADJUST(RCC_OscInitStruct->HSICalibrationValue);
 8001fca:	4aa0      	ldr	r2, [pc, #640]	@ (800224c <HAL_RCC_OscConfig+0x510>)
 8001fcc:	6853      	ldr	r3, [r2, #4]
 8001fce:	f023 53f8 	bic.w	r3, r3, #520093696	@ 0x1f000000
 8001fd2:	6921      	ldr	r1, [r4, #16]
 8001fd4:	ea43 6301 	orr.w	r3, r3, r1, lsl #24
 8001fd8:	6053      	str	r3, [r2, #4]
  if(((RCC_OscInitStruct->OscillatorType) & RCC_OSCILLATORTYPE_LSI) == RCC_OSCILLATORTYPE_LSI)
 8001fda:	6823      	ldr	r3, [r4, #0]
 8001fdc:	f013 0f08 	tst.w	r3, #8
 8001fe0:	d04c      	beq.n	800207c <HAL_RCC_OscConfig+0x340>
    if(RCC_OscInitStruct->LSIState != RCC_LSI_OFF)
 8001fe2:	6963      	ldr	r3, [r4, #20]
 8001fe4:	b39b      	cbz	r3, 800204e <HAL_RCC_OscConfig+0x312>
      __HAL_RCC_LSI_ENABLE();
 8001fe6:	4a99      	ldr	r2, [pc, #612]	@ (800224c <HAL_RCC_OscConfig+0x510>)
 8001fe8:	f8d2 3094 	ldr.w	r3, [r2, #148]	@ 0x94
 8001fec:	f043 0301 	orr.w	r3, r3, #1
 8001ff0:	f8c2 3094 	str.w	r3, [r2, #148]	@ 0x94
      tickstart = HAL_GetTick();
 8001ff4:	f7fe fd64 	bl	8000ac0 <HAL_GetTick>
 8001ff8:	4606      	mov	r6, r0
      while(READ_BIT(RCC->CSR, RCC_CSR_LSIRDY) == 0U)
 8001ffa:	4b94      	ldr	r3, [pc, #592]	@ (800224c <HAL_RCC_OscConfig+0x510>)
 8001ffc:	f8d3 3094 	ldr.w	r3, [r3, #148]	@ 0x94
 8002000:	f013 0f02 	tst.w	r3, #2
 8002004:	d13a      	bne.n	800207c <HAL_RCC_OscConfig+0x340>
        if((HAL_GetTick() - tickstart) > LSI_TIMEOUT_VALUE)
 8002006:	f7fe fd5b 	bl	8000ac0 <HAL_GetTick>
 800200a:	1b80      	subs	r0, r0, r6
 800200c:	2802      	cmp	r0, #2
 800200e:	d9f4      	bls.n	8001ffa <HAL_RCC_OscConfig+0x2be>
          return HAL_TIMEOUT;
 8002010:	2003      	movs	r0, #3
 8002012:	e1bd      	b.n	8002390 <HAL_RCC_OscConfig+0x654>
        __HAL_RCC_HSI_CALIBRATIONVALUE_ADJUST(RCC_OscInitStruct->HSICalibrationValue);
 8002014:	4a8d      	ldr	r2, [pc, #564]	@ (800224c <HAL_RCC_OscConfig+0x510>)
 8002016:	6853      	ldr	r3, [r2, #4]
 8002018:	f023 53f8 	bic.w	r3, r3, #520093696	@ 0x1f000000
 800201c:	6921      	ldr	r1, [r4, #16]
 800201e:	ea43 6301 	orr.w	r3, r3, r1, lsl #24
 8002022:	6053      	str	r3, [r2, #4]
 8002024:	e7d9      	b.n	8001fda <HAL_RCC_OscConfig+0x29e>
        __HAL_RCC_HSI_DISABLE();
 8002026:	4a89      	ldr	r2, [pc, #548]	@ (800224c <HAL_RCC_OscConfig+0x510>)
 8002028:	6813      	ldr	r3, [r2, #0]
 800202a:	f423 7380 	bic.w	r3, r3, #256	@ 0x100
 800202e:	6013      	str	r3, [r2, #0]
        tickstart = HAL_GetTick();
 8002030:	f7fe fd46 	bl	8000ac0 <HAL_GetTick>
 8002034:	4606      	mov	r6, r0
        while(READ_BIT(RCC->CR, RCC_CR_HSIRDY) != 0U)
 8002036:	4b85      	ldr	r3, [pc, #532]	@ (800224c <HAL_RCC_OscConfig+0x510>)
 8002038:	681b      	ldr	r3, [r3, #0]
 800203a:	f413 6f80 	tst.w	r3, #1024	@ 0x400
 800203e:	d0cc      	beq.n	8001fda <HAL_RCC_OscConfig+0x29e>
          if((HAL_GetTick() - tickstart) > HSI_TIMEOUT_VALUE)
 8002040:	f7fe fd3e 	bl	8000ac0 <HAL_GetTick>
 8002044:	1b80      	subs	r0, r0, r6
 8002046:	2802      	cmp	r0, #2
 8002048:	d9f5      	bls.n	8002036 <HAL_RCC_OscConfig+0x2fa>
            return HAL_TIMEOUT;
 800204a:	2003      	movs	r0, #3
 800204c:	e1a0      	b.n	8002390 <HAL_RCC_OscConfig+0x654>
      __HAL_RCC_LSI_DISABLE();
 800204e:	4a7f      	ldr	r2, [pc, #508]	@ (800224c <HAL_RCC_OscConfig+0x510>)
 8002050:	f8d2 3094 	ldr.w	r3, [r2, #148]	@ 0x94
 8002054:	f023 0301 	bic.w	r3, r3, #1
 8002058:	f8c2 3094 	str.w	r3, [r2, #148]	@ 0x94
      tickstart = HAL_GetTick();
 800205c:	f7fe fd30 	bl	8000ac0 <HAL_GetTick>
 8002060:	4606      	mov	r6, r0
      while(READ_BIT(RCC->CSR, RCC_CSR_LSIRDY) != 0U)
 8002062:	4b7a      	ldr	r3, [pc, #488]	@ (800224c <HAL_RCC_OscConfig+0x510>)
 8002064:	f8d3 3094 	ldr.w	r3, [r3, #148]	@ 0x94
 8002068:	f013 0f02 	tst.w	r3, #2
 800206c:	d006      	beq.n	800207c <HAL_RCC_OscConfig+0x340>
        if((HAL_GetTick() - tickstart) > LSI_TIMEOUT_VALUE)
 800206e:	f7fe fd27 	bl	8000ac0 <HAL_GetTick>
 8002072:	1b80      	subs	r0, r0, r6
 8002074:	2802      	cmp	r0, #2
 8002076:	d9f4      	bls.n	8002062 <HAL_RCC_OscConfig+0x326>
          return HAL_TIMEOUT;
 8002078:	2003      	movs	r0, #3
 800207a:	e189      	b.n	8002390 <HAL_RCC_OscConfig+0x654>
  if(((RCC_OscInitStruct->OscillatorType) & RCC_OSCILLATORTYPE_LSE) == RCC_OSCILLATORTYPE_LSE)
 800207c:	6823      	ldr	r3, [r4, #0]
 800207e:	f013 0f04 	tst.w	r3, #4
 8002082:	d07a      	beq.n	800217a <HAL_RCC_OscConfig+0x43e>
    if(HAL_IS_BIT_CLR(RCC->APB1ENR1, RCC_APB1ENR1_PWREN))
 8002084:	4b71      	ldr	r3, [pc, #452]	@ (800224c <HAL_RCC_OscConfig+0x510>)
 8002086:	6d9b      	ldr	r3, [r3, #88]	@ 0x58
 8002088:	f013 5f80 	tst.w	r3, #268435456	@ 0x10000000
 800208c:	d136      	bne.n	80020fc <HAL_RCC_OscConfig+0x3c0>
      __HAL_RCC_PWR_CLK_ENABLE();
 800208e:	4b6f      	ldr	r3, [pc, #444]	@ (800224c <HAL_RCC_OscConfig+0x510>)
 8002090:	6d9a      	ldr	r2, [r3, #88]	@ 0x58
 8002092:	f042 5280 	orr.w	r2, r2, #268435456	@ 0x10000000
 8002096:	659a      	str	r2, [r3, #88]	@ 0x58
 8002098:	6d9b      	ldr	r3, [r3, #88]	@ 0x58
 800209a:	f003 5380 	and.w	r3, r3, #268435456	@ 0x10000000
 800209e:	9301      	str	r3, [sp, #4]
 80020a0:	9b01      	ldr	r3, [sp, #4]
      pwrclkchanged = SET;
 80020a2:	2601      	movs	r6, #1
    if(HAL_IS_BIT_CLR(PWR->CR1, PWR_CR1_DBP))
 80020a4:	4b6a      	ldr	r3, [pc, #424]	@ (8002250 <HAL_RCC_OscConfig+0x514>)
 80020a6:	681b      	ldr	r3, [r3, #0]
 80020a8:	f413 7f80 	tst.w	r3, #256	@ 0x100
 80020ac:	d028      	beq.n	8002100 <HAL_RCC_OscConfig+0x3c4>
    __HAL_RCC_LSE_CONFIG(RCC_OscInitStruct->LSEState);
 80020ae:	68a3      	ldr	r3, [r4, #8]
 80020b0:	2b01      	cmp	r3, #1
 80020b2:	d039      	beq.n	8002128 <HAL_RCC_OscConfig+0x3ec>
 80020b4:	2b05      	cmp	r3, #5
 80020b6:	d03f      	beq.n	8002138 <HAL_RCC_OscConfig+0x3fc>
 80020b8:	4b64      	ldr	r3, [pc, #400]	@ (800224c <HAL_RCC_OscConfig+0x510>)
 80020ba:	f8d3 2090 	ldr.w	r2, [r3, #144]	@ 0x90
 80020be:	f022 0201 	bic.w	r2, r2, #1
 80020c2:	f8c3 2090 	str.w	r2, [r3, #144]	@ 0x90
 80020c6:	f8d3 2090 	ldr.w	r2, [r3, #144]	@ 0x90
 80020ca:	f022 0204 	bic.w	r2, r2, #4
 80020ce:	f8c3 2090 	str.w	r2, [r3, #144]	@ 0x90
    if(RCC_OscInitStruct->LSEState != RCC_LSE_OFF)
 80020d2:	68a3      	ldr	r3, [r4, #8]
 80020d4:	2b00      	cmp	r3, #0
 80020d6:	d03d      	beq.n	8002154 <HAL_RCC_OscConfig+0x418>
      tickstart = HAL_GetTick();
 80020d8:	f7fe fcf2 	bl	8000ac0 <HAL_GetTick>
 80020dc:	4607      	mov	r7, r0
      while(READ_BIT(RCC->BDCR, RCC_BDCR_LSERDY) == 0U)
 80020de:	4b5b      	ldr	r3, [pc, #364]	@ (800224c <HAL_RCC_OscConfig+0x510>)
 80020e0:	f8d3 3090 	ldr.w	r3, [r3, #144]	@ 0x90
 80020e4:	f013 0f02 	tst.w	r3, #2
 80020e8:	d146      	bne.n	8002178 <HAL_RCC_OscConfig+0x43c>
        if((HAL_GetTick() - tickstart) > RCC_LSE_TIMEOUT_VALUE)
 80020ea:	f7fe fce9 	bl	8000ac0 <HAL_GetTick>
 80020ee:	1bc0      	subs	r0, r0, r7
 80020f0:	f241 3388 	movw	r3, #5000	@ 0x1388
 80020f4:	4298      	cmp	r0, r3
 80020f6:	d9f2      	bls.n	80020de <HAL_RCC_OscConfig+0x3a2>
          return HAL_TIMEOUT;
 80020f8:	2003      	movs	r0, #3
 80020fa:	e149      	b.n	8002390 <HAL_RCC_OscConfig+0x654>
    FlagStatus       pwrclkchanged = RESET;
 80020fc:	2600      	movs	r6, #0
 80020fe:	e7d1      	b.n	80020a4 <HAL_RCC_OscConfig+0x368>
      SET_BIT(PWR->CR1, PWR_CR1_DBP);
 8002100:	4a53      	ldr	r2, [pc, #332]	@ (8002250 <HAL_RCC_OscConfig+0x514>)
 8002102:	6813      	ldr	r3, [r2, #0]
 8002104:	f443 7380 	orr.w	r3, r3, #256	@ 0x100
 8002108:	6013      	str	r3, [r2, #0]
      tickstart = HAL_GetTick();
 800210a:	f7fe fcd9 	bl	8000ac0 <HAL_GetTick>
 800210e:	4607      	mov	r7, r0
      while(HAL_IS_BIT_CLR(PWR->CR1, PWR_CR1_DBP))
 8002110:	4b4f      	ldr	r3, [pc, #316]	@ (8002250 <HAL_RCC_OscConfig+0x514>)
 8002112:	681b      	ldr	r3, [r3, #0]
 8002114:	f413 7f80 	tst.w	r3, #256	@ 0x100
 8002118:	d1c9      	bne.n	80020ae <HAL_RCC_OscConfig+0x372>
        if((HAL_GetTick() - tickstart) > RCC_DBP_TIMEOUT_VALUE)
 800211a:	f7fe fcd1 	bl	8000ac0 <HAL_GetTick>
 800211e:	1bc0      	subs	r0, r0, r7
 8002120:	2802      	cmp	r0, #2
 8002122:	d9f5      	bls.n	8002110 <HAL_RCC_OscConfig+0x3d4>
          return HAL_TIMEOUT;
 8002124:	2003      	movs	r0, #3
 8002126:	e133      	b.n	8002390 <HAL_RCC_OscConfig+0x654>
    __HAL_RCC_LSE_CONFIG(RCC_OscInitStruct->LSEState);
 8002128:	4a48      	ldr	r2, [pc, #288]	@ (800224c <HAL_RCC_OscConfig+0x510>)
 800212a:	f8d2 3090 	ldr.w	r3, [r2, #144]	@ 0x90
 800212e:	f043 0301 	orr.w	r3, r3, #1
 8002132:	f8c2 3090 	str.w	r3, [r2, #144]	@ 0x90
 8002136:	e7cc      	b.n	80020d2 <HAL_RCC_OscConfig+0x396>
 8002138:	4b44      	ldr	r3, [pc, #272]	@ (800224c <HAL_RCC_OscConfig+0x510>)
 800213a:	f8d3 2090 	ldr.w	r2, [r3, #144]	@ 0x90
 800213e:	f042 0204 	orr.w	r2, r2, #4
 8002142:	f8c3 2090 	str.w	r2, [r3, #144]	@ 0x90
 8002146:	f8d3 2090 	ldr.w	r2, [r3, #144]	@ 0x90
 800214a:	f042 0201 	orr.w	r2, r2, #1
 800214e:	f8c3 2090 	str.w	r2, [r3, #144]	@ 0x90
 8002152:	e7be      	b.n	80020d2 <HAL_RCC_OscConfig+0x396>
      tickstart = HAL_GetTick();
 8002154:	f7fe fcb4 	bl	8000ac0 <HAL_GetTick>
 8002158:	4607      	mov	r7, r0
      while(READ_BIT(RCC->BDCR, RCC_BDCR_LSERDY) != 0U)
 800215a:	4b3c      	ldr	r3, [pc, #240]	@ (800224c <HAL_RCC_OscConfig+0x510>)
 800215c:	f8d3 3090 	ldr.w	r3, [r3, #144]	@ 0x90
 8002160:	f013 0f02 	tst.w	r3, #2
 8002164:	d008      	beq.n	8002178 <HAL_RCC_OscConfig+0x43c>
        if((HAL_GetTick() - tickstart) > RCC_LSE_TIMEOUT_VALUE)
 8002166:	f7fe fcab 	bl	8000ac0 <HAL_GetTick>
 800216a:	1bc0      	subs	r0, r0, r7
 800216c:	f241 3388 	movw	r3, #5000	@ 0x1388
 8002170:	4298      	cmp	r0, r3
 8002172:	d9f2      	bls.n	800215a <HAL_RCC_OscConfig+0x41e>
          return HAL_TIMEOUT;
 8002174:	2003      	movs	r0, #3
 8002176:	e10b      	b.n	8002390 <HAL_RCC_OscConfig+0x654>
    if(pwrclkchanged == SET)
 8002178:	b9e6      	cbnz	r6, 80021b4 <HAL_RCC_OscConfig+0x478>
  if(((RCC_OscInitStruct->OscillatorType) & RCC_OSCILLATORTYPE_HSI48) == RCC_OSCILLATORTYPE_HSI48)
 800217a:	6823      	ldr	r3, [r4, #0]
 800217c:	f013 0f20 	tst.w	r3, #32
 8002180:	d035      	beq.n	80021ee <HAL_RCC_OscConfig+0x4b2>
    if(RCC_OscInitStruct->HSI48State != RCC_HSI48_OFF)
 8002182:	6a63      	ldr	r3, [r4, #36]	@ 0x24
 8002184:	b1e3      	cbz	r3, 80021c0 <HAL_RCC_OscConfig+0x484>
      __HAL_RCC_HSI48_ENABLE();
 8002186:	4a31      	ldr	r2, [pc, #196]	@ (800224c <HAL_RCC_OscConfig+0x510>)
 8002188:	f8d2 3098 	ldr.w	r3, [r2, #152]	@ 0x98
 800218c:	f043 0301 	orr.w	r3, r3, #1
 8002190:	f8c2 3098 	str.w	r3, [r2, #152]	@ 0x98
      tickstart = HAL_GetTick();
 8002194:	f7fe fc94 	bl	8000ac0 <HAL_GetTick>
 8002198:	4606      	mov	r6, r0
      while(READ_BIT(RCC->CRRCR, RCC_CRRCR_HSI48RDY) == 0U)
 800219a:	4b2c      	ldr	r3, [pc, #176]	@ (800224c <HAL_RCC_OscConfig+0x510>)
 800219c:	f8d3 3098 	ldr.w	r3, [r3, #152]	@ 0x98
 80021a0:	f013 0f02 	tst.w	r3, #2
 80021a4:	d123      	bne.n	80021ee <HAL_RCC_OscConfig+0x4b2>
        if((HAL_GetTick() - tickstart) > HSI48_TIMEOUT_VALUE)
 80021a6:	f7fe fc8b 	bl	8000ac0 <HAL_GetTick>
 80021aa:	1b80      	subs	r0, r0, r6
 80021ac:	2802      	cmp	r0, #2
 80021ae:	d9f4      	bls.n	800219a <HAL_RCC_OscConfig+0x45e>
          return HAL_TIMEOUT;
 80021b0:	2003      	movs	r0, #3
 80021b2:	e0ed      	b.n	8002390 <HAL_RCC_OscConfig+0x654>
      __HAL_RCC_PWR_CLK_DISABLE();
 80021b4:	4a25      	ldr	r2, [pc, #148]	@ (800224c <HAL_RCC_OscConfig+0x510>)
 80021b6:	6d93      	ldr	r3, [r2, #88]	@ 0x58
 80021b8:	f023 5380 	bic.w	r3, r3, #268435456	@ 0x10000000
 80021bc:	6593      	str	r3, [r2, #88]	@ 0x58
 80021be:	e7dc      	b.n	800217a <HAL_RCC_OscConfig+0x43e>
      __HAL_RCC_HSI48_DISABLE();
 80021c0:	4a22      	ldr	r2, [pc, #136]	@ (800224c <HAL_RCC_OscConfig+0x510>)
 80021c2:	f8d2 3098 	ldr.w	r3, [r2, #152]	@ 0x98
 80021c6:	f023 0301 	bic.w	r3, r3, #1
 80021ca:	f8c2 3098 	str.w	r3, [r2, #152]	@ 0x98
      tickstart = HAL_GetTick();
 80021ce:	f7fe fc77 	bl	8000ac0 <HAL_GetTick>
 80021d2:	4606      	mov	r6, r0
      while(READ_BIT(RCC->CRRCR, RCC_CRRCR_HSI48RDY) != 0U)
 80021d4:	4b1d      	ldr	r3, [pc, #116]	@ (800224c <HAL_RCC_OscConfig+0x510>)
 80021d6:	f8d3 3098 	ldr.w	r3, [r3, #152]	@ 0x98
 80021da:	f013 0f02 	tst.w	r3, #2
 80021de:	d006      	beq.n	80021ee <HAL_RCC_OscConfig+0x4b2>
        if((HAL_GetTick() - tickstart) > HSI48_TIMEOUT_VALUE)
 80021e0:	f7fe fc6e 	bl	8000ac0 <HAL_GetTick>
 80021e4:	1b80      	subs	r0, r0, r6
 80021e6:	2802      	cmp	r0, #2
 80021e8:	d9f4      	bls.n	80021d4 <HAL_RCC_OscConfig+0x498>
          return HAL_TIMEOUT;
 80021ea:	2003      	movs	r0, #3
 80021ec:	e0d0      	b.n	8002390 <HAL_RCC_OscConfig+0x654>
  if(RCC_OscInitStruct->PLL.PLLState != RCC_PLL_NONE)
 80021ee:	6aa3      	ldr	r3, [r4, #40]	@ 0x28
 80021f0:	2b00      	cmp	r3, #0
 80021f2:	f000 80cc 	beq.w	800238e <HAL_RCC_OscConfig+0x652>
    if(RCC_OscInitStruct->PLL.PLLState == RCC_PLL_ON)
 80021f6:	2b02      	cmp	r3, #2
 80021f8:	d017      	beq.n	800222a <HAL_RCC_OscConfig+0x4ee>
      if(sysclk_source != RCC_CFGR_SWS_PLL)
 80021fa:	2d0c      	cmp	r5, #12
 80021fc:	f000 80cc 	beq.w	8002398 <HAL_RCC_OscConfig+0x65c>
        __HAL_RCC_PLL_DISABLE();
 8002200:	4a12      	ldr	r2, [pc, #72]	@ (800224c <HAL_RCC_OscConfig+0x510>)
 8002202:	6813      	ldr	r3, [r2, #0]
 8002204:	f023 7380 	bic.w	r3, r3, #16777216	@ 0x1000000
 8002208:	6013      	str	r3, [r2, #0]
        tickstart = HAL_GetTick();
 800220a:	f7fe fc59 	bl	8000ac0 <HAL_GetTick>
 800220e:	4604      	mov	r4, r0
        while(READ_BIT(RCC->CR, RCC_CR_PLLRDY) != 0U)
 8002210:	4b0e      	ldr	r3, [pc, #56]	@ (800224c <HAL_RCC_OscConfig+0x510>)
 8002212:	681b      	ldr	r3, [r3, #0]
 8002214:	f013 7f00 	tst.w	r3, #33554432	@ 0x2000000
 8002218:	f000 80a8 	beq.w	800236c <HAL_RCC_OscConfig+0x630>
          if((HAL_GetTick() - tickstart) > PLL_TIMEOUT_VALUE)
 800221c:	f7fe fc50 	bl	8000ac0 <HAL_GetTick>
 8002220:	1b00      	subs	r0, r0, r4
 8002222:	2802      	cmp	r0, #2
 8002224:	d9f4      	bls.n	8002210 <HAL_RCC_OscConfig+0x4d4>
            return HAL_TIMEOUT;
 8002226:	2003      	movs	r0, #3
 8002228:	e0b2      	b.n	8002390 <HAL_RCC_OscConfig+0x654>
      pll_config = RCC->PLLCFGR;
 800222a:	4b08      	ldr	r3, [pc, #32]	@ (800224c <HAL_RCC_OscConfig+0x510>)
 800222c:	68db      	ldr	r3, [r3, #12]
      if((READ_BIT(pll_config, RCC_PLLCFGR_PLLSRC)  != RCC_OscInitStruct->PLL.PLLSource) ||
 800222e:	f003 0103 	and.w	r1, r3, #3
 8002232:	6ae2      	ldr	r2, [r4, #44]	@ 0x2c
 8002234:	4291      	cmp	r1, r2
 8002236:	d00d      	beq.n	8002254 <HAL_RCC_OscConfig+0x518>
        if(sysclk_source != RCC_CFGR_SWS_PLL)
 8002238:	2d0c      	cmp	r5, #12
 800223a:	f000 80ab 	beq.w	8002394 <HAL_RCC_OscConfig+0x658>
          if((READ_BIT(RCC->CR, RCC_CR_PLLSAI1ON) != 0U)
 800223e:	4b03      	ldr	r3, [pc, #12]	@ (800224c <HAL_RCC_OscConfig+0x510>)
 8002240:	681b      	ldr	r3, [r3, #0]
 8002242:	f013 6f80 	tst.w	r3, #67108864	@ 0x4000000
 8002246:	d02f      	beq.n	80022a8 <HAL_RCC_OscConfig+0x56c>
            return HAL_ERROR;
 8002248:	2001      	movs	r0, #1
 800224a:	e0a1      	b.n	8002390 <HAL_RCC_OscConfig+0x654>
 800224c:	40021000 	.word	0x40021000
 8002250:	40007000 	.word	0x40007000
         (READ_BIT(pll_config, RCC_PLLCFGR_PLLM)    != ((RCC_OscInitStruct->PLL.PLLM - 1U) << RCC_PLLCFGR_PLLM_Pos)) ||
 8002254:	f003 0270 	and.w	r2, r3, #112	@ 0x70
 8002258:	6b21      	ldr	r1, [r4, #48]	@ 0x30
 800225a:	3901      	subs	r1, #1
      if((READ_BIT(pll_config, RCC_PLLCFGR_PLLSRC)  != RCC_OscInitStruct->PLL.PLLSource) ||
 800225c:	ebb2 1f01 	cmp.w	r2, r1, lsl #4
 8002260:	d1ea      	bne.n	8002238 <HAL_RCC_OscConfig+0x4fc>
         (READ_BIT(pll_config, RCC_PLLCFGR_PLLN)    != (RCC_OscInitStruct->PLL.PLLN << RCC_PLLCFGR_PLLN_Pos)) ||
 8002262:	f403 42fe 	and.w	r2, r3, #32512	@ 0x7f00
 8002266:	6b61      	ldr	r1, [r4, #52]	@ 0x34
         (READ_BIT(pll_config, RCC_PLLCFGR_PLLM)    != ((RCC_OscInitStruct->PLL.PLLM - 1U) << RCC_PLLCFGR_PLLM_Pos)) ||
 8002268:	ebb2 2f01 	cmp.w	r2, r1, lsl #8
 800226c:	d1e4      	bne.n	8002238 <HAL_RCC_OscConfig+0x4fc>
         (READ_BIT(pll_config, RCC_PLLCFGR_PLLPDIV) != (RCC_OscInitStruct->PLL.PLLP << RCC_PLLCFGR_PLLPDIV_Pos)) ||
 800226e:	f003 4278 	and.w	r2, r3, #4160749568	@ 0xf8000000
 8002272:	6ba1      	ldr	r1, [r4, #56]	@ 0x38
         (READ_BIT(pll_config, RCC_PLLCFGR_PLLN)    != (RCC_OscInitStruct->PLL.PLLN << RCC_PLLCFGR_PLLN_Pos)) ||
 8002274:	ebb2 6fc1 	cmp.w	r2, r1, lsl #27
 8002278:	d1de      	bne.n	8002238 <HAL_RCC_OscConfig+0x4fc>
         (READ_BIT(pll_config, RCC_PLLCFGR_PLLQ)    != ((((RCC_OscInitStruct->PLL.PLLQ) >> 1U) - 1U) << RCC_PLLCFGR_PLLQ_Pos)) ||
 800227a:	f403 01c0 	and.w	r1, r3, #6291456	@ 0x600000
 800227e:	6be2      	ldr	r2, [r4, #60]	@ 0x3c
 8002280:	0852      	lsrs	r2, r2, #1
 8002282:	3a01      	subs	r2, #1
         (READ_BIT(pll_config, RCC_PLLCFGR_PLLPDIV) != (RCC_OscInitStruct->PLL.PLLP << RCC_PLLCFGR_PLLPDIV_Pos)) ||
 8002284:	ebb1 5f42 	cmp.w	r1, r2, lsl #21
 8002288:	d1d6      	bne.n	8002238 <HAL_RCC_OscConfig+0x4fc>
         (READ_BIT(pll_config, RCC_PLLCFGR_PLLR)    != ((((RCC_OscInitStruct->PLL.PLLR) >> 1U) - 1U) << RCC_PLLCFGR_PLLR_Pos)))
 800228a:	f003 63c0 	and.w	r3, r3, #100663296	@ 0x6000000
 800228e:	6c22      	ldr	r2, [r4, #64]	@ 0x40
 8002290:	0852      	lsrs	r2, r2, #1
 8002292:	3a01      	subs	r2, #1
         (READ_BIT(pll_config, RCC_PLLCFGR_PLLQ)    != ((((RCC_OscInitStruct->PLL.PLLQ) >> 1U) - 1U) << RCC_PLLCFGR_PLLQ_Pos)) ||
 8002294:	ebb3 6f42 	cmp.w	r3, r2, lsl #25
 8002298:	d1ce      	bne.n	8002238 <HAL_RCC_OscConfig+0x4fc>
        if(READ_BIT(RCC->CR, RCC_CR_PLLRDY) == 0U)
 800229a:	4b40      	ldr	r3, [pc, #256]	@ (800239c <HAL_RCC_OscConfig+0x660>)
 800229c:	681b      	ldr	r3, [r3, #0]
 800229e:	f013 7f00 	tst.w	r3, #33554432	@ 0x2000000
 80022a2:	d049      	beq.n	8002338 <HAL_RCC_OscConfig+0x5fc>
  return HAL_OK;
 80022a4:	2000      	movs	r0, #0
 80022a6:	e073      	b.n	8002390 <HAL_RCC_OscConfig+0x654>
            __HAL_RCC_PLL_DISABLE();
 80022a8:	4a3c      	ldr	r2, [pc, #240]	@ (800239c <HAL_RCC_OscConfig+0x660>)
 80022aa:	6813      	ldr	r3, [r2, #0]
 80022ac:	f023 7380 	bic.w	r3, r3, #16777216	@ 0x1000000
 80022b0:	6013      	str	r3, [r2, #0]
            tickstart = HAL_GetTick();
 80022b2:	f7fe fc05 	bl	8000ac0 <HAL_GetTick>
 80022b6:	4605      	mov	r5, r0
            while(READ_BIT(RCC->CR, RCC_CR_PLLRDY) != 0U)
 80022b8:	4b38      	ldr	r3, [pc, #224]	@ (800239c <HAL_RCC_OscConfig+0x660>)
 80022ba:	681b      	ldr	r3, [r3, #0]
 80022bc:	f013 7f00 	tst.w	r3, #33554432	@ 0x2000000
 80022c0:	d006      	beq.n	80022d0 <HAL_RCC_OscConfig+0x594>
              if((HAL_GetTick() - tickstart) > PLL_TIMEOUT_VALUE)
 80022c2:	f7fe fbfd 	bl	8000ac0 <HAL_GetTick>
 80022c6:	1b40      	subs	r0, r0, r5
 80022c8:	2802      	cmp	r0, #2
 80022ca:	d9f5      	bls.n	80022b8 <HAL_RCC_OscConfig+0x57c>
                return HAL_TIMEOUT;
 80022cc:	2003      	movs	r0, #3
 80022ce:	e05f      	b.n	8002390 <HAL_RCC_OscConfig+0x654>
            __HAL_RCC_PLL_CONFIG(RCC_OscInitStruct->PLL.PLLSource,
 80022d0:	4a32      	ldr	r2, [pc, #200]	@ (800239c <HAL_RCC_OscConfig+0x660>)
 80022d2:	68d3      	ldr	r3, [r2, #12]
 80022d4:	4932      	ldr	r1, [pc, #200]	@ (80023a0 <HAL_RCC_OscConfig+0x664>)
 80022d6:	4019      	ands	r1, r3
 80022d8:	6ae3      	ldr	r3, [r4, #44]	@ 0x2c
 80022da:	6b20      	ldr	r0, [r4, #48]	@ 0x30
 80022dc:	3801      	subs	r0, #1
 80022de:	ea43 1300 	orr.w	r3, r3, r0, lsl #4
 80022e2:	6b60      	ldr	r0, [r4, #52]	@ 0x34
 80022e4:	ea43 2300 	orr.w	r3, r3, r0, lsl #8
 80022e8:	6be0      	ldr	r0, [r4, #60]	@ 0x3c
 80022ea:	0840      	lsrs	r0, r0, #1
 80022ec:	3801      	subs	r0, #1
 80022ee:	ea43 5340 	orr.w	r3, r3, r0, lsl #21
 80022f2:	6c20      	ldr	r0, [r4, #64]	@ 0x40
 80022f4:	0840      	lsrs	r0, r0, #1
 80022f6:	3801      	subs	r0, #1
 80022f8:	ea43 6340 	orr.w	r3, r3, r0, lsl #25
 80022fc:	6ba0      	ldr	r0, [r4, #56]	@ 0x38
 80022fe:	ea43 63c0 	orr.w	r3, r3, r0, lsl #27
 8002302:	4319      	orrs	r1, r3
 8002304:	60d1      	str	r1, [r2, #12]
            __HAL_RCC_PLL_ENABLE();
 8002306:	6813      	ldr	r3, [r2, #0]
 8002308:	f043 7380 	orr.w	r3, r3, #16777216	@ 0x1000000
 800230c:	6013      	str	r3, [r2, #0]
            __HAL_RCC_PLLCLKOUT_ENABLE(RCC_PLL_SYSCLK);
 800230e:	68d3      	ldr	r3, [r2, #12]
 8002310:	f043 7380 	orr.w	r3, r3, #16777216	@ 0x1000000
 8002314:	60d3      	str	r3, [r2, #12]
            tickstart = HAL_GetTick();
 8002316:	f7fe fbd3 	bl	8000ac0 <HAL_GetTick>
 800231a:	4604      	mov	r4, r0
            while(READ_BIT(RCC->CR, RCC_CR_PLLRDY) == 0U)
 800231c:	4b1f      	ldr	r3, [pc, #124]	@ (800239c <HAL_RCC_OscConfig+0x660>)
 800231e:	681b      	ldr	r3, [r3, #0]
 8002320:	f013 7f00 	tst.w	r3, #33554432	@ 0x2000000
 8002324:	d106      	bne.n	8002334 <HAL_RCC_OscConfig+0x5f8>
              if((HAL_GetTick() - tickstart) > PLL_TIMEOUT_VALUE)
 8002326:	f7fe fbcb 	bl	8000ac0 <HAL_GetTick>
 800232a:	1b00      	subs	r0, r0, r4
 800232c:	2802      	cmp	r0, #2
 800232e:	d9f5      	bls.n	800231c <HAL_RCC_OscConfig+0x5e0>
                return HAL_TIMEOUT;
 8002330:	2003      	movs	r0, #3
 8002332:	e02d      	b.n	8002390 <HAL_RCC_OscConfig+0x654>
  return HAL_OK;
 8002334:	2000      	movs	r0, #0
 8002336:	e02b      	b.n	8002390 <HAL_RCC_OscConfig+0x654>
          __HAL_RCC_PLL_ENABLE();
 8002338:	4b18      	ldr	r3, [pc, #96]	@ (800239c <HAL_RCC_OscConfig+0x660>)
 800233a:	681a      	ldr	r2, [r3, #0]
 800233c:	f042 7280 	orr.w	r2, r2, #16777216	@ 0x1000000
 8002340:	601a      	str	r2, [r3, #0]
          __HAL_RCC_PLLCLKOUT_ENABLE(RCC_PLL_SYSCLK);
 8002342:	68da      	ldr	r2, [r3, #12]
 8002344:	f042 7280 	orr.w	r2, r2, #16777216	@ 0x1000000
 8002348:	60da      	str	r2, [r3, #12]
          tickstart = HAL_GetTick();
 800234a:	f7fe fbb9 	bl	8000ac0 <HAL_GetTick>
 800234e:	4604      	mov	r4, r0
          while(READ_BIT(RCC->CR, RCC_CR_PLLRDY) == 0U)
 8002350:	4b12      	ldr	r3, [pc, #72]	@ (800239c <HAL_RCC_OscConfig+0x660>)
 8002352:	681b      	ldr	r3, [r3, #0]
 8002354:	f013 7f00 	tst.w	r3, #33554432	@ 0x2000000
 8002358:	d106      	bne.n	8002368 <HAL_RCC_OscConfig+0x62c>
            if((HAL_GetTick() - tickstart) > PLL_TIMEOUT_VALUE)
 800235a:	f7fe fbb1 	bl	8000ac0 <HAL_GetTick>
 800235e:	1b03      	subs	r3, r0, r4
 8002360:	2b02      	cmp	r3, #2
 8002362:	d9f5      	bls.n	8002350 <HAL_RCC_OscConfig+0x614>
              return HAL_TIMEOUT;
 8002364:	2003      	movs	r0, #3
 8002366:	e013      	b.n	8002390 <HAL_RCC_OscConfig+0x654>
  return HAL_OK;
 8002368:	2000      	movs	r0, #0
 800236a:	e011      	b.n	8002390 <HAL_RCC_OscConfig+0x654>
        RCC->PLLCFGR &= ~(RCC_PLLCFGR_PLLSRC | RCC_PLL_SYSCLK | RCC_PLL_48M1CLK | RCC_PLL_SAI2CLK);
 800236c:	4a0b      	ldr	r2, [pc, #44]	@ (800239c <HAL_RCC_OscConfig+0x660>)
 800236e:	68d1      	ldr	r1, [r2, #12]
 8002370:	4b0c      	ldr	r3, [pc, #48]	@ (80023a4 <HAL_RCC_OscConfig+0x668>)
 8002372:	400b      	ands	r3, r1
 8002374:	60d3      	str	r3, [r2, #12]
  return HAL_OK;
 8002376:	2000      	movs	r0, #0
 8002378:	e00a      	b.n	8002390 <HAL_RCC_OscConfig+0x654>
    return HAL_ERROR;
 800237a:	2001      	movs	r0, #1
}
 800237c:	4770      	bx	lr
        return HAL_ERROR;
 800237e:	2001      	movs	r0, #1
 8002380:	e006      	b.n	8002390 <HAL_RCC_OscConfig+0x654>
            return HAL_ERROR;
 8002382:	2001      	movs	r0, #1
 8002384:	e004      	b.n	8002390 <HAL_RCC_OscConfig+0x654>
        return HAL_ERROR;
 8002386:	2001      	movs	r0, #1
 8002388:	e002      	b.n	8002390 <HAL_RCC_OscConfig+0x654>
        return HAL_ERROR;
 800238a:	2001      	movs	r0, #1
 800238c:	e000      	b.n	8002390 <HAL_RCC_OscConfig+0x654>
  return HAL_OK;
 800238e:	2000      	movs	r0, #0
}
 8002390:	b003      	add	sp, #12
 8002392:	bdf0      	pop	{r4, r5, r6, r7, pc}
          return HAL_ERROR;
 8002394:	2001      	movs	r0, #1
 8002396:	e7fb      	b.n	8002390 <HAL_RCC_OscConfig+0x654>
        return HAL_ERROR;
 8002398:	2001      	movs	r0, #1
 800239a:	e7f9      	b.n	8002390 <HAL_RCC_OscConfig+0x654>
 800239c:	40021000 	.word	0x40021000
 80023a0:	019d808c 	.word	0x019d808c
 80023a4:	feeefffc 	.word	0xfeeefffc

080023a8 <HAL_RCC_ClockConfig>:
  if(RCC_ClkInitStruct == NULL)
 80023a8:	2800      	cmp	r0, #0
 80023aa:	f000 80af 	beq.w	800250c <HAL_RCC_ClockConfig+0x164>
{
 80023ae:	b570      	push	{r4, r5, r6, lr}
 80023b0:	460d      	mov	r5, r1
 80023b2:	4604      	mov	r4, r0
  if(FLatency > __HAL_FLASH_GET_LATENCY())
 80023b4:	4b59      	ldr	r3, [pc, #356]	@ (800251c <HAL_RCC_ClockConfig+0x174>)
 80023b6:	681b      	ldr	r3, [r3, #0]
 80023b8:	f003 0307 	and.w	r3, r3, #7
 80023bc:	428b      	cmp	r3, r1
 80023be:	d20b      	bcs.n	80023d8 <HAL_RCC_ClockConfig+0x30>
    __HAL_FLASH_SET_LATENCY(FLatency);
 80023c0:	4a56      	ldr	r2, [pc, #344]	@ (800251c <HAL_RCC_ClockConfig+0x174>)
 80023c2:	6813      	ldr	r3, [r2, #0]
 80023c4:	f023 0307 	bic.w	r3, r3, #7
 80023c8:	430b      	orrs	r3, r1
 80023ca:	6013      	str	r3, [r2, #0]
    if(__HAL_FLASH_GET_LATENCY() != FLatency)
 80023cc:	6813      	ldr	r3, [r2, #0]
 80023ce:	f003 0307 	and.w	r3, r3, #7
 80023d2:	428b      	cmp	r3, r1
 80023d4:	f040 809c 	bne.w	8002510 <HAL_RCC_ClockConfig+0x168>
  if(((RCC_ClkInitStruct->ClockType) & RCC_CLOCKTYPE_HCLK) == RCC_CLOCKTYPE_HCLK)
 80023d8:	6823      	ldr	r3, [r4, #0]
 80023da:	f013 0f02 	tst.w	r3, #2
 80023de:	d00c      	beq.n	80023fa <HAL_RCC_ClockConfig+0x52>
    if(RCC_ClkInitStruct->AHBCLKDivider > READ_BIT(RCC->CFGR, RCC_CFGR_HPRE))
 80023e0:	68a2      	ldr	r2, [r4, #8]
 80023e2:	4b4f      	ldr	r3, [pc, #316]	@ (8002520 <HAL_RCC_ClockConfig+0x178>)
 80023e4:	689b      	ldr	r3, [r3, #8]
 80023e6:	f003 03f0 	and.w	r3, r3, #240	@ 0xf0
 80023ea:	429a      	cmp	r2, r3
 80023ec:	d905      	bls.n	80023fa <HAL_RCC_ClockConfig+0x52>
      MODIFY_REG(RCC->CFGR, RCC_CFGR_HPRE, RCC_ClkInitStruct->AHBCLKDivider);
 80023ee:	494c      	ldr	r1, [pc, #304]	@ (8002520 <HAL_RCC_ClockConfig+0x178>)
 80023f0:	688b      	ldr	r3, [r1, #8]
 80023f2:	f023 03f0 	bic.w	r3, r3, #240	@ 0xf0
 80023f6:	431a      	orrs	r2, r3
 80023f8:	608a      	str	r2, [r1, #8]
  if(((RCC_ClkInitStruct->ClockType) & RCC_CLOCKTYPE_SYSCLK) == RCC_CLOCKTYPE_SYSCLK)
 80023fa:	6823      	ldr	r3, [r4, #0]
 80023fc:	f013 0f01 	tst.w	r3, #1
 8002400:	d039      	beq.n	8002476 <HAL_RCC_ClockConfig+0xce>
    if(RCC_ClkInitStruct->SYSCLKSource == RCC_SYSCLKSOURCE_PLLCLK)
 8002402:	6863      	ldr	r3, [r4, #4]
 8002404:	2b03      	cmp	r3, #3
 8002406:	d009      	beq.n	800241c <HAL_RCC_ClockConfig+0x74>
      if(RCC_ClkInitStruct->SYSCLKSource == RCC_SYSCLKSOURCE_HSE)
 8002408:	2b02      	cmp	r3, #2
 800240a:	d026      	beq.n	800245a <HAL_RCC_ClockConfig+0xb2>
      else if(RCC_ClkInitStruct->SYSCLKSource == RCC_SYSCLKSOURCE_MSI)
 800240c:	bb63      	cbnz	r3, 8002468 <HAL_RCC_ClockConfig+0xc0>
        if(READ_BIT(RCC->CR, RCC_CR_MSIRDY) == 0U)
 800240e:	4a44      	ldr	r2, [pc, #272]	@ (8002520 <HAL_RCC_ClockConfig+0x178>)
 8002410:	6812      	ldr	r2, [r2, #0]
 8002412:	f012 0f02 	tst.w	r2, #2
 8002416:	d106      	bne.n	8002426 <HAL_RCC_ClockConfig+0x7e>
          return HAL_ERROR;
 8002418:	2001      	movs	r0, #1
 800241a:	e076      	b.n	800250a <HAL_RCC_ClockConfig+0x162>
      if(READ_BIT(RCC->CR, RCC_CR_PLLRDY) == 0U)
 800241c:	4a40      	ldr	r2, [pc, #256]	@ (8002520 <HAL_RCC_ClockConfig+0x178>)
 800241e:	6812      	ldr	r2, [r2, #0]
 8002420:	f012 7f00 	tst.w	r2, #33554432	@ 0x2000000
 8002424:	d076      	beq.n	8002514 <HAL_RCC_ClockConfig+0x16c>
    MODIFY_REG(RCC->CFGR, RCC_CFGR_SW, RCC_ClkInitStruct->SYSCLKSource);
 8002426:	493e      	ldr	r1, [pc, #248]	@ (8002520 <HAL_RCC_ClockConfig+0x178>)
 8002428:	688a      	ldr	r2, [r1, #8]
 800242a:	f022 0203 	bic.w	r2, r2, #3
 800242e:	4313      	orrs	r3, r2
 8002430:	608b      	str	r3, [r1, #8]
    tickstart = HAL_GetTick();
 8002432:	f7fe fb45 	bl	8000ac0 <HAL_GetTick>
 8002436:	4606      	mov	r6, r0
    while(__HAL_RCC_GET_SYSCLK_SOURCE() != (RCC_ClkInitStruct->SYSCLKSource << RCC_CFGR_SWS_Pos))
 8002438:	4b39      	ldr	r3, [pc, #228]	@ (8002520 <HAL_RCC_ClockConfig+0x178>)
 800243a:	689b      	ldr	r3, [r3, #8]
 800243c:	f003 030c 	and.w	r3, r3, #12
 8002440:	6862      	ldr	r2, [r4, #4]
 8002442:	ebb3 0f82 	cmp.w	r3, r2, lsl #2
 8002446:	d016      	beq.n	8002476 <HAL_RCC_ClockConfig+0xce>
      if((HAL_GetTick() - tickstart) > CLOCKSWITCH_TIMEOUT_VALUE)
 8002448:	f7fe fb3a 	bl	8000ac0 <HAL_GetTick>
 800244c:	1b80      	subs	r0, r0, r6
 800244e:	f241 3388 	movw	r3, #5000	@ 0x1388
 8002452:	4298      	cmp	r0, r3
 8002454:	d9f0      	bls.n	8002438 <HAL_RCC_ClockConfig+0x90>
        return HAL_TIMEOUT;
 8002456:	2003      	movs	r0, #3
 8002458:	e057      	b.n	800250a <HAL_RCC_ClockConfig+0x162>
        if(READ_BIT(RCC->CR, RCC_CR_HSERDY) == 0U)
 800245a:	4a31      	ldr	r2, [pc, #196]	@ (8002520 <HAL_RCC_ClockConfig+0x178>)
 800245c:	6812      	ldr	r2, [r2, #0]
 800245e:	f412 3f00 	tst.w	r2, #131072	@ 0x20000
 8002462:	d1e0      	bne.n	8002426 <HAL_RCC_ClockConfig+0x7e>
          return HAL_ERROR;
 8002464:	2001      	movs	r0, #1
 8002466:	e050      	b.n	800250a <HAL_RCC_ClockConfig+0x162>
        if(READ_BIT(RCC->CR, RCC_CR_HSIRDY) == 0U)
 8002468:	4a2d      	ldr	r2, [pc, #180]	@ (8002520 <HAL_RCC_ClockConfig+0x178>)
 800246a:	6812      	ldr	r2, [r2, #0]
 800246c:	f412 6f80 	tst.w	r2, #1024	@ 0x400
 8002470:	d1d9      	bne.n	8002426 <HAL_RCC_ClockConfig+0x7e>
          return HAL_ERROR;
 8002472:	2001      	movs	r0, #1
 8002474:	e049      	b.n	800250a <HAL_RCC_ClockConfig+0x162>
  if(((RCC_ClkInitStruct->ClockType) & RCC_CLOCKTYPE_HCLK) == RCC_CLOCKTYPE_HCLK)
 8002476:	6823      	ldr	r3, [r4, #0]
 8002478:	f013 0f02 	tst.w	r3, #2
 800247c:	d00c      	beq.n	8002498 <HAL_RCC_ClockConfig+0xf0>
    if(RCC_ClkInitStruct->AHBCLKDivider < READ_BIT(RCC->CFGR, RCC_CFGR_HPRE))
 800247e:	68a2      	ldr	r2, [r4, #8]
 8002480:	4b27      	ldr	r3, [pc, #156]	@ (8002520 <HAL_RCC_ClockConfig+0x178>)
 8002482:	689b      	ldr	r3, [r3, #8]
 8002484:	f003 03f0 	and.w	r3, r3, #240	@ 0xf0
 8002488:	429a      	cmp	r2, r3
 800248a:	d205      	bcs.n	8002498 <HAL_RCC_ClockConfig+0xf0>
      MODIFY_REG(RCC->CFGR, RCC_CFGR_HPRE, RCC_ClkInitStruct->AHBCLKDivider);
 800248c:	4924      	ldr	r1, [pc, #144]	@ (8002520 <HAL_RCC_ClockConfig+0x178>)
 800248e:	688b      	ldr	r3, [r1, #8]
 8002490:	f023 03f0 	bic.w	r3, r3, #240	@ 0xf0
 8002494:	431a      	orrs	r2, r3
 8002496:	608a      	str	r2, [r1, #8]
  if(FLatency < __HAL_FLASH_GET_LATENCY())
 8002498:	4b20      	ldr	r3, [pc, #128]	@ (800251c <HAL_RCC_ClockConfig+0x174>)
 800249a:	681b      	ldr	r3, [r3, #0]
 800249c:	f003 0307 	and.w	r3, r3, #7
 80024a0:	42ab      	cmp	r3, r5
 80024a2:	d90a      	bls.n	80024ba <HAL_RCC_ClockConfig+0x112>
    __HAL_FLASH_SET_LATENCY(FLatency);
 80024a4:	4a1d      	ldr	r2, [pc, #116]	@ (800251c <HAL_RCC_ClockConfig+0x174>)
 80024a6:	6813      	ldr	r3, [r2, #0]
 80024a8:	f023 0307 	bic.w	r3, r3, #7
 80024ac:	432b      	orrs	r3, r5
 80024ae:	6013      	str	r3, [r2, #0]
    if(__HAL_FLASH_GET_LATENCY() != FLatency)
 80024b0:	6813      	ldr	r3, [r2, #0]
 80024b2:	f003 0307 	and.w	r3, r3, #7
 80024b6:	42ab      	cmp	r3, r5
 80024b8:	d12e      	bne.n	8002518 <HAL_RCC_ClockConfig+0x170>
  if(((RCC_ClkInitStruct->ClockType) & RCC_CLOCKTYPE_PCLK1) == RCC_CLOCKTYPE_PCLK1)
 80024ba:	6823      	ldr	r3, [r4, #0]
 80024bc:	f013 0f04 	tst.w	r3, #4
 80024c0:	d006      	beq.n	80024d0 <HAL_RCC_ClockConfig+0x128>
    MODIFY_REG(RCC->CFGR, RCC_CFGR_PPRE1, RCC_ClkInitStruct->APB1CLKDivider);
 80024c2:	4a17      	ldr	r2, [pc, #92]	@ (8002520 <HAL_RCC_ClockConfig+0x178>)
 80024c4:	6893      	ldr	r3, [r2, #8]
 80024c6:	f423 63e0 	bic.w	r3, r3, #1792	@ 0x700
 80024ca:	68e1      	ldr	r1, [r4, #12]
 80024cc:	430b      	orrs	r3, r1
 80024ce:	6093      	str	r3, [r2, #8]
  if(((RCC_ClkInitStruct->ClockType) & RCC_CLOCKTYPE_PCLK2) == RCC_CLOCKTYPE_PCLK2)
 80024d0:	6823      	ldr	r3, [r4, #0]
 80024d2:	f013 0f08 	tst.w	r3, #8
 80024d6:	d007      	beq.n	80024e8 <HAL_RCC_ClockConfig+0x140>
    MODIFY_REG(RCC->CFGR, RCC_CFGR_PPRE2, ((RCC_ClkInitStruct->APB2CLKDivider) << 3U));
 80024d8:	4a11      	ldr	r2, [pc, #68]	@ (8002520 <HAL_RCC_ClockConfig+0x178>)
 80024da:	6893      	ldr	r3, [r2, #8]
 80024dc:	f423 5360 	bic.w	r3, r3, #14336	@ 0x3800
 80024e0:	6921      	ldr	r1, [r4, #16]
 80024e2:	ea43 03c1 	orr.w	r3, r3, r1, lsl #3
 80024e6:	6093      	str	r3, [r2, #8]
  SystemCoreClock = HAL_RCC_GetSysClockFreq() >> (AHBPrescTable[READ_BIT(RCC->CFGR, RCC_CFGR_HPRE) >> RCC_CFGR_HPRE_Pos] & 0x1FU);
 80024e8:	f7ff fbd4 	bl	8001c94 <HAL_RCC_GetSysClockFreq>
 80024ec:	4b0c      	ldr	r3, [pc, #48]	@ (8002520 <HAL_RCC_ClockConfig+0x178>)
 80024ee:	689b      	ldr	r3, [r3, #8]
 80024f0:	f3c3 1303 	ubfx	r3, r3, #4, #4
 80024f4:	4a0b      	ldr	r2, [pc, #44]	@ (8002524 <HAL_RCC_ClockConfig+0x17c>)
 80024f6:	5cd3      	ldrb	r3, [r2, r3]
 80024f8:	f003 031f 	and.w	r3, r3, #31
 80024fc:	40d8      	lsrs	r0, r3
 80024fe:	4b0a      	ldr	r3, [pc, #40]	@ (8002528 <HAL_RCC_ClockConfig+0x180>)
 8002500:	6018      	str	r0, [r3, #0]
  status = HAL_InitTick(uwTickPrio);
 8002502:	4b0a      	ldr	r3, [pc, #40]	@ (800252c <HAL_RCC_ClockConfig+0x184>)
 8002504:	6818      	ldr	r0, [r3, #0]
 8002506:	f7fe fa97 	bl	8000a38 <HAL_InitTick>
}
 800250a:	bd70      	pop	{r4, r5, r6, pc}
    return HAL_ERROR;
 800250c:	2001      	movs	r0, #1
}
 800250e:	4770      	bx	lr
      return HAL_ERROR;
 8002510:	2001      	movs	r0, #1
 8002512:	e7fa      	b.n	800250a <HAL_RCC_ClockConfig+0x162>
        return HAL_ERROR;
 8002514:	2001      	movs	r0, #1
 8002516:	e7f8      	b.n	800250a <HAL_RCC_ClockConfig+0x162>
      return HAL_ERROR;
 8002518:	2001      	movs	r0, #1
 800251a:	e7f6      	b.n	800250a <HAL_RCC_ClockConfig+0x162>
 800251c:	40022000 	.word	0x40022000
 8002520:	40021000 	.word	0x40021000
 8002524:	08002690 	.word	0x08002690
 8002528:	20000028 	.word	0x20000028
 800252c:	20000004 	.word	0x20000004

08002530 <NMI_Handler>:
{
  /* USER CODE BEGIN NonMaskableInt_IRQn 0 */

  /* USER CODE END NonMaskableInt_IRQn 0 */
  /* USER CODE BEGIN NonMaskableInt_IRQn 1 */
   while (1)
 8002530:	e7fe      	b.n	8002530 <NMI_Handler>

08002532 <HardFault_Handler>:
void HardFault_Handler(void)
{
  /* USER CODE BEGIN HardFault_IRQn 0 */

  /* USER CODE END HardFault_IRQn 0 */
  while (1)
 8002532:	e7fe      	b.n	8002532 <HardFault_Handler>

08002534 <MemManage_Handler>:
void MemManage_Handler(void)
{
  /* USER CODE BEGIN MemoryManagement_IRQn 0 */

  /* USER CODE END MemoryManagement_IRQn 0 */
  while (1)
 8002534:	e7fe      	b.n	8002534 <MemManage_Handler>

08002536 <BusFault_Handler>:
void BusFault_Handler(void)
{
  /* USER CODE BEGIN BusFault_IRQn 0 */

  /* USER CODE END BusFault_IRQn 0 */
  while (1)
 8002536:	e7fe      	b.n	8002536 <BusFault_Handler>

08002538 <UsageFault_Handler>:
void UsageFault_Handler(void)
{
  /* USER CODE BEGIN UsageFault_IRQn 0 */

  /* USER CODE END UsageFault_IRQn 0 */
  while (1)
 8002538:	e7fe      	b.n	8002538 <UsageFault_Handler>

0800253a <SVC_Handler>:

  /* USER CODE END SVCall_IRQn 0 */
  /* USER CODE BEGIN SVCall_IRQn 1 */

  /* USER CODE END SVCall_IRQn 1 */
}
 800253a:	4770      	bx	lr

0800253c <DebugMon_Handler>:

  /* USER CODE END DebugMonitor_IRQn 0 */
  /* USER CODE BEGIN DebugMonitor_IRQn 1 */

  /* USER CODE END DebugMonitor_IRQn 1 */
}
 800253c:	4770      	bx	lr

0800253e <PendSV_Handler>:

  /* USER CODE END PendSV_IRQn 0 */
  /* USER CODE BEGIN PendSV_IRQn 1 */

  /* USER CODE END PendSV_IRQn 1 */
}
 800253e:	4770      	bx	lr

08002540 <SysTick_Handler>:

/**
  * @brief This function handles System tick timer.
  */
void SysTick_Handler(void)
{
 8002540:	b508      	push	{r3, lr}
  /* USER CODE BEGIN SysTick_IRQn 0 */

  /* USER CODE END SysTick_IRQn 0 */
  HAL_IncTick();
 8002542:	f7fe fab1 	bl	8000aa8 <HAL_IncTick>
  /* USER CODE BEGIN SysTick_IRQn 1 */

  /* USER CODE END SysTick_IRQn 1 */
}
 8002546:	bd08      	pop	{r3, pc}

08002548 <CAN1_RX0_IRQHandler>:

/**
  * @brief This function handles CAN1 RX0 interrupt.
  */
void CAN1_RX0_IRQHandler(void)
{
 8002548:	b508      	push	{r3, lr}
  /* USER CODE BEGIN CAN1_RX0_IRQn 0 */

  /* USER CODE END CAN1_RX0_IRQn 0 */
  HAL_CAN_IRQHandler(&hcan1);
 800254a:	4802      	ldr	r0, [pc, #8]	@ (8002554 <CAN1_RX0_IRQHandler+0xc>)
 800254c:	f7fe fdcd 	bl	80010ea <HAL_CAN_IRQHandler>
  /* USER CODE BEGIN CAN1_RX0_IRQn 1 */

  /* USER CODE END CAN1_RX0_IRQn 1 */
}
 8002550:	bd08      	pop	{r3, pc}
 8002552:	bf00      	nop
 8002554:	200000b8 	.word	0x200000b8

08002558 <CAN1_RX1_IRQHandler>:

/**
  * @brief This function handles CAN1 RX1 interrupt.
  */
void CAN1_RX1_IRQHandler(void)
{
 8002558:	b508      	push	{r3, lr}
  /* USER CODE BEGIN CAN1_RX1_IRQn 0 */

  /* USER CODE END CAN1_RX1_IRQn 0 */
  HAL_CAN_IRQHandler(&hcan1);
 800255a:	4802      	ldr	r0, [pc, #8]	@ (8002564 <CAN1_RX1_IRQHandler+0xc>)
 800255c:	f7fe fdc5 	bl	80010ea <HAL_CAN_IRQHandler>
  /* USER CODE BEGIN CAN1_RX1_IRQn 1 */

  /* USER CODE END CAN1_RX1_IRQn 1 */
}
 8002560:	bd08      	pop	{r3, pc}
 8002562:	bf00      	nop
 8002564:	200000b8 	.word	0x200000b8

08002568 <CAN1_TX_IRQHandler>:

/**
  * @brief This function handles CAN1 TX interrupt.
  */
void CAN1_TX_IRQHandler(void)
{
 8002568:	b508      	push	{r3, lr}
  /* USER CODE BEGIN CAN1_TX_IRQn 0 */

  /* USER CODE END CAN1_TX_IRQn 0 */
  HAL_CAN_IRQHandler(&hcan1);
 800256a:	4802      	ldr	r0, [pc, #8]	@ (8002574 <CAN1_TX_IRQHandler+0xc>)
 800256c:	f7fe fdbd 	bl	80010ea <HAL_CAN_IRQHandler>
  /* USER CODE BEGIN CAN1_TX_IRQn 1 */

  /* USER CODE END CAN1_TX_IRQn 1 */
}
 8002570:	bd08      	pop	{r3, pc}
 8002572:	bf00      	nop
 8002574:	200000b8 	.word	0x200000b8

08002578 <CAN1_SCE_IRQHandler>:

/**
  * @brief This function handles CAN1 SCE interrupt.
  */
void CAN1_SCE_IRQHandler(void)
{
 8002578:	b508      	push	{r3, lr}
  /* USER CODE BEGIN CAN1_SCE_IRQn 0 */

  /* USER CODE END CAN1_SCE_IRQn 0 */
  HAL_CAN_IRQHandler(&hcan1);
 800257a:	4802      	ldr	r0, [pc, #8]	@ (8002584 <CAN1_SCE_IRQHandler+0xc>)
 800257c:	f7fe fdb5 	bl	80010ea <HAL_CAN_IRQHandler>
  /* USER CODE BEGIN CAN1_SCE_IRQn 1 */

  /* USER CODE END CAN1_SCE_IRQn 1 */
}
 8002580:	bd08      	pop	{r3, pc}
 8002582:	bf00      	nop
 8002584:	200000b8 	.word	0x200000b8

08002588 <SystemInit>:
  SCB->VTOR = VECT_TAB_BASE_ADDRESS | VECT_TAB_OFFSET;
#endif

  /* FPU settings ------------------------------------------------------------*/
#if (__FPU_PRESENT == 1) && (__FPU_USED == 1)
  SCB->CPACR |= ((3UL << 20U)|(3UL << 22U));  /* set CP10 and CP11 Full Access */
 8002588:	4a03      	ldr	r2, [pc, #12]	@ (8002598 <SystemInit+0x10>)
 800258a:	f8d2 3088 	ldr.w	r3, [r2, #136]	@ 0x88
 800258e:	f443 0370 	orr.w	r3, r3, #15728640	@ 0xf00000
 8002592:	f8c2 3088 	str.w	r3, [r2, #136]	@ 0x88
#endif
}
 8002596:	4770      	bx	lr
 8002598:	e000ed00 	.word	0xe000ed00

0800259c <Reset_Handler>:

    .section	.text.Reset_Handler
	.weak	Reset_Handler
	.type	Reset_Handler, %function
Reset_Handler:
  ldr   sp, =_estack    /* Set stack pointer */
 800259c:	f8df d034 	ldr.w	sp, [pc, #52]	@ 80025d4 <LoopForever+0x2>

/* Call the clock system initialization function.*/
    bl  SystemInit
 80025a0:	f7ff fff2 	bl	8002588 <SystemInit>

/* Copy the data segment initializers from flash to SRAM */
  ldr r0, =_sdata
 80025a4:	480c      	ldr	r0, [pc, #48]	@ (80025d8 <LoopForever+0x6>)
  ldr r1, =_edata
 80025a6:	490d      	ldr	r1, [pc, #52]	@ (80025dc <LoopForever+0xa>)
  ldr r2, =_sidata
 80025a8:	4a0d      	ldr	r2, [pc, #52]	@ (80025e0 <LoopForever+0xe>)
  movs r3, #0
 80025aa:	2300      	movs	r3, #0
  b LoopCopyDataInit
 80025ac:	e002      	b.n	80025b4 <LoopCopyDataInit>

080025ae <CopyDataInit>:

CopyDataInit:
  ldr r4, [r2, r3]
 80025ae:	58d4      	ldr	r4, [r2, r3]
  str r4, [r0, r3]
 80025b0:	50c4      	str	r4, [r0, r3]
  adds r3, r3, #4
 80025b2:	3304      	adds	r3, #4

080025b4 <LoopCopyDataInit>:

LoopCopyDataInit:
  adds r4, r0, r3
 80025b4:	18c4      	adds	r4, r0, r3
  cmp r4, r1
 80025b6:	428c      	cmp	r4, r1
  bcc CopyDataInit
 80025b8:	d3f9      	bcc.n	80025ae <CopyDataInit>
  
/* Zero fill the bss segment. */
  ldr r2, =_sbss
 80025ba:	4a0a      	ldr	r2, [pc, #40]	@ (80025e4 <LoopForever+0x12>)
  ldr r4, =_ebss
 80025bc:	4c0a      	ldr	r4, [pc, #40]	@ (80025e8 <LoopForever+0x16>)
  movs r3, #0
 80025be:	2300      	movs	r3, #0
  b LoopFillZerobss
 80025c0:	e001      	b.n	80025c6 <LoopFillZerobss>

080025c2 <FillZerobss>:

FillZerobss:
  str  r3, [r2]
 80025c2:	6013      	str	r3, [r2, #0]
  adds r2, r2, #4
 80025c4:	3204      	adds	r2, #4

080025c6 <LoopFillZerobss>:

LoopFillZerobss:
  cmp r2, r4
 80025c6:	42a2      	cmp	r2, r4
  bcc FillZerobss
 80025c8:	d3fb      	bcc.n	80025c2 <FillZerobss>

/* Call static constructors */
    bl __libc_init_array
 80025ca:	f000 f819 	bl	8002600 <__libc_init_array>
/* Call the application's entry point.*/
	bl	main
 80025ce:	f7fe fa21 	bl	8000a14 <main>

080025d2 <LoopForever>:

LoopForever:
    b LoopForever
 80025d2:	e7fe      	b.n	80025d2 <LoopForever>
  ldr   sp, =_estack    /* Set stack pointer */
 80025d4:	2000c000 	.word	0x2000c000
  ldr r0, =_sdata
 80025d8:	20000000 	.word	0x20000000
  ldr r1, =_edata
 80025dc:	20000030 	.word	0x20000030
  ldr r2, =_sidata
 80025e0:	080026b0 	.word	0x080026b0
  ldr r2, =_sbss
 80025e4:	20000030 	.word	0x20000030
  ldr r4, =_ebss
 80025e8:	200000e4 	.word	0x200000e4

080025ec <ADC1_IRQHandler>:
 * @retval : None
*/
    .section	.text.Default_Handler,"ax",%progbits
Default_Handler:
Infinite_Loop:
	b	Infinite_Loop
 80025ec:	e7fe      	b.n	80025ec <ADC1_IRQHandler>

080025ee <memset>:
 80025ee:	4402      	add	r2, r0
 80025f0:	4603      	mov	r3, r0
 80025f2:	4293      	cmp	r3, r2
 80025f4:	d100      	bne.n	80025f8 <memset+0xa>
 80025f6:	4770      	bx	lr
 80025f8:	f803 1b01 	strb.w	r1, [r3], #1
 80025fc:	e7f9      	b.n	80025f2 <memset+0x4>
	...

08002600 <__libc_init_array>:
 8002600:	b570      	push	{r4, r5, r6, lr}
 8002602:	4b0d      	ldr	r3, [pc, #52]	@ (8002638 <__libc_init_array+0x38>)
 8002604:	4d0d      	ldr	r5, [pc, #52]	@ (800263c <__libc_init_array+0x3c>)
 8002606:	1b5b      	subs	r3, r3, r5
 8002608:	109c      	asrs	r4, r3, #2
 800260a:	2600      	movs	r6, #0
 800260c:	42a6      	cmp	r6, r4
 800260e:	d109      	bne.n	8002624 <__libc_init_array+0x24>
 8002610:	f000 f81a 	bl	8002648 <_init>
 8002614:	4d0a      	ldr	r5, [pc, #40]	@ (8002640 <__libc_init_array+0x40>)
 8002616:	4b0b      	ldr	r3, [pc, #44]	@ (8002644 <__libc_init_array+0x44>)
 8002618:	1b5b      	subs	r3, r3, r5
 800261a:	109c      	asrs	r4, r3, #2
 800261c:	2600      	movs	r6, #0
 800261e:	42a6      	cmp	r6, r4
 8002620:	d105      	bne.n	800262e <__libc_init_array+0x2e>
 8002622:	bd70      	pop	{r4, r5, r6, pc}
 8002624:	f855 3b04 	ldr.w	r3, [r5], #4
 8002628:	4798      	blx	r3
 800262a:	3601      	adds	r6, #1
 800262c:	e7ee      	b.n	800260c <__libc_init_array+0xc>
 800262e:	f855 3b04 	ldr.w	r3, [r5], #4
 8002632:	4798      	blx	r3
 8002634:	3601      	adds	r6, #1
 8002636:	e7f2      	b.n	800261e <__libc_init_array+0x1e>
 8002638:	080026a0 	.word	0x080026a0
 800263c:	080026a0 	.word	0x080026a0
 8002640:	080026a0 	.word	0x080026a0
 8002644:	080026a4 	.word	0x080026a4

08002648 <_init>:
 8002648:	b5f8      	push	{r3, r4, r5, r6, r7, lr}
 800264a:	bf00      	nop
 800264c:	bcf8      	pop	{r3, r4, r5, r6, r7}
 800264e:	bc08      	pop	{r3}
 8002650:	469e      	mov	lr, r3
 8002652:	4770      	bx	lr

08002654 <_fini>:
 8002654:	b5f8      	push	{r3, r4, r5, r6, r7, lr}
 8002656:	bf00      	nop
 8002658:	bcf8      	pop	{r3, r4, r5, r6, r7}
 800265a:	bc08      	pop	{r3}
 800265c:	469e      	mov	lr, r3
 800265e:	4770      	bx	lr
